No.     Time           Source                Destination           Protocol Length Info
      1 0.000000       0x0103                0x0203                IEEE 802.15.4 53     Data, Dst: 0x0203, Src: 0x0103

0000  61 88 84 32 33 03 02 03 01 b5 00 fd 1c 00 00 01   a..23...........
0010  03 01 21 00 00 d3 e8 0f 00 00 00 00 00 00 00 00   ..!.............
0020  00 36 01 00 00 3f 01 00 00 00 00 00 00 00 00 7d   .6...?.........}
0030  7f 8b a6 85 96                                    .....

      3 0.096725       0x0103                0x0203                IEEE 802.15.4 48     Data, Dst: 0x0203, Src: 0x0103

0000  61 88 85 32 33 03 02 03 01 b6 00 fd 17 00 00 02   a..23...........
0010  03 01 fd 00 00 04 45 4b 46 32 20 49 4d 55 31 20   ......EKF2 IMU1 
0020  66 6f 72 63 65 64 20 72 65 73 65 74 c2 dc 12 b0   forced reset....

No.     Time           Source                Destination           Protocol Length Info
      5 0.135389       0x0103                0x0203                IEEE 802.15.4 106    Data, Dst: 0x0203, Src: 0x0103

0000  61 88 86 32 33 03 02 03 01 b7 00 fd 29 00 00 03   a..23.......)...
0010  03 01 fd 00 00 06 45 4b 46 32 20 49 4d 55 31 20   ......EKF2 IMU1 
0020  69 6e 69 74 69 61 6c 20 79 61 77 20 61 6c 69 67   initial yaw alig
0030  6e 6d 65 6e 74 20 63 6f 6d 70 6c 65 74 65 97 2a   nment complete.*
0040  fd 1c 00 00 04 03 01 21 00 00 51 e9 0f 00 00 00   .......!..Q.....
0050  00 00 00 00 00 00 ae 01 00 00 b5 01 00 00 00 00   ................
0060  00 00 00 00 7c 7f e9 b9 e3 9d                     ....|.....

No.     Time           Source                Destination           Protocol Length Info
      7 0.258639       0x0103                0x0203                IEEE 802.15.4 77     Data, Dst: 0x0203, Src: 0x0103

0000  61 88 87 32 33 03 02 03 01 b8 00 fd 1f 00 00 05   a..23...........
0010  03 01 01 00 00 0f fc 60 13 0f 1c 60 10 0f 9c 50   .......`...`...P
0020  01 ea 01 00 00 ff ff 00 00 00 00 00 00 00 00 00   ................
0030  00 00 00 ff c1 b0 fd 16 00 00 06 03 01 c1 00 00   ................
0040  00 00 00 00 9b 25 0c 3b 14 69 8d 91 05            .....%.;.i...

No.     Time           Source                Destination           Protocol Length Info
      9 0.276947       0x0103                0x0203                IEEE 802.15.4 106    Data, Dst: 0x0203, Src: 0x0103

0000  61 88 88 32 33 03 02 03 01 b9 00 3b 5e 0a fc 3d   a..23......;^..=
0010  00 00 00 00 a5 01 fb 16 fd 1c 00 00 07 03 01 1e   ................
0020  00 00 d2 e9 0f 00 d8 c2 a2 3d 67 04 0a 3b 74 53   .........=g..;tS
0030  16 bf 32 5b c2 ba 28 29 25 3a 44 1e 9b 3b d3 68   ..2[..()%:D..;.h
0040  fd 1c 00 00 08 03 01 21 00 00 d2 e9 0f 00 00 00   .......!........
0050  00 00 00 00 00 00 68 01 00 00 6f 01 00 00 00 00   ......h...o.....
0060  00 00 00 00 7c 7f 37 5d 67 62                     ....|.7]gb

No.     Time           Source                Destination           Protocol Length Info
     11 0.319436       0x0103                0x0203                IEEE 802.15.4 34     Data, Dst: 0x0203, Src: 0x0103
     
0000  61 88 89 32 33 03 02 03 01 ba 00 fd 09 00 00 09   a..23...........
0010  03 01 00 00 00 00 00 00 00 02 03 51 03 03 62 dc   ...........Q..b.
0020  16 c1                                             ..
 
No.     Time           Source                Destination           Protocol Length Info
     13 0.375874       0x0103                0x0203                IEEE 802.15.4 53     Data, Dst: 0x0203, Src: 0x0103

0000  61 88 8a 32 33 03 02 03 01 bb 00 fd 1c 00 00 0a   a..23...........
0010  03 01 21 00 00 4a ea 0f 00 00 00 00 00 00 00 00   ..!..J..........
0020  00 7c 01 00 00 7d 01 00 00 01 00 00 00 00 00 7b   .|...}.........{
0030  7f c6 b8 d1 e5                                    .....

No.     Time           Source                Destination           Protocol Length Info
     15 0.500405       0x0103                0x0203                IEEE 802.15.4 53     Data, Dst: 0x0203, Src: 0x0103

0000  61 88 8b 32 33 03 02 03 01 bc 00 fd 1c 00 00 0b   a..23...........
0010  03 01 21 00 00 c7 ea 0f 00 00 00 00 00 00 00 00   ..!.............
0020  00 fa 00 00 00 01 01 00 00 01 00 00 00 00 00 7b   ...............{
0030  7f 0e 38 90 86                                    ..8..                        

No.     Time           Source                Destination           Protocol Length Info
     17 0.625839       0x0103                0x0203                IEEE 802.15.4 53     Data, Dst: 0x0203, Src: 0x0103

0000  61 88 8c 32 33 03 02 03 01 bd 00 fd 1c 00 00 0c   a..23...........
0010  03 01 21 00 00 44 eb 0f 00 00 00 00 00 00 00 00   ..!..D..........
0020  00 7c 01 00 00 80 01 00 00 01 00 00 00 00 00 7a   .|.............z
0030  7f 1b 81 18 a7                                    .....

No.     Time           Source                Destination           Protocol Length Info
     19 0.759569       0x0103                0x0203                IEEE 802.15.4 93     Data, Dst: 0x0203, Src: 0x0103

0000  61 88 8d 32 33 03 02 03 01 be 00 fd 1c 00 00 0d   a..23...........
0010  03 01 1e 00 00 c1 eb 0f 00 a8 bd a2 3d b1 9b 05   ............=...
0020  3b a2 6d 16 bf b0 51 73 b9 20 a6 2c b9 0c d7 8f   ;.m...Qs. .,....
0030  3b f7 67 fd 1c 00 00 0e 03 01 21 00 00 c4 eb 0f   ;.g.......!.....
0040  00 00 00 00 00 00 00 00 00 90 01 00 00 94 01 00   ................
0050  00 01 00 00 00 00 00 7a 7f 08 05 7c bb            .......z...|.

No.     Time           Source                Destination           Protocol Length Info
     21 0.764271       0x0103                0x0203                IEEE 802.15.4 93     Data, Dst: 0x0203, Src: 0x0103

0000  61 88 8d 32 33 03 02 03 01 be 00 fd 1c 00 00 0d   a..23...........
0010  03 01 1e 00 00 c1 eb 0f 00 a8 bd a2 3d b1 9b 05   ............=...
0020  3b a2 6d 16 bf b0 51 73 b9 20 a6 2c b9 0c d7 8f   ;.m...Qs. .,....
0030  3b f7 67 fd 1c 00 00 0e 03 01 21 00 00 c4 eb 0f   ;.g.......!.....
0040  00 00 00 00 00 00 00 00 00 90 01 00 00 94 01 00   ................
0050  00 01 00 00 00 00 00 7a 7f 08 05 7c bb            .......z...|.


No.     Time           Source                Destination           Protocol Length Info
     24 0.822007       0x0000                0x09fd                ZigBee   34     Unknown Command


0000  61 88 d1 32 33 03 01 03 02 05 00 fd 09 00 00 01   a..23...........
0010  ff be 00 00 00 00 00 00 00 06 08 c0 04 03 f4 fd   ................
0020  af e4                                             ..

No.     Time           Source                Destination           Protocol Length Info
     26 0.875919       0x0103                0x0203                IEEE 802.15.4 53     Data, Dst: 0x0203, Src: 0x0103

0000  61 88 8e 32 33 03 02 03 01 bf 00 fd 1c 00 00 0f   a..23...........
0010  03 01 21 00 00 3f ec 0f 00 00 00 00 00 00 00 00   ..!..?..........
0020  00 fe 01 00 00 05 02 00 00 01 00 00 00 00 00 79   ...............y
0030  7f 1d 47 7a c9                                    ..Gz.

No.     Time           Source                Destination           Protocol Length Info
     28 1.000790       0x0103                0x0203                IEEE 802.15.4 53     Data, Dst: 0x0203, Src: 0x0103

0000  61 88 8f 32 33 03 02 03 01 c0 00 fd 1c 00 00 10   a..23...........
0010  03 01 21 00 00 bb ec 0f 00 00 00 00 00 00 00 00   ..!.............
0020  00 90 01 00 00 91 01 00 00 01 00 00 00 00 00 78   ...............x
0030  7f fa c0 bf f5                                    .....

No.     Time           Source                Destination           Protocol Length Info
     30 1.126056       0x0103                0x0203                IEEE 802.15.4 53     Data, Dst: 0x0203, Src: 0x0103

0000  61 88 90 32 33 03 02 03 01 c1 00 fd 1c 00 00 11   a..23...........
0010  03 01 21 00 00 39 ed 0f 00 00 00 00 00 00 00 00   ..!..9..........
0020  00 30 02 00 00 37 02 00 00 01 00 00 00 00 00 77   .0...7.........w
0030  7f 8f f1 97 af                                    .....

No.     Time           Source                Destination           Protocol Length Info
     32 1.255613       0x0103                0x0203                IEEE 802.15.4 77     Data, Dst: 0x0203, Src: 0x0103
     
0000  61 88 91 32 33 03 02 03 01 c2 00 fd 1f 00 00 12   a..23...........
0010  03 01 01 00 00 0f fc 60 13 0f 1c 60 10 0f 9c 50   .......`...`...P
0020  01 f0 01 00 00 ff ff 00 00 00 00 00 00 00 00 00   ................
0030  00 00 00 ff 76 e1 fd 16 00 00 13 03 01 c1 00 00   ....v...........
0040  00 00 00 00 b2 6f 0e 3b bb fd 73 8b 7c            .....o.;..s.|

No.     Time           Source                Destination           Protocol Length Info
     34 1.274129       0x0103                0x0203                IEEE 802.15.4 106    Data, Dst: 0x0203, Src: 0x0103

0000  61 88 92 32 33 03 02 03 01 c3 00 3a b7 0e f8 3d   a..23......:...=
0010  00 00 00 00 a5 01 2b 99 fd 1c 00 00 14 03 01 1e   ......+.........
0020  00 00 b5 ed 0f 00 1c dd a2 3d b1 6b 04 3b 09 90   .........=.k.;..
0030  16 bf 61 ac fe 39 3c 1c eb 39 e4 7b 90 3b 21 e6   ..a..9<..9.{.;!.
0040  fd 1c 00 00 15 03 01 21 00 00 b8 ed 0f 00 00 00   .......!........
0050  00 00 00 00 00 00 fa 00 00 00 fb 00 00 00 01 00   ................
0060  00 00 00 00 77 7f 1a 17 b0 7a                     ....w....z

No.     Time           Source                Destination           Protocol Length Info
     36 1.318952       0x0000                0x09fd                ZigBee   34     Unknown Command

0000  61 88 93 32 33 03 02 03 01 c4 00 fd 09 00 00 16   a..23...........
0010  03 01 00 00 00 00 00 00 00 02 03 51 03 03 6d 9f   ...........Q..m.
0020  6b dd                                             k.

No.     Time           Source                Destination           Protocol Length Info
     38 1.375741       0x0000                0x1cfd                ZigBee   53     Route Request, Dst: 0x3300, Src: 0x0000

0000  61 88 94 32 33 03 02 03 01 c5 00 fd 1c 00 00 17   a..23...........
0010  03 01 21 00 00 33 ee 0f 00 00 00 00 00 00 00 00   ..!..3..........
0020  00 a4 01 00 00 a7 01 00 00 01 00 00 00 00 00 76   ...............v
0030  7f 12 5a 4d a2                                    ..ZM.


No.     Time           Source                Destination           Protocol Length Info
     40 1.500443       0x0103                0x0203                IEEE 802.15.4 53     Data, Dst: 0x0203, Src: 0x0103

0000  61 88 95 32 33 03 02 03 01 c6 00 fd 1c 00 00 18   a..23...........
0010  03 01 21 00 00 af ee 0f 00 00 00 00 00 00 00 00   ..!.............
0020  00 ae 01 00 00 b0 01 00 00 01 00 00 00 00 00 75   ...............u
0030  7f 0c 9c ba c4                                    .....

No.     Time           Source                Destination           Protocol Length Info
     42 1.625704       0x0103                0x0203                IEEE 802.15.4 53     Data, Dst: 0x0203, Src: 0x0103

0000  61 88 96 32 33 03 02 03 01 c7 00 fd 1c 00 00 19   a..23...........
0010  03 01 21 00 00 2d ef 0f 00 00 00 00 00 00 00 00   ..!..-..........
0020  00 68 01 00 00 6f 01 00 00 01 00 00 00 00 00 75   .h...o.........u
0030  7f f1 0c b4 7f                                    .....

No.     Time           Source                Destination           Protocol Length Info
     44 1.758912       0x0000                0x1cfd                ZigBee   93     Unknown Command

0000  61 88 97 32 33 03 02 03 01 c8 00 fd 1c 00 00 1a   a..23...........
0010  03 01 1e 00 00 a9 ef 0f 00 ae 01 a3 3d 96 d2 04   ............=...
0020  3b cb b0 16 bf c7 3d 95 b9 ec 0d 98 39 f9 bf 7d   ;.....=.....9..}
0030  3b 24 52 fd 1c 00 00 1b 03 01 21 00 00 a9 ef 0f   ;$R.......!.....
0040  00 00 00 00 00 00 00 00 00 9a 01 00 00 9c 01 00   ................
0050  00 01 00 00 00 00 00 74 7f 62 ce b2 0e            .......t.b...

No.     Time           Source                Destination           Protocol Length Info
     46 1.767082       0x0000                0x22fd                ZigBee   59     Many-to-One Route Request, Dst: 0x0600, Src: 0x0000

0000  61 88 98 32 33 03 02 03 01 c9 00 fd 22 00 00 1c   a..23......."...
0010  03 01 fd 00 00 06 45 4b 46 32 20 49 4d 55 31 20   ......EKF2 IMU1 
0020  74 69 6c 74 20 61 6c 69 67 6e 6d 65 6e 74 20 63   tilt alignment c
0030  6f 6d 70 6c 65 74 65 6f d3 f9 5f                  ompleteo.._

No.     Time           Source                Destination           Protocol Length Info
     48 1.824500       0x0203                0x0103                IEEE 802.15.4 34     Data, Dst: 0x0103, Src: 0x0203

0000  61 88 d2 32 33 03 01 03 02 06 00 fd 09 00 00 02   a..23...........
0010  ff be 00 00 00 00 00 00 00 06 08 c0 04 03 d5 67   ...............g
0020  d9 26                                             .&

No.     Time           Source                Destination           Protocol Length Info
     50 1.875799       0x0103                0x0203                IEEE 802.15.4 53     Data, Dst: 0x0203, Src: 0x0103

0000  61 88 99 32 33 03 02 03 01 ca 00 fd 1c 00 00 1d   a..23...........
0010  03 01 21 00 00 26 f0 0f 00 00 00 00 00 00 00 00   ..!..&..........
0020  00 72 01 00 00 7a 01 00 00 01 00 00 00 00 00 73   .r...z.........s
0030  7f fd 46 53 27                                    ..FS'

No.     Time           Source                Destination           Protocol Length Info
     52 2.000481       0x0103                0x0203                IEEE 802.15.4 53     Data, Dst: 0x0203, Src: 0x0103

0000  61 88 9a 32 33 03 02 03 01 cb 00 fd 1c 00 00 1e   a..23...........
0010  03 01 21 00 00 a3 f0 0f 00 00 00 00 00 00 00 00   ..!.............
0020  00 b4 00 00 00 ba 00 00 00 01 00 00 00 00 00 73   ...............s
0030  7f 67 99 05 19                                    .g...

No.     Time           Source                Destination           Protocol Length Info
     54 2.126086       0x0103                0x0203                IEEE 802.15.4 53     Data, Dst: 0x0203, Src: 0x0103

0000  61 88 9b 32 33 03 02 03 01 cc 00 fd 1c 00 00 1f   a..23...........
0010  03 01 21 00 00 21 f1 0f 00 00 00 00 00 00 00 00   ..!..!..........
0020  00 04 01 00 00 0c 01 00 00 01 00 00 00 00 00 72   ...............r
0030  7f b2 fc 8f 24                                    ....$

No.     Time           Source                Destination           Protocol Length Info
     56 2.262383       0x0103                0x0203                IEEE 802.15.4 113    Data, Dst: 0x0203, Src: 0x0103

0000  61 88 9c 32 33 03 02 03 01 cd 00 fd 1f 00 00 20   a..23.......... 
0010  03 01 01 00 00 0f fc 60 13 0f 1c 60 10 0f 9c 50   .......`...`...P
0020  01 f0 01 00 00 ff ff 00 00 00 00 00 00 00 00 00   ................
0030  00 00 00 ff 98 b0 fd 16 00 00 21 03 01 c1 00 00   ..........!.....
0040  00 00 00 00 5d e5 2d 3b c8 da a7 3a 0d 40 f5 3d   ....].-;...:.@.=
0050  00 00 00 00 a5 01 f8 05 fd 1c 00 00 22 03 01 1e   ............"...
0060  00 00 a3 f1 0f 00 a7 e7 a2 3d 69 04 08 3b 7e 4b   .........=i..;~K
0070  d2                                                .

No.     Time           Source                Destination           Protocol Length Info
     58 2.271612       0x0103                0x0203                IEEE 802.15.4 70     Data, Dst: 0x0203, Src: 0x0103
     
0000  61 88 9d 32 33 03 02 03 01 ce 00 d1 16 bf 60 16   a..23.........`.
0010  3c ba c0 24 e9 39 48 54 8f 3b c6 c8 fd 1c 00 00   <..$.9HT.;......
0020  23 03 01 21 00 00 a5 f1 0f 00 00 00 00 00 00 00   #..!............
0030  00 00 3a 02 00 00 43 02 00 00 01 00 00 00 00 00   ..:...C.........
0040  71 7f 6f 1b 6f 86                                 q.o.o.

No.     Time           Source                Destination           Protocol Length Info
     60 2.318833       0x0103                0x0203                IEEE 802.15.4 34     Data, Dst: 0x0203, Src: 0x0103

0000  61 88 9e 32 33 03 02 03 01 cf 00 fd 09 00 00 24   a..23..........$
0010  03 01 00 00 00 00 00 00 00 02 03 51 03 03 d5 61   ...........Q...a
0020  f9 5e                                             .^

No.     Time           Source                Destination           Protocol Length Info
     62 2.375455       0x0103                0x0203                IEEE 802.15.4 53     Data, Dst: 0x0203, Src: 0x0103

0000  61 88 9f 32 33 03 02 03 01 d0 00 fd 1c 00 00 25   a..23..........%
0010  03 01 21 00 00 1a f2 0f 00 00 00 00 00 00 00 00   ..!.............
0020  00 cc 01 00 00 d2 01 00 00 01 00 00 00 00 00 70   ...............p
0030  7f ee f1 67 aa                                    ...g.

No.     Time           Source                Destination           Protocol Length Info
     64 2.500335       0x0103                0x0203                IEEE 802.15.4 53     Data, Dst: 0x0203, Src: 0x0103

0000  61 88 a0 32 33 03 02 03 01 d1 00 fd 1c 00 00 26   a..23..........&
0010  03 01 21 00 00 97 f2 0f 00 00 00 00 00 00 00 00   ..!.............
0020  00 dc 00 00 00 e4 00 00 00 01 00 00 00 00 00 70   ...............p
0030  7f a9 84 03 28                                    ....(

No.     Time           Source                Destination           Protocol Length Info
     66 2.625606       0x0103                0x0203                IEEE 802.15.4 53     Data, Dst: 0x0203, Src: 0x0103

0000  61 88 a1 32 33 03 02 03 01 d2 00 fd 1c 00 00 27   a..23..........'
0010  03 01 21 00 00 14 f3 0f 00 00 00 00 00 00 00 00   ..!.............
0020  00 6c 02 00 00 70 02 00 00 01 00 00 00 00 00 6f   .l...p.........o
0030  7f f6 2e c1 eb                                    .....

No.     Time           Source                Destination           Protocol Length Info
     68 2.758785       0x0103                0x0203                IEEE 802.15.4 93     Data, Dst: 0x0203, Src: 0x0103

0000  61 88 a2 32 33 03 02 03 01 d3 00 fd 1c 00 00 28   a..23..........(
0010  03 01 1e 00 00 91 f3 0f 00 5f f3 a2 3d 26 e8 09   ........._..=&..
0020  3b f4 f1 16 bf f8 a0 22 3a 60 46 98 b7 19 45 67   ;......":`F...Eg
0030  3b 18 cf fd 1c 00 00 29 03 01 21 00 00 91 f3 0f   ;......)..!.....
0040  00 00 00 00 00 00 00 00 00 ae 01 00 00 b3 01 00   ................
0050  00 01 00 00 00 00 00 6e 7f e4 a3 7e ae            .......n...~.

No.     Time           Source                Destination           Protocol Length Info
     70 2.822138       0x0203                0x0103                IEEE 802.15.4 34     Data, Dst: 0x0103, Src: 0x0203

0000  61 88 d3 32 33 03 01 03 02 07 00 fd 09 00 00 03   a..23...........
0010  ff be 00 00 00 00 00 00 00 06 08 c0 04 03 c5 e9   ................
0020  0b 67                                             .g

No.     Time           Source                Destination           Protocol Length Info
     72 2.875670       0x0103                0x0203                IEEE 802.15.4 53     Data, Dst: 0x0203, Src: 0x0103

0000  61 88 a3 32 33 03 02 03 01 d4 00 fd 1c 00 00 2a   a..23..........*
0010  03 01 21 00 00 0f f4 0f 00 00 00 00 00 00 00 00   ..!.............
0020  00 5e 01 00 00 5e 01 00 00 01 00 00 00 00 00 6e   .^...^.........n
0030  7f c1 e6 31 79                                    ...1y

No.     Time           Source                Destination           Protocol Length Info
     74 3.000184       0x0103                0x0203                IEEE 802.15.4 53     Data, Dst: 0x0203, Src: 0x0103

0000  61 88 a4 32 33 03 02 03 01 d5 00 fd 1c 00 00 2b   a..23..........+
0010  03 01 21 00 00 8b f4 0f 00 00 00 00 00 00 00 00   ..!.............
0020  00 6c 02 00 00 70 02 00 00 01 00 00 00 00 00 6d   .l...p.........m
0030  7f b0 3e 40 0d                                    ..>@.

No.     Time           Source                Destination           Protocol Length Info
     76 3.125618       0x0103                0x0203                IEEE 802.15.4 53     Data, Dst: 0x0203, Src: 0x0103

0000  61 88 a5 32 33 03 02 03 01 d6 00 fd 1c 00 00 2c   a..23..........,
0010  03 01 21 00 00 08 f5 0f 00 00 00 00 00 00 00 00   ..!.............
0020  00 78 00 00 00 7f 00 00 00 01 00 00 00 00 00 6c   .x.............l
0030  7f ec 86 f0 e5                                    .....

No.     Time           Source                Destination           Protocol Length Info
     78 3.262815       0x0103                0x0203                IEEE 802.15.4 113    Data, Dst: 0x0203, Src: 0x0103

0000  61 88 a6 32 33 03 02 03 01 d7 00 fd 1f 00 00 2d   a..23..........-
0010  03 01 01 00 00 0f fc 60 13 0f 1c 60 10 0f 9c 50   .......`...`...P
0020  01 ee 01 00 00 ff ff 00 00 00 00 00 00 00 00 00   ................
0030  00 00 00 ff fa 5b fd 16 00 00 2e 03 01 c1 00 00   .....[..........
0040  00 00 00 00 a0 d8 43 3b 75 b3 26 3b c3 6d e4 3d   ......C;u.&;.m.=
0050  00 00 00 00 a5 01 18 eb fd 1c 00 00 2f 03 01 1e   ............/...
0060  00 00 85 f5 0f 00 3f 0b a3 3d dd 2b 0a 3b 29 e4   ......?..=.+.;).
0070  4e                                                N

No.     Time           Source                Destination           Protocol Length Info
     80 3.271676       0x0103                0x0203                IEEE 802.15.4 70     Data, Dst: 0x0203, Src: 0x0103

0000  61 88 a7 32 33 03 02 03 01 d8 00 0f 17 bf a7 a6   a..23...........
0010  95 39 4d 1c 23 ba 4e c4 87 3b b2 f1 fd 1c 00 00   .9M.#.N..;......
0020  30 03 01 21 00 00 8b f5 0f 00 00 00 00 00 00 00   0..!............
0030  00 00 90 01 00 00 91 01 00 00 01 00 00 00 00 00   ................
0040  6c 7f bb b2 b5 03                                 l.....

No.     Time           Source                Destination           Protocol Length Info
     82 3.318894       0x0103                0x0203                IEEE 802.15.4 34     Data, Dst: 0x0203, Src: 0x0103

0000  61 88 a8 32 33 03 02 03 01 d9 00 fd 09 00 00 31   a..23..........1
0010  03 01 00 00 00 00 00 00 00 02 03 51 03 03 2f 66   ...........Q../f
0020  6d e0                                             m.

No.     Time           Source                Destination           Protocol Length Info
     84 3.341600       0x0103                0x0203                IEEE 802.15.4 48     Data, Dst: 0x0203, Src: 0x0103

0000  61 88 a9 32 33 03 02 03 01 da 00 fd 17 00 00 32   a..23..........2
0010  03 01 fd 00 00 07 4c 75 61 3a 20 4e 6f 20 73 63   ......Lua: No sc
0020  72 69 70 74 73 20 74 6f 20 72 75 6e f4 d6 5c 0f   ripts to run..\.

No.     Time           Source                Destination           Protocol Length Info
     86 3.375340       0x0103                0x0203                IEEE 802.15.4 53     Data, Dst: 0x0203, Src: 0x0103

0000  61 88 aa 32 33 03 02 03 01 db 00 fd 1c 00 00 33   a..23..........3
0010  03 01 21 00 00 02 f6 0f 00 00 00 00 00 00 00 00   ..!.............
0020  00 cc 01 00 00 d2 01 00 00 01 00 00 00 00 00 6b   ...............k
0030  7f 80 9a a1 8c                                    .....

No.     Time           Source                Destination           Protocol Length Info
     88 3.500219       0x0103                0x0203                IEEE 802.15.4 53     Data, Dst: 0x0203, Src: 0x0103

0000  61 88 ab 32 33 03 02 03 01 dc 00 fd 1c 00 00 34   a..23..........4
0010  03 01 21 00 00 7f f6 0f 00 00 00 00 00 00 00 00   ..!.............
0020  00 90 01 00 00 96 01 00 00 01 00 00 00 00 00 6a   ...............j
0030  7f a1 0a 3f bb                                    ...?.

No.     Time           Source                Destination           Protocol Length Info
     90 3.625528       0x0103                0x0203                IEEE 802.15.4 53     Data, Dst: 0x0203, Src: 0x0103

0000  61 88 ac 32 33 03 02 03 01 dd 00 fd 1c 00 00 35   a..23..........5
0010  03 01 21 00 00 fc f6 0f 00 00 00 00 00 00 00 00   ..!.............
0020  00 b8 01 00 00 be 01 00 00 01 00 00 00 00 00 6a   ...............j
0030  7f a7 6a c1 4c                                    ..j.L

No.     Time           Source                Destination           Protocol Length Info
     92 3.758670       0x0103                0x0203                IEEE 802.15.4 93     Data, Dst: 0x0203, Src: 0x0103

0000  61 88 ad 32 33 03 02 03 01 de 00 fd 1c 00 00 36   a..23..........6
0010  03 01 1e 00 00 79 f7 0f 00 26 16 a3 3d f3 ac 09   .....y...&..=...
0020  3b 82 2c 17 bf a4 f8 76 3a 76 99 83 b9 4e 91 8b   ;.,....v:v...N..
0030  3b 4f d9 fd 1c 00 00 37 03 01 21 00 00 79 f7 0f   ;O.....7..!..y..
0040  00 00 00 00 00 00 00 00 00 3a 02 00 00 43 02 00   .........:...C..
0050  00 01 00 00 00 00 00 69 7f 4d 3d 72 93            .......i.M=r.

No.     Time           Source                Destination           Protocol Length Info
     96 3.875552       0x0103                0x0203                IEEE 802.15.4 53     Data, Dst: 0x0203, Src: 0x0103

0000  61 88 ae 32 33 03 02 03 01 df 00 fd 1c 00 00 38   a..23..........8
0010  03 01 21 00 00 f7 f7 0f 00 00 00 00 00 00 00 00   ..!.............
0020  00 8a 02 00 00 8c 02 00 00 01 00 00 00 00 00 68   ...............h
0030  7f 71 73 b0 85                                    .qs..

No.     Time           Source                Destination           Protocol Length Info
     98 4.000072       0x0103                0x0203                IPv6     53     Bogus IPv6 version (0, must be 6)

Frame (53 bytes):
0000  61 88 af 32 33 03 02 03 01 e0 00 fd 1c 00 00 39   a..23..........9
0010  03 01 21 00 00 73 f8 0f 00 00 00 00 00 00 00 00   ..!..s..........
0020  00 22 01 00 00 25 01 00 00 01 00 00 00 00 00 68   ."...%.........h
0030  7f e4 4f ce c0                                    ..O..
Reassembled 6LoWPAN (37 bytes):
0000  00 39 03 01 21 00 00 73 f8 0f 00 00 00 00 00 00   .9..!..s........
0010  00 00 00 22 01 00 00 25 01 00 00 01 00 00 00 00   ..."...%........
0020  00 68 7f e4 4f                                    .h..O

No.     Time           Source                Destination           Protocol Length Info
    100 4.125571       0x0103                0x0203                6LoWPAN  53     Data, Dst: 0x0203, Src: 0x0103

0000  61 88 b0 32 33 03 02 03 01 e1 00 fd 1c 00 00 3a   a..23..........:
0010  03 01 21 00 00 f1 f8 0f 00 00 00 00 00 00 00 00   ..!.............
0020  00 1c 02 00 00 1e 02 00 00 01 00 00 00 00 00 67   ...............g
0030  7f 4d a7 09 3b                                    .M..;

No.     Time           Source                Destination           Protocol Length Info
    102 4.255438       0x0103                0x0203                6LoWPAN  77     Data, Dst: 0x0203, Src: 0x0103

0000  61 88 b1 32 33 03 02 03 01 e2 00 fd 1f 00 00 3b   a..23..........;
0010  03 01 01 00 00 0f fc 60 13 0f 1c 60 10 0f 9c 50   .......`...`...P
0020  01 f2 01 00 00 ff ff 00 00 00 00 00 00 00 00 00   ................
0030  00 00 00 ff 53 73 fd 16 00 00 3c 03 01 c1 00 00   ....Ss....<.....
0040  00 00 00 00 20 e0 49 3b 0e 82 3f 92 9a            .... .I;..?..

No.     Time           Source                Destination           Protocol Length Info
    104 4.273958       0x0103                0x0203                6LoWPAN  106    Data, Dst: 0x0203, Src: 0x0103

0000  61 88 b2 32 33 03 02 03 01 e3 00 3b 31 43 f2 3d   a..23......;1C.=
0010  00 00 00 00 a5 01 74 dd fd 1c 00 00 3d 03 01 1e   ......t.....=...
0020  00 00 72 f9 0f 00 8e 12 a3 3d d5 a2 0d 3b 37 42   ..r......=...;7B
0030  17 bf fc 76 d1 b8 63 d1 0a 3a d9 aa ab 3b 76 c7   ...v..c..:...;v.
0040  fd 1c 00 00 3e 03 01 21 00 00 73 f9 0f 00 00 00   ....>..!..s.....
0050  00 00 00 00 00 00 ae 01 00 00 b5 01 00 00 01 00   ................
0060  00 00 00 00 67 7f ac f3 d6 92                     ....g.....

No.     Time           Source                Destination           Protocol Length Info
    106 4.318604       0x0103                0x0203                6LoWPAN  34     Data, Dst: 0x0203, Src: 0x0103

0000  61 88 b3 32 33 03 02 03 01 e4 00 fd 09 00 00 3f   a..23..........?
0010  03 01 00 00 00 00 00 00 00 02 03 51 03 03 b8 0a   ...........Q....
0020  7c 30                                             |0

No.     Time           Source                Destination           Protocol Length Info
    108 4.375414       0x0103                0x0203                6LoWPAN  53     Data, Dst: 0x0203, Src: 0x0103

0000  61 88 b4 32 33 03 02 03 01 e5 00 fd 1c 00 00 40   a..23..........@
0010  03 01 21 00 00 eb f9 0f 00 00 00 00 00 00 00 00   ..!.............
0020  00 dc 00 00 00 dc 00 00 00 01 00 00 00 00 00 66   ...............f
0030  7f 2b 56 aa 1a                                    .+V..

No.     Time           Source                Destination           Protocol Length Info
    110 4.500099       0x0103                0x0203                6LoWPAN  53     Data, Dst: 0x0203, Src: 0x0103

0000  61 88 b5 32 33 03 02 03 01 e6 00 fd 1c 00 00 41   a..23..........A
0010  03 01 21 00 00 67 fa 0f 00 00 00 00 00 00 00 00   ..!..g..........
0020  00 76 02 00 00 7b 02 00 00 01 00 00 00 00 00 66   .v...{.........f
0030  7f 41 e0 ad ad                                    .A...

No.     Time           Source                Destination           Protocol Length Info
    112 4.625516       0x0103                0x0203                6LoWPAN  53     Data, Dst: 0x0203, Src: 0x0103

0000  61 88 b6 32 33 03 02 03 01 e7 00 fd 1c 00 00 42   a..23..........B
0010  03 01 21 00 00 e5 fa 0f 00 00 00 00 00 00 00 00   ..!.............
0020  00 b8 01 00 00 bb 01 00 00 01 00 00 00 00 00 65   ...............e
0030  7f f8 b9 81 68                                    ....h

No.     Time           Source                Destination           Protocol Length Info
    114 4.755474       0x0103                0x0203                6LoWPAN  77     Data, Dst: 0x0203, Src: 0x0103

0000  61 88 b7 32 33 03 02 03 01 e8 00 fd 1c 00 00 43   a..23..........C
0010  03 01 1e 00 00 61 fb 0f 00 e5 06 a3 3d 01 36 0d   .....a......=.6.
0020  3b 19 5f 17 bf 5a f3 6b 39 7c df f2 38 29 3d 8a   ;._..Z.k9|..8)=.
0030  3b 14 da fd 1c 00 00 44 03 01 21 00 00 61 fb 0f   ;......D..!..a..
0040  00 00 00 00 00 00 00 00 00 fa 00 38 4a            ...........8J

No.     Time           Source                Destination           Protocol Length Info
    116 4.759433       0x0103                0x0203                6LoWPAN  29     Data, Dst: 0x0203, Src: 0x0103[Malformed Packet]

0000  61 88 b8 32 33 03 02 03 01 e9 00 00 00 01 01 00   a..23...........
0010  00 01 00 00 00 00 00 65 7f e2 40 d0 bf            .......e..@..

No.     Time           Source                Destination           Protocol Length Info
    118 4.822798       0x0000                0x09fd                ZigBee   34     Unknown Command

0000  61 88 d5 32 33 03 01 03 02 09 00 fd 09 00 00 05   a..23...........
0010  ff be 00 00 00 00 00 00 00 06 08 c0 04 03 96 d5   ................
0020  fa 85                                             ..

No.     Time           Source                Destination           Protocol Length Info
    120 4.875254       0x0103                0x0203                6LoWPAN  53     Data, Dst: 0x0203, Src: 0x0103

0000  61 88 b9 32 33 03 02 03 01 ea 00 fd 1c 00 00 45   a..23..........E
0010  03 01 21 00 00 de fb 0f 00 00 00 00 00 00 00 00   ..!.............
0020  00 90 01 00 00 99 01 00 00 01 00 00 00 00 00 64   ...............d
0030  7f 48 e7 fe 8a                                    .H...

No.     Time           Source                Destination           Protocol Length Info
    122 4.999953       0x0103                0x0203                6LoWPAN  53     Data, Dst: 0x0203, Src: 0x0103

0000  61 88 ba 32 33 03 02 03 01 eb 00 fd 1c 00 00 46   a..23..........F
0010  03 01 21 00 00 5b fc 0f 00 00 00 00 00 00 00 00   ..!..[..........
0020  00 40 01 00 00 42 01 00 00 01 00 00 00 00 00 63   .@...B.........c
0030  7f 66 d4 87 37                                    .f..7

No.     Time           Source                Destination           Protocol Length Info
    124 5.125362       0x0103                0x0203                IEEE 802.15.4 53     Data, Dst: 0x0203, Src: 0x0103

0000  61 88 bb 32 33 03 02 03 01 ec 00 fd 1c 00 00 47   a..23..........G
0010  03 01 21 00 00 d9 fc 0f 00 00 00 00 00 00 00 00   ..!.............
0020  00 d6 01 00 00 dd 01 00 00 01 00 00 00 00 00 63   ...............c
0030  7f b1 c2 c0 5b                                    ....[

No.     Time           Source                Destination           Protocol Length Info
    126 5.262404       0x0103                0x0203                IEEE 802.15.4 113    Data, Dst: 0x0203, Src: 0x0103

0000  61 88 bc 32 33 03 02 03 01 ed 00 fd 1f 00 00 48   a..23..........H
0010  03 01 01 00 00 0f fc 60 13 0f 1c 60 10 0f 9c 50   .......`...`...P
0020  01 ee 01 00 00 ff ff 00 00 00 00 00 00 00 00 00   ................
0030  00 00 00 ff ee 52 fd 16 00 00 49 03 01 c1 00 00   .....R....I.....
0040  00 00 00 00 4c 48 49 3b b6 6e 18 3c ca 3e e5 3d   ....LHI;.n.<.>.=
0050  00 00 00 00 a5 01 5a ba fd 1c 00 00 4a 03 01 1e   ......Z.....J...
0060  00 00 58 fd 0f 00 31 0f a3 3d 4c d3 0b 3b cc d4   ..X...1..=L..;..
0070  f6                                                .

No.     Time           Source                Destination           Protocol Length Info
    128 5.271086       0x0103                0x0203                IEEE 802.15.4 70     Data, Dst: 0x0203, Src: 0x0103

0000  61 88 bd 32 33 03 02 03 01 ee 00 80 17 bf 3d 65   a..23.........=e
0010  e3 39 f4 cf 6a 38 22 cc 89 3b 08 2e fd 1c 00 00   .9..j8"..;......
0020  4b 03 01 21 00 00 58 fd 0f 00 00 00 00 00 00 00   K..!..X.........
0030  00 00 9a 01 00 00 a2 01 00 00 01 00 00 00 00 00   ................
0040  62 7f ab cf 21 23                                 b...!#

No.     Time           Source                Destination           Protocol Length Info
    130 5.318664       0x0103                0x0203                IEEE 802.15.4 34     Data, Dst: 0x0203, Src: 0x0103

0000  61 88 be 32 33 03 02 03 01 ef 00 fd 09 00 00 4c   a..23..........L
0010  03 01 00 00 00 00 00 00 00 02 03 51 03 03 12 ec   ...........Q....
0020  8d ba                                             ..

No.     Time           Source                Destination           Protocol Length Info
    132 5.375470       0x0103                0x0203                IEEE 802.15.4 53     Data, Dst: 0x0203, Src: 0x0103

0000  61 88 bf 32 33 03 02 03 01 f0 00 fd 1c 00 00 4d   a..23..........M
0010  03 01 21 00 00 d3 fd 0f 00 00 00 00 00 00 00 00   ..!.............
0020  00 c2 01 00 00 c4 01 00 00 01 00 00 00 00 00 61   ...............a
0030  7f e9 fb ff 83                                    .....

No.     Time           Source                Destination           Protocol Length Info
    134 5.500174       0x0103                0x0203                IEEE 802.15.4 53     Data, Dst: 0x0203, Src: 0x0103

0000  61 88 c0 32 33 03 02 03 01 f1 00 fd 1c 00 00 4e   a..23..........N
0010  03 01 21 00 00 4f fe 0f 00 00 00 00 00 00 00 00   ..!..O..........
0020  00 90 01 00 00 96 01 00 00 01 00 00 00 00 00 60   ...............`
0030  7f 05 54 4e bf                                    ..TN.

No.     Time           Source                Destination           Protocol Length Info
    136 5.629933       0x0103                0x0203                IEEE 802.15.4 53     Data, Dst: 0x0203, Src: 0x0103

0000  61 88 c1 32 33 03 02 03 01 f2 00 fd 1c 00 00 4f   a..23..........O
0010  03 01 21 00 00 d1 fe 0f 00 00 00 00 00 00 00 00   ..!.............
0020  00 90 01 00 00 94 01 00 00 01 00 00 00 00 00 60   ...............`
0030  7f fd 29 2b ed                                    ..)+.

No.     Time           Source                Destination           Protocol Length Info
    138 5.758984       0x0103                0x0203                IEEE 802.15.4 93     Data, Dst: 0x0203, Src: 0x0103

0000  61 88 c2 32 33 03 02 03 01 f3 00 fd 1c 00 00 50   a..23..........P
0010  03 01 1e 00 00 49 ff 0f 00 25 f3 a2 3d d2 2f 0d   .....I...%..=./.
0020  3b bc 9f 17 bf 43 f8 a2 39 b2 43 86 39 f4 43 8f   ;....C..9.C.9.C.
0030  3b 5e 68 fd 1c 00 00 51 03 01 21 00 00 4c ff 0f   ;^h....Q..!..L..
0040  00 00 00 00 00 00 00 00 00 26 02 00 00 29 02 00   .........&...)..
0050  00 01 00 00 00 00 00 5f 7f f8 f3 aa 53            ......._....S

No.     Time           Source                Destination           Protocol Length Info
    140 5.821996       0x0203                0x0103                IEEE 802.15.4 34     Data, Dst: 0x0103, Src: 0x0203

0000  61 88 d6 32 33 03 01 03 02 0a 00 fd 09 00 00 06   a..23...........
0010  ff be 00 00 00 00 00 00 00 06 08 c0 04 03 b7 4f   ...............O
0020  8c 47                                             .G

No.     Time           Source                Destination           Protocol Length Info
    142 5.875353       0x0103                0x0203                IEEE 802.15.4 53     Data, Dst: 0x0203, Src: 0x0103

0000  61 88 c3 32 33 03 02 03 01 f4 00 fd 1c 00 00 52   a..23..........R
0010  03 01 21 00 00 c7 ff 0f 00 00 00 00 00 00 00 00   ..!.............
0020  00 68 01 00 00 6f 01 00 00 01 00 00 00 00 00 5e   .h...o.........^
0030  7f 73 8b d1 76                                    .s..v

No.     Time           Source                Destination           Protocol Length Info
    144 5.999857       0x0103                0x0203                IEEE 802.15.4 53     Data, Dst: 0x0203, Src: 0x0103

0000  61 88 c4 32 33 03 02 03 01 f5 00 fd 1c 00 00 53   a..23..........S
0010  03 01 21 00 00 43 00 10 00 00 00 00 00 00 00 00   ..!..C..........
0020  00 7c 01 00 00 7d 01 00 00 01 00 00 00 00 00 5e   .|...}.........^
0030  7f 86 b1 de ef                                    .....

No.     Time           Source                Destination           Protocol Length Info
    146 6.125253       0x0103                0x0203                IEEE 802.15.4 53     Data, Dst: 0x0203, Src: 0x0103

0000  61 88 c5 32 33 03 02 03 01 f6 00 fd 1c 00 00 54   a..23..........T
0010  03 01 21 00 00 c0 00 10 00 00 00 00 00 00 00 00   ..!.............
0020  00 72 01 00 00 74 01 00 00 01 00 00 00 00 00 5d   .r...t.........]
0030  7f 9f d1 04 70                                    ....p

No.     Time           Source                Destination           Protocol Length Info
    148 6.260466       0x0103                0x0203                IEEE 802.15.4 77     Data, Dst: 0x0203, Src: 0x0103

0000  61 88 c6 32 33 03 02 03 01 f7 00 fd 1f 00 00 55   a..23..........U
0010  03 01 01 00 00 0f fc 60 13 0f 1c 60 10 0f 9c 50   .......`...`...P
0020  01 ef 01 00 00 ff ff 00 00 00 00 00 00 00 00 00   ................
0030  00 00 00 ff 4d 1e fd 16 00 00 56 03 01 c1 00 00   ....M.....V.....
0040  00 00 00 00 b8 32 56 3b a7 49 2e be fb            .....2V;.I...

No.     Time           Source                Destination           Protocol Length Info
    150 6.278783       0x0103                0x0203                IEEE 802.15.4 106    Data, Dst: 0x0203, Src: 0x0103

0000  61 88 c7 32 33 03 02 03 01 f8 00 3c 41 bc f8 3d   a..23......<A..=
0010  00 00 00 00 a5 01 93 bc fd 1c 00 00 57 03 01 1e   ............W...
0020  00 00 47 01 10 00 e7 f1 a2 3d cd 84 0c 3b c0 b9   ..G......=...;..
0030  17 bf 08 73 16 38 02 2b bf 39 1e 19 87 3b 54 45   ...s.8.+.9...;TE
0040  fd 1c 00 00 58 03 01 21 00 00 47 01 10 00 00 00   ....X..!..G.....
0050  00 00 00 00 00 00 a8 02 00 00 b1 02 00 00 01 00   ................
0060  00 00 00 00 5d 7f 39 bd 41 ac                     ....].9.A.

No.     Time           Source                Destination           Protocol Length Info
    152 6.318370       0x0103                0x0203                IEEE 802.15.4 34     Data, Dst: 0x0203, Src: 0x0103

0000  61 88 c8 32 33 03 02 03 01 f9 00 fd 09 00 00 59   a..23..........Y
0010  03 01 00 00 00 00 00 00 00 02 03 51 03 03 e8 eb   ...........Q....
0020  51 78                                             Qx

No.     Time           Source                Destination           Protocol Length Info
    154 6.375352       0x0103                0x0203                IEEE 802.15.4 53     Data, Dst: 0x0203, Src: 0x0103

0000  61 88 c9 32 33 03 02 03 01 fa 00 fd 1c 00 00 5a   a..23..........Z
0010  03 01 21 00 00 ba 01 10 00 00 00 00 00 00 00 00   ..!.............
0020  00 cc 01 00 00 cf 01 00 00 01 00 00 00 00 00 5c   ...............\
0030  7f 1c 3e 17 66                                    ..>.f

No.     Time           Source                Destination           Protocol Length Info
    156 6.499871       0x0103                0x0203                IEEE 802.15.4 53     Data, Dst: 0x0203, Src: 0x0103

0000  61 88 ca 32 33 03 02 03 01 fb 00 fd 1c 00 00 5b   a..23..........[
0010  03 01 21 00 00 37 02 10 00 00 00 00 00 00 00 00   ..!..7..........
0020  00 c2 01 00 00 c6 01 00 00 01 00 00 00 00 00 5b   ...............[
0030  7f ba be 81 16                                    .....

No.     Time           Source                Destination           Protocol Length Info
    158 6.625465       0x0103                0x0203                IEEE 802.15.4 53     Data, Dst: 0x0203, Src: 0x0103

0000  61 88 cb 32 33 03 02 03 01 fc 00 fd 1c 00 00 5c   a..23..........\
0010  03 01 21 00 00 b5 02 10 00 00 00 00 00 00 00 00   ..!.............
0020  00 90 01 00 00 91 01 00 00 01 00 00 00 00 00 5a   ...............Z
0030  7f 0c 70 d9 2e                                    ..p..

No.     Time           Source                Destination           Protocol Length Info
    160 6.761403       0x0103                0x0203                IEEE 802.15.4 93     Data, Dst: 0x0203, Src: 0x0103

0000  61 88 cc 32 33 03 02 03 01 fd 00 fd 1c 00 00 5d   a..23..........]
0010  03 01 1e 00 00 34 03 10 00 a6 d3 a2 3d 18 97 0e   .....4......=...
0020  3b 29 da 17 bf d1 84 da ba be cd 26 3a 37 a8 92   ;).........&:7..
0030  3b 22 44 fd 1c 00 00 5e 03 01 21 00 00 36 03 10   ;"D....^..!..6..
0040  00 00 00 00 00 00 00 00 00 f0 00 00 00 f5 00 00   ................
0050  00 01 00 00 00 00 00 5a 7f 6b 39 68 3b            .......Z.k9h;

No.     Time           Source                Destination           Protocol Length Info
    162 6.822761       0x0203                0x0103                IEEE 802.15.4 34     Data, Dst: 0x0103, Src: 0x0203

0000  61 88 d7 32 33 03 01 03 02 0b 00 fd 09 00 00 07   a..23...........
0010  ff be 00 00 00 00 00 00 00 06 08 c0 04 03 a7 c1   ................
0020  5e 06                                             ^.

No.     Time           Source                Destination           Protocol Length Info
    164 6.875212       0x0103                0x0203                IEEE 802.15.4 53     Data, Dst: 0x0203, Src: 0x0103

0000  61 88 cd 32 33 03 02 03 01 fe 00 fd 1c 00 00 5f   a..23.........._
0010  03 01 21 00 00 ae 03 10 00 00 00 00 00 00 00 00   ..!.............
0020  00 0e 01 00 00 17 01 00 00 01 00 00 00 00 00 59   ...............Y
0030  7f 90 2b c7 ba                                    ..+..

No.     Time           Source                Destination           Protocol Length Info
    166 7.000085       0x0103                0x0203                IEEE 802.15.4 53     Data, Dst: 0x0203, Src: 0x0103

0000  61 88 ce 32 33 03 02 03 01 ff 00 fd 1c 00 00 60   a..23..........`
0010  03 01 21 00 00 2b 04 10 00 00 00 00 00 00 00 00   ..!..+..........
0020  00 0e 01 00 00 17 01 00 00 01 00 00 00 00 00 58   ...............X
0030  7f 3b 5f 93 10                                    .;_..

No.     Time           Source                Destination           Protocol Length Info
    168 7.125154       0x0103                0x0203                LwMesh   53     Lightweight Mesh, Nwk_Dst: 0x0000, Nwk_Src: 0x1cfd

0000  61 88 cf 32 33 03 02 03 01 01 00 fd 1c 00 00 61   a..23..........a
0010  03 01 21 00 00 a8 04 10 00 00 00 00 00 00 00 00   ..!.............
0020  00 ea 01 00 00 ee 01 00 00 01 00 00 00 00 00 58   ...............X
0030  7f 7b 61 28 5e                                    .{a(^

No.     Time           Source                Destination           Protocol Length Info
    170 7.255467       0x0103                0x0203                LwMesh   77     Encrypted data (55 byte(s)) NO DECRYPT KEY

0000  61 88 d0 32 33 03 02 03 01 02 00 fd 1f 00 00 62   a..23..........b
0010  03 01 01 00 00 0f fc 60 13 0f 1c 60 10 0f 9c 50   .......`...`...P
0020  01 ea 01 00 00 ff ff 00 00 00 00 00 00 00 00 00   ................
0030  00 00 00 ff 54 e4 fd 16 00 00 63 03 01 c1 00 00   ....T.....c.....
0040  00 00 00 00 f4 4a 43 3b 96 bc e0 28 17            .....JC;...(.

No.     Time           Source                Destination           Protocol Length Info
    172 7.273613       0x0103                0x0203                LwMesh   106    Encrypted data (84 byte(s)) NO DECRYPT KEY

0000  61 88 d1 32 33 03 02 03 01 03 00 3b 70 88 f0 3d   a..23......;p..=
0010  00 00 00 00 a5 01 c7 18 fd 1c 00 00 64 03 01 1e   ............d...
0020  00 00 28 05 10 00 c5 d4 a2 3d 9a 83 11 3b 80 f7   ..(......=...;..
0030  17 bf a0 2d 4c b9 73 e3 10 3a d4 a2 66 3b ac 74   ...-L.s..:..f;.t
0040  fd 1c 00 00 65 03 01 21 00 00 28 05 10 00 00 00   ....e..!..(.....
0050  00 00 00 00 00 00 0e 01 00 00 12 01 00 00 01 00   ................
0060  00 00 00 00 57 7f 64 f2 22 66                     ....W.d."f

No.     Time           Source                Destination           Protocol Length Info
    174 7.318969       0x0000                0x09fd                ZigBee   34     Unknown Command

0000  61 88 d2 32 33 03 02 03 01 04 00 fd 09 00 00 66   a..23..........f
0010  03 01 00 00 00 00 00 00 00 02 03 51 03 03 e6 e3   ...........Q....
0020  0d d2                                             ..

No.     Time           Source                Destination           Protocol Length Info
    176 7.375252       0x0000                0x1cfd                ZigBee   53     Route Request, Dst: 0xa300, Src: 0x0000

0000  61 88 d3 32 33 03 02 03 01 05 00 fd 1c 00 00 67   a..23..........g
0010  03 01 21 00 00 a3 05 10 00 00 00 00 00 00 00 00   ..!.............
0020  00 04 01 00 00 09 01 00 00 01 00 00 00 00 00 57   ...............W
0030  7f 8d a4 f7 f0                                    .....

No.     Time           Source                Destination           Protocol Length Info
    178 7.378684       0x0000                0x1cfd                ZigBee   53     Route Request, Dst: 0xa300, Src: 0x0000

0000  61 88 d3 32 33 03 02 03 01 05 00 fd 1c 00 00 67   a..23..........g
0010  03 01 21 00 00 a3 05 10 00 00 00 00 00 00 00 00   ..!.............
0020  00 04 01 00 00 09 01 00 00 01 00 00 00 00 00 57   ...............W
0030  7f 8d a4 f7 f0                                    .....

No.     Time           Source                Destination           Protocol Length Info
    180 7.499797       0x0103                0x0203                LwMesh   53     Encrypted data (31 byte(s)) NO DECRYPT KEY

0000  61 88 d4 32 33 03 02 03 01 06 00 fd 1c 00 00 68   a..23..........h
0010  03 01 21 00 00 1f 06 10 00 00 00 00 00 00 00 00   ..!.............
0020  00 36 01 00 00 3f 01 00 00 01 00 00 00 00 00 56   .6...?.........V
0030  7f 81 7b a9 55                                    ..{.U

No.     Time           Source                Destination           Protocol Length Info
    182 7.536408       0x0103                0x0203                LwMesh   38     Encrypted data (16 byte(s)) NO DECRYPT KEY

0000  61 88 d5 32 33 03 02 03 01 07 00 fd 0d 00 00 69   a..23..........i
0010  03 01 6f 00 00 00 00 00 00 00 00 00 00 1b 4e d0   ..o...........N.
0020  83 f4 24 b0 53 9e                                 ..$.S.

No.     Time           Source                Destination           Protocol Length Info
    184 7.625002       0x0000                0x1cfd                ZigBee   53     Unknown Command

0000  61 88 d6 32 33 03 02 03 01 08 00 fd 1c 00 00 6a   a..23..........j
0010  03 01 21 00 00 9d 06 10 00 00 00 00 00 00 00 00   ..!.............
0020  00 4a 01 00 00 53 01 00 00 00 00 00 00 00 00 56   .J...S.........V
0030  7f bc a6 7f ef                                    .....

No.     Time           Source                Destination           Protocol Length Info
    186 7.749680       0x0000                0x1cfd                ZigBee   53     Many-to-One Route Request, Dst: 0x1900, Src: 0x0000

0000  61 88 d7 32 33 03 02 03 01 09 00 fd 1c 00 00 6b   a..23..........k
0010  03 01 1e 00 00 19 07 10 00 f3 e1 a2 3d 0a 1b 13   ............=...
0020  3b 43 12 18 bf 8c 02 9d b9 f8 05 bf 37 58 d0 83   ;C..........7X..
0030  3b c3 62 7d 2c                                    ;.b},

No.     Time           Source                Destination           Protocol Length Info
    188 7.757119       0x0103                0x0203                LwMesh   53     Encrypted data (29 byte(s)) NO DECRYPT KEY

0000  61 88 d8 32 33 03 02 03 01 0a 00 fd 1c 00 00 6c   a..23..........l
0010  03 01 21 00 00 1e 07 10 00 00 00 00 00 00 00 00   ..!.............
0020  00 72 01 00 00 72 01 00 00 00 00 00 00 00 00 55   .r...r.........U
0030  7f 4b e4 f6 7e                                    .K..~

No.     Time           Source                Destination           Protocol Length Info
    190 7.823614       0x0203                0x0103                IEEE 802.15.4 34     Data, Dst: 0x0103, Src: 0x0203

0000  61 88 d8 32 33 03 01 03 02 0c 00 fd 09 00 00 08   a..23...........
0010  ff be 00 00 00 00 00 00 00 06 08 c0 04 03 20 23   .............. #
0020  cf bb                                             ..

No.     Time           Source                Destination           Protocol Length Info
    192 7.875116       0x0103                0x0203                LwMesh   53     Encrypted data (29 byte(s)) NO DECRYPT KEY

0000  61 88 d9 32 33 03 02 03 01 0b 00 fd 1c 00 00 6d   a..23..........m
0010  03 01 21 00 00 96 07 10 00 00 00 00 00 00 00 00   ..!.............
0020  00 a4 01 00 00 aa 01 00 00 00 00 00 00 00 00 54   ...............T
0030  7f 5a fb e2 65                                    .Z..e

No.     Time           Source                Destination           Protocol Length Info
    193 7.875611                                                   IEEE 802.15.4 5      Ack

Frame 193: 5 bytes on wire (40 bits), 5 bytes captured (40 bits)
    Encapsulation type: IEEE 802.15.4 Wireless PAN (104)
    Arrival Time: Mar  3, 2023 16:19:03.927074000 CST
    [Time shift for this packet: 0.000000000 seconds]
    Epoch Time: 1677881943.927074000 seconds
    [Time delta from previous captured frame: 0.000495000 seconds]
    [Time delta from previous displayed frame: 0.000495000 seconds]
    [Time since reference or first frame: 7.875611000 seconds]
    Frame Number: 193
    Frame Length: 5 bytes (40 bits)
    Capture Length: 5 bytes (40 bits)
    [Frame is marked: False]
    [Frame is ignored: False]
    [Protocols in frame: wpan]
IEEE 802.15.4 Ack, Sequence Number: 217
    Frame Control Field: 0x0002, Frame Type: Ack, Destination Addressing Mode: None, Frame Version: IEEE Std 802.15.4-2003, Source Addressing Mode: None
        .... .... .... .010 = Frame Type: Ack (0x2)
        .... .... .... 0... = Security Enabled: False
        .... .... ...0 .... = Frame Pending: False
        .... .... ..0. .... = Acknowledge Request: False
        .... .... .0.. .... = PAN ID Compression: False
        .... .... 0... .... = Reserved: False
        .... ...0 .... .... = Sequence Number Suppression: False
        .... ..0. .... .... = Information Elements Present: False
        .... 00.. .... .... = Destination Addressing Mode: None (0x0)
        ..00 .... .... .... = Frame Version: IEEE Std 802.15.4-2003 (0)
        00.. .... .... .... = Source Addressing Mode: None (0x0)
    Sequence Number: 217
    FCS: 0xfef4 (Correct)
    [Ack To: 192]
    [Ack Time: 0.495 ms]

0000  02 00 d9 f4 fe                                    .....

No.     Time           Source                Destination           Protocol Length Info
    194 7.999644       0x0103                0x0203                LwMesh   53     Lightweight Mesh, Nwk_Dst: 0x0000, Nwk_Src: 0x1cfd

Frame 194: 53 bytes on wire (424 bits), 53 bytes captured (424 bits)
    Encapsulation type: IEEE 802.15.4 Wireless PAN (104)
    Arrival Time: Mar  3, 2023 16:19:04.051107000 CST
    [Time shift for this packet: 0.000000000 seconds]
    Epoch Time: 1677881944.051107000 seconds
    [Time delta from previous captured frame: 0.124033000 seconds]
    [Time delta from previous displayed frame: 0.124033000 seconds]
    [Time since reference or first frame: 7.999644000 seconds]
    Frame Number: 194
    Frame Length: 53 bytes (424 bits)
    Capture Length: 53 bytes (424 bits)
    [Frame is marked: False]
    [Frame is ignored: False]
    [Protocols in frame: wpan:lwm:data]
IEEE 802.15.4 Data, Dst: 0x0203, Src: 0x0103
    Frame Control Field: 0x8861, Frame Type: Data, Acknowledge Request, PAN ID Compression, Destination Addressing Mode: Short/16-bit, Frame Version: IEEE Std 802.15.4-2003, Source Addressing Mode: Short/16-bit
        .... .... .... .001 = Frame Type: Data (0x1)
        .... .... .... 0... = Security Enabled: False
        .... .... ...0 .... = Frame Pending: False
        .... .... ..1. .... = Acknowledge Request: True
        .... .... .1.. .... = PAN ID Compression: True
        .... .... 0... .... = Reserved: False
        .... ...0 .... .... = Sequence Number Suppression: False
        .... ..0. .... .... = Information Elements Present: False
        .... 10.. .... .... = Destination Addressing Mode: Short/16-bit (0x2)
        ..00 .... .... .... = Frame Version: IEEE Std 802.15.4-2003 (0)
        10.. .... .... .... = Source Addressing Mode: Short/16-bit (0x2)
    Sequence Number: 218
    Destination PAN: 0x3332
    Destination: 0x0203
    Source: 0x0103
    FCS: 0xcca2 (Correct)
    [Ack In: 195]
Lightweight Mesh, Sequence Number: 0
    Frame control field: 0x0c
        .... ...0 = Acknowledgment Request: False
        .... ..0. = Security Enabled: False
        .... .1.. = Link Local: True
        .... 1... = Multicast: True
        0000 .... = Reserved bits: 0x0
    Sequence Number: 0
    Network Source Address: 0x1cfd (Routing node)
    Network Destination Address: 0x0000 (Group ID)
    Source Endpoint: 6
    Destination Endpoint: 14
    Multicast Header
        Non-member Radius: 3
        Maximum Non-member Radius: 0
        Member Radius: 1
        Maximum Member Radius: 0
    Data (33 bytes)
        Data: 2100001308100000000000000000004a0100004d01000000
        [Length: 33]

0000  61 88 da 32 33 03 02 03 01 0c 00 fd 1c 00 00 6e   a..23..........n
0010  03 01 21 00 00 13 08 10 00 00 00 00 00 00 00 00   ..!.............
0020  00 4a 01 00 00 4d 01 00 00 00 00 00 00 00 00 54   .J...M.........T
0030  7f 32 29 a2 cc                                    .2)..

No.     Time           Source                Destination           Protocol Length Info
    195 8.000162                                                   IEEE 802.15.4 5      Ack

Frame 195: 5 bytes on wire (40 bits), 5 bytes captured (40 bits)
    Encapsulation type: IEEE 802.15.4 Wireless PAN (104)
    Arrival Time: Mar  3, 2023 16:19:04.051625000 CST
    [Time shift for this packet: 0.000000000 seconds]
    Epoch Time: 1677881944.051625000 seconds
    [Time delta from previous captured frame: 0.000518000 seconds]
    [Time delta from previous displayed frame: 0.000518000 seconds]
    [Time since reference or first frame: 8.000162000 seconds]
    Frame Number: 195
    Frame Length: 5 bytes (40 bits)
    Capture Length: 5 bytes (40 bits)
    [Frame is marked: False]
    [Frame is ignored: False]
    [Protocols in frame: wpan]
IEEE 802.15.4 Ack, Sequence Number: 218
    Frame Control Field: 0x0002, Frame Type: Ack, Destination Addressing Mode: None, Frame Version: IEEE Std 802.15.4-2003, Source Addressing Mode: None
        .... .... .... .010 = Frame Type: Ack (0x2)
        .... .... .... 0... = Security Enabled: False
        .... .... ...0 .... = Frame Pending: False
        .... .... ..0. .... = Acknowledge Request: False
        .... .... .0.. .... = PAN ID Compression: False
        .... .... 0... .... = Reserved: False
        .... ...0 .... .... = Sequence Number Suppression: False
        .... ..0. .... .... = Information Elements Present: False
        .... 00.. .... .... = Destination Addressing Mode: None (0x0)
        ..00 .... .... .... = Frame Version: IEEE Std 802.15.4-2003 (0)
        00.. .... .... .... = Source Addressing Mode: None (0x0)
    Sequence Number: 218
    FCS: 0xcc6f (Correct)
    [Ack To: 194]
    [Ack Time: 0.518 ms]

0000  02 00 da 6f cc                                    ...o.

No.     Time           Source                Destination           Protocol Length Info
    196 8.125019       0x0103                0x0203                LwMesh   53     Lightweight Mesh, Nwk_Dst: 0x0000, Nwk_Src: 0x1cfd

Frame 196: 53 bytes on wire (424 bits), 53 bytes captured (424 bits)
    Encapsulation type: IEEE 802.15.4 Wireless PAN (104)
    Arrival Time: Mar  3, 2023 16:19:04.176482000 CST
    [Time shift for this packet: 0.000000000 seconds]
    Epoch Time: 1677881944.176482000 seconds
    [Time delta from previous captured frame: 0.124857000 seconds]
    [Time delta from previous displayed frame: 0.124857000 seconds]
    [Time since reference or first frame: 8.125019000 seconds]
    Frame Number: 196
    Frame Length: 53 bytes (424 bits)
    Capture Length: 53 bytes (424 bits)
    [Frame is marked: False]
    [Frame is ignored: False]
    [Protocols in frame: wpan:lwm:data]
IEEE 802.15.4 Data, Dst: 0x0203, Src: 0x0103
    Frame Control Field: 0x8861, Frame Type: Data, Acknowledge Request, PAN ID Compression, Destination Addressing Mode: Short/16-bit, Frame Version: IEEE Std 802.15.4-2003, Source Addressing Mode: Short/16-bit
        .... .... .... .001 = Frame Type: Data (0x1)
        .... .... .... 0... = Security Enabled: False
        .... .... ...0 .... = Frame Pending: False
        .... .... ..1. .... = Acknowledge Request: True
        .... .... .1.. .... = PAN ID Compression: True
        .... .... 0... .... = Reserved: False
        .... ...0 .... .... = Sequence Number Suppression: False
        .... ..0. .... .... = Information Elements Present: False
        .... 10.. .... .... = Destination Addressing Mode: Short/16-bit (0x2)
        ..00 .... .... .... = Frame Version: IEEE Std 802.15.4-2003 (0)
        10.. .... .... .... = Source Addressing Mode: Short/16-bit (0x2)
    Sequence Number: 219
    Destination PAN: 0x3332
    Destination: 0x0203
    Source: 0x0103
    FCS: 0x673f (Correct)
    [Ack In: 197]
Lightweight Mesh, Sequence Number: 0
    Frame control field: 0x0d
        .... ...1 = Acknowledgment Request: True
        .... ..0. = Security Enabled: False
        .... .1.. = Link Local: True
        .... 1... = Multicast: True
        0000 .... = Reserved bits: 0x0
    Sequence Number: 0
    Network Source Address: 0x1cfd (Routing node)
    Network Destination Address: 0x0000 (Group ID)
    Source Endpoint: 6
    Destination Endpoint: 15
    Multicast Header
        Non-member Radius: 3
        Maximum Non-member Radius: 0
        Member Radius: 1
        Maximum Member Radius: 0
    Data (33 bytes)
        Data: 210000900810000000000000000000a4010000ad01000000
        [Length: 33]

0000  61 88 db 32 33 03 02 03 01 0d 00 fd 1c 00 00 6f   a..23..........o
0010  03 01 21 00 00 90 08 10 00 00 00 00 00 00 00 00   ..!.............
0020  00 a4 01 00 00 ad 01 00 00 00 00 00 00 00 00 53   ...............S
0030  7f 04 49 3f 67                                    ..I?g

No.     Time           Source                Destination           Protocol Length Info
    197 8.125531                                                   IEEE 802.15.4 5      Ack

Frame 197: 5 bytes on wire (40 bits), 5 bytes captured (40 bits)
    Encapsulation type: IEEE 802.15.4 Wireless PAN (104)
    Arrival Time: Mar  3, 2023 16:19:04.176994000 CST
    [Time shift for this packet: 0.000000000 seconds]
    Epoch Time: 1677881944.176994000 seconds
    [Time delta from previous captured frame: 0.000512000 seconds]
    [Time delta from previous displayed frame: 0.000512000 seconds]
    [Time since reference or first frame: 8.125531000 seconds]
    Frame Number: 197
    Frame Length: 5 bytes (40 bits)
    Capture Length: 5 bytes (40 bits)
    [Frame is marked: False]
    [Frame is ignored: False]
    [Protocols in frame: wpan]
IEEE 802.15.4 Ack, Sequence Number: 219
    Frame Control Field: 0x0002, Frame Type: Ack, Destination Addressing Mode: None, Frame Version: IEEE Std 802.15.4-2003, Source Addressing Mode: None
        .... .... .... .010 = Frame Type: Ack (0x2)
        .... .... .... 0... = Security Enabled: False
        .... .... ...0 .... = Frame Pending: False
        .... .... ..0. .... = Acknowledge Request: False
        .... .... .0.. .... = PAN ID Compression: False
        .... .... 0... .... = Reserved: False
        .... ...0 .... .... = Sequence Number Suppression: False
        .... ..0. .... .... = Information Elements Present: False
        .... 00.. .... .... = Destination Addressing Mode: None (0x0)
        ..00 .... .... .... = Frame Version: IEEE Std 802.15.4-2003 (0)
        00.. .... .... .... = Source Addressing Mode: None (0x0)
    Sequence Number: 219
    FCS: 0xdde6 (Correct)
    [Ack To: 196]
    [Ack Time: 0.512 ms]

0000  02 00 db e6 dd                                    .....

No.     Time           Source                Destination           Protocol Length Info
    198 8.254965       0x0103                0x0203                IEEE 802.15.4 77     Data, Dst: 0x0203, Src: 0x0103

Frame 198: 77 bytes on wire (616 bits), 77 bytes captured (616 bits)
    Encapsulation type: IEEE 802.15.4 Wireless PAN (104)
    Arrival Time: Mar  3, 2023 16:19:04.306428000 CST
    [Time shift for this packet: 0.000000000 seconds]
    Epoch Time: 1677881944.306428000 seconds
    [Time delta from previous captured frame: 0.129434000 seconds]
    [Time delta from previous displayed frame: 0.129434000 seconds]
    [Time since reference or first frame: 8.254965000 seconds]
    Frame Number: 198
    Frame Length: 77 bytes (616 bits)
    Capture Length: 77 bytes (616 bits)
    [Frame is marked: False]
    [Frame is ignored: False]
    [Protocols in frame: wpan:data]
IEEE 802.15.4 Data, Dst: 0x0203, Src: 0x0103
    Frame Control Field: 0x8861, Frame Type: Data, Acknowledge Request, PAN ID Compression, Destination Addressing Mode: Short/16-bit, Frame Version: IEEE Std 802.15.4-2003, Source Addressing Mode: Short/16-bit
        .... .... .... .001 = Frame Type: Data (0x1)
        .... .... .... 0... = Security Enabled: False
        .... .... ...0 .... = Frame Pending: False
        .... .... ..1. .... = Acknowledge Request: True
        .... .... .1.. .... = PAN ID Compression: True
        .... .... 0... .... = Reserved: False
        .... ...0 .... .... = Sequence Number Suppression: False
        .... ..0. .... .... = Information Elements Present: False
        .... 10.. .... .... = Destination Addressing Mode: Short/16-bit (0x2)
        ..00 .... .... .... = Frame Version: IEEE Std 802.15.4-2003 (0)
        10.. .... .... .... = Source Addressing Mode: Short/16-bit (0x2)
    Sequence Number: 220
    Destination PAN: 0x3332
    Destination: 0x0203
    Source: 0x0103
    FCS: 0x3011 (Correct)
    [Ack In: 199]
Data (66 bytes)
    Data: 0e00fd1f00007003010100000ffc60130f1c60100f9c5001
    [Length: 66]

0000  61 88 dc 32 33 03 02 03 01 0e 00 fd 1f 00 00 70   a..23..........p
0010  03 01 01 00 00 0f fc 60 13 0f 1c 60 10 0f 9c 50   .......`...`...P
0020  01 f4 01 00 00 ff ff 00 00 00 00 00 00 00 00 00   ................
0030  00 00 00 ff 42 c1 fd 16 00 00 71 03 01 c1 00 00   ....B.....q.....
0040  00 00 00 00 1a 3e 1b 3b e0 f1 26 11 30            .....>.;..&.0

No.     Time           Source                Destination           Protocol Length Info
    199 8.255492                                                   IEEE 802.15.4 5      Ack

Frame 199: 5 bytes on wire (40 bits), 5 bytes captured (40 bits)
    Encapsulation type: IEEE 802.15.4 Wireless PAN (104)
    Arrival Time: Mar  3, 2023 16:19:04.306955000 CST
    [Time shift for this packet: 0.000000000 seconds]
    Epoch Time: 1677881944.306955000 seconds
    [Time delta from previous captured frame: 0.000527000 seconds]
    [Time delta from previous displayed frame: 0.000527000 seconds]
    [Time since reference or first frame: 8.255492000 seconds]
    Frame Number: 199
    Frame Length: 5 bytes (40 bits)
    Capture Length: 5 bytes (40 bits)
    [Frame is marked: False]
    [Frame is ignored: False]
    [Protocols in frame: wpan]
IEEE 802.15.4 Ack, Sequence Number: 220
    Frame Control Field: 0x0002, Frame Type: Ack, Destination Addressing Mode: None, Frame Version: IEEE Std 802.15.4-2003, Source Addressing Mode: None
        .... .... .... .010 = Frame Type: Ack (0x2)
        .... .... .... 0... = Security Enabled: False
        .... .... ...0 .... = Frame Pending: False
        .... .... ..0. .... = Acknowledge Request: False
        .... .... .0.. .... = PAN ID Compression: False
        .... .... 0... .... = Reserved: False
        .... ...0 .... .... = Sequence Number Suppression: False
        .... ..0. .... .... = Information Elements Present: False
        .... 00.. .... .... = Destination Addressing Mode: None (0x0)
        ..00 .... .... .... = Frame Version: IEEE Std 802.15.4-2003 (0)
        00.. .... .... .... = Source Addressing Mode: None (0x0)
    Sequence Number: 220
    FCS: 0xa959 (Correct)
    [Ack To: 198]
    [Ack Time: 0.527 ms]

0000  02 00 dc 59 a9                                    ...Y.

No.     Time           Source                Destination           Protocol Length Info
    200 8.273494       0x0103                0x0203                LwMesh   106    Encrypted data (82 byte(s)) NO DECRYPT KEY

Frame 200: 106 bytes on wire (848 bits), 106 bytes captured (848 bits)
    Encapsulation type: IEEE 802.15.4 Wireless PAN (104)
    Arrival Time: Mar  3, 2023 16:19:04.324957000 CST
    [Time shift for this packet: 0.000000000 seconds]
    Epoch Time: 1677881944.324957000 seconds
    [Time delta from previous captured frame: 0.018002000 seconds]
    [Time delta from previous displayed frame: 0.018002000 seconds]
    [Time since reference or first frame: 8.273494000 seconds]
    Frame Number: 200
    Frame Length: 106 bytes (848 bits)
    Capture Length: 106 bytes (848 bits)
    [Frame is marked: False]
    [Frame is ignored: False]
    [Protocols in frame: wpan:lwm:data]
IEEE 802.15.4 Data, Dst: 0x0203, Src: 0x0103
    Frame Control Field: 0x8861, Frame Type: Data, Acknowledge Request, PAN ID Compression, Destination Addressing Mode: Short/16-bit, Frame Version: IEEE Std 802.15.4-2003, Source Addressing Mode: Short/16-bit
        .... .... .... .001 = Frame Type: Data (0x1)
        .... .... .... 0... = Security Enabled: False
        .... .... ...0 .... = Frame Pending: False
        .... .... ..1. .... = Acknowledge Request: True
        .... .... .1.. .... = PAN ID Compression: True
        .... .... 0... .... = Reserved: False
        .... ...0 .... .... = Sequence Number Suppression: False
        .... ..0. .... .... = Information Elements Present: False
        .... 10.. .... .... = Destination Addressing Mode: Short/16-bit (0x2)
        ..00 .... .... .... = Frame Version: IEEE Std 802.15.4-2003 (0)
        10.. .... .... .... = Source Addressing Mode: Short/16-bit (0x2)
    Sequence Number: 221
    Destination PAN: 0x3332
    Destination: 0x0203
    Source: 0x0103
    FCS: 0xf2ab (Correct)
    [Ack In: 201]
Lightweight Mesh, Sequence Number: 0
    Frame control field: 0x0f
        .... ...1 = Acknowledgment Request: True
        .... ..1. = Security Enabled: True
        .... .1.. = Link Local: True
        .... 1... = Multicast: True
        0000 .... = Reserved bits: 0x0
    Sequence Number: 0
    Network Source Address: 0x5d3c (Routing node)
    Network Destination Address: 0xe74a (Group ID)
    Source Endpoint: 3
    Destination Endpoint: 13
    Multicast Header
        Non-member Radius: 0
        Maximum Non-member Radius: 0
        Member Radius: 0
        Maximum Member Radius: 0
    Message Integrity Code: 0x64c97f52
    [Expert Info (Note/Protocol): No encryption key set - can't decrypt]
        [No encryption key set - can't decrypt]
        [Severity level: Note]
        [Group: Protocol]
    Data (82 bytes)
        Data: 0000a5015a86fd1c00007203011e00000d0910008ee3a23d
        [Length: 82]

0000  61 88 dd 32 33 03 02 03 01 0f 00 3c 5d 4a e7 3d   a..23......<]J.=
0010  00 00 00 00 a5 01 5a 86 fd 1c 00 00 72 03 01 1e   ......Z.....r...
0020  00 00 0d 09 10 00 8e e3 a2 3d b9 0d 17 3b 56 32   .........=...;V2
0030  18 bf 42 ae 0f 3a c8 2e 24 39 0c 7b 76 3b 52 86   ..B..:..$9.{v;R.
0040  fd 1c 00 00 73 03 01 21 00 00 12 09 10 00 00 00   ....s..!........
0050  00 00 00 00 00 00 26 02 00 00 29 02 00 00 00 00   ......&...).....
0060  00 00 00 00 52 7f c9 64 ab f2                     ....R..d..

No.     Time           Source                Destination           Protocol Length Info
    201 8.274050                                                   IEEE 802.15.4 5      Ack

Frame 201: 5 bytes on wire (40 bits), 5 bytes captured (40 bits)
    Encapsulation type: IEEE 802.15.4 Wireless PAN (104)
    Arrival Time: Mar  3, 2023 16:19:04.325513000 CST
    [Time shift for this packet: 0.000000000 seconds]
    Epoch Time: 1677881944.325513000 seconds
    [Time delta from previous captured frame: 0.000556000 seconds]
    [Time delta from previous displayed frame: 0.000556000 seconds]
    [Time since reference or first frame: 8.274050000 seconds]
    Frame Number: 201
    Frame Length: 5 bytes (40 bits)
    Capture Length: 5 bytes (40 bits)
    [Frame is marked: False]
    [Frame is ignored: False]
    [Protocols in frame: wpan]
IEEE 802.15.4 Ack, Sequence Number: 221
    Frame Control Field: 0x0002, Frame Type: Ack, Destination Addressing Mode: None, Frame Version: IEEE Std 802.15.4-2003, Source Addressing Mode: None
        .... .... .... .010 = Frame Type: Ack (0x2)
        .... .... .... 0... = Security Enabled: False
        .... .... ...0 .... = Frame Pending: False
        .... .... ..0. .... = Acknowledge Request: False
        .... .... .0.. .... = PAN ID Compression: False
        .... .... 0... .... = Reserved: False
        .... ...0 .... .... = Sequence Number Suppression: False
        .... ..0. .... .... = Information Elements Present: False
        .... 00.. .... .... = Destination Addressing Mode: None (0x0)
        ..00 .... .... .... = Frame Version: IEEE Std 802.15.4-2003 (0)
        00.. .... .... .... = Source Addressing Mode: None (0x0)
    Sequence Number: 221
    FCS: 0xb8d0 (Correct)
    [Ack To: 200]
    [Ack Time: 0.556 ms]

0000  02 00 dd d0 b8                                    .....

No.     Time           Source                Destination           Protocol Length Info
    202 8.318548       0x0103                0x0203                IEEE 802.15.4 34     Data, Dst: 0x0203, Src: 0x0103

Frame 202: 34 bytes on wire (272 bits), 34 bytes captured (272 bits)
    Encapsulation type: IEEE 802.15.4 Wireless PAN (104)
    Arrival Time: Mar  3, 2023 16:19:04.370011000 CST
    [Time shift for this packet: 0.000000000 seconds]
    Epoch Time: 1677881944.370011000 seconds
    [Time delta from previous captured frame: 0.044498000 seconds]
    [Time delta from previous displayed frame: 0.044498000 seconds]
    [Time since reference or first frame: 8.318548000 seconds]
    Frame Number: 202
    Frame Length: 34 bytes (272 bits)
    Capture Length: 34 bytes (272 bits)
    [Frame is marked: False]
    [Frame is ignored: False]
    [Protocols in frame: wpan:data]
IEEE 802.15.4 Data, Dst: 0x0203, Src: 0x0103
    Frame Control Field: 0x8861, Frame Type: Data, Acknowledge Request, PAN ID Compression, Destination Addressing Mode: Short/16-bit, Frame Version: IEEE Std 802.15.4-2003, Source Addressing Mode: Short/16-bit
        .... .... .... .001 = Frame Type: Data (0x1)
        .... .... .... 0... = Security Enabled: False
        .... .... ...0 .... = Frame Pending: False
        .... .... ..1. .... = Acknowledge Request: True
        .... .... .1.. .... = PAN ID Compression: True
        .... .... 0... .... = Reserved: False
        .... ...0 .... .... = Sequence Number Suppression: False
        .... ..0. .... .... = Information Elements Present: False
        .... 10.. .... .... = Destination Addressing Mode: Short/16-bit (0x2)
        ..00 .... .... .... = Frame Version: IEEE Std 802.15.4-2003 (0)
        10.. .... .... .... = Source Addressing Mode: Short/16-bit (0x2)
    Sequence Number: 222
    Destination PAN: 0x3332
    Destination: 0x0203
    Source: 0x0103
    FCS: 0x92f9 (Correct)
    [Ack In: 203]
Data (23 bytes)
    Data: 1000fd0900007403010000000000000002035103035f56
    [Length: 23]

0000  61 88 de 32 33 03 02 03 01 10 00 fd 09 00 00 74   a..23..........t
0010  03 01 00 00 00 00 00 00 00 02 03 51 03 03 5f 56   ...........Q.._V
0020  f9 92                                             ..

No.     Time           Source                Destination           Protocol Length Info
    203 8.319008                                                   IEEE 802.15.4 5      Ack

Frame 203: 5 bytes on wire (40 bits), 5 bytes captured (40 bits)
    Encapsulation type: IEEE 802.15.4 Wireless PAN (104)
    Arrival Time: Mar  3, 2023 16:19:04.370471000 CST
    [Time shift for this packet: 0.000000000 seconds]
    Epoch Time: 1677881944.370471000 seconds
    [Time delta from previous captured frame: 0.000460000 seconds]
    [Time delta from previous displayed frame: 0.000460000 seconds]
    [Time since reference or first frame: 8.319008000 seconds]
    Frame Number: 203
    Frame Length: 5 bytes (40 bits)
    Capture Length: 5 bytes (40 bits)
    [Frame is marked: False]
    [Frame is ignored: False]
    [Protocols in frame: wpan]
IEEE 802.15.4 Ack, Sequence Number: 222
    Frame Control Field: 0x0002, Frame Type: Ack, Destination Addressing Mode: None, Frame Version: IEEE Std 802.15.4-2003, Source Addressing Mode: None
        .... .... .... .010 = Frame Type: Ack (0x2)
        .... .... .... 0... = Security Enabled: False
        .... .... ...0 .... = Frame Pending: False
        .... .... ..0. .... = Acknowledge Request: False
        .... .... .0.. .... = PAN ID Compression: False
        .... .... 0... .... = Reserved: False
        .... ...0 .... .... = Sequence Number Suppression: False
        .... ..0. .... .... = Information Elements Present: False
        .... 00.. .... .... = Destination Addressing Mode: None (0x0)
        ..00 .... .... .... = Frame Version: IEEE Std 802.15.4-2003 (0)
        00.. .... .... .... = Source Addressing Mode: None (0x0)
    Sequence Number: 222
    FCS: 0x8a4b (Correct)
    [Ack To: 202]
    [Ack Time: 0.460 ms]

0000  02 00 de 4b 8a                                    ...K.

No.     Time           Source                Destination           Protocol Length Info
    204 8.375128       0x0103                0x0203                IEEE 802.15.4 53     Data, Dst: 0x0203, Src: 0x0103

Frame 204: 53 bytes on wire (424 bits), 53 bytes captured (424 bits)
    Encapsulation type: IEEE 802.15.4 Wireless PAN (104)
    Arrival Time: Mar  3, 2023 16:19:04.426591000 CST
    [Time shift for this packet: 0.000000000 seconds]
    Epoch Time: 1677881944.426591000 seconds
    [Time delta from previous captured frame: 0.056120000 seconds]
    [Time delta from previous displayed frame: 0.056120000 seconds]
    [Time since reference or first frame: 8.375128000 seconds]
    Frame Number: 204
    Frame Length: 53 bytes (424 bits)
    Capture Length: 53 bytes (424 bits)
    [Frame is marked: False]
    [Frame is ignored: False]
    [Protocols in frame: wpan:data]
IEEE 802.15.4 Data, Dst: 0x0203, Src: 0x0103
    Frame Control Field: 0x8861, Frame Type: Data, Acknowledge Request, PAN ID Compression, Destination Addressing Mode: Short/16-bit, Frame Version: IEEE Std 802.15.4-2003, Source Addressing Mode: Short/16-bit
        .... .... .... .001 = Frame Type: Data (0x1)
        .... .... .... 0... = Security Enabled: False
        .... .... ...0 .... = Frame Pending: False
        .... .... ..1. .... = Acknowledge Request: True
        .... .... .1.. .... = PAN ID Compression: True
        .... .... 0... .... = Reserved: False
        .... ...0 .... .... = Sequence Number Suppression: False
        .... ..0. .... .... = Information Elements Present: False
        .... 10.. .... .... = Destination Addressing Mode: Short/16-bit (0x2)
        ..00 .... .... .... = Frame Version: IEEE Std 802.15.4-2003 (0)
        10.. .... .... .... = Source Addressing Mode: Short/16-bit (0x2)
    Sequence Number: 223
    Destination PAN: 0x3332
    Destination: 0x0203
    Source: 0x0103
    FCS: 0xa121 (Correct)
    [Ack In: 205]
Data (42 bytes)
    Data: 1100fd1c00007503012100008a0910000000000000000000
    [Length: 42]

0000  61 88 df 32 33 03 02 03 01 11 00 fd 1c 00 00 75   a..23..........u
0010  03 01 21 00 00 8a 09 10 00 00 00 00 00 00 00 00   ..!.............
0020  00 44 02 00 00 48 02 00 00 00 00 00 00 00 00 51   .D...H.........Q
0030  7f 20 19 21 a1                                    . .!.

No.     Time           Source                Destination           Protocol Length Info
    205 8.375682                                                   IEEE 802.15.4 5      Ack

Frame 205: 5 bytes on wire (40 bits), 5 bytes captured (40 bits)
    Encapsulation type: IEEE 802.15.4 Wireless PAN (104)
    Arrival Time: Mar  3, 2023 16:19:04.427145000 CST
    [Time shift for this packet: 0.000000000 seconds]
    Epoch Time: 1677881944.427145000 seconds
    [Time delta from previous captured frame: 0.000554000 seconds]
    [Time delta from previous displayed frame: 0.000554000 seconds]
    [Time since reference or first frame: 8.375682000 seconds]
    Frame Number: 205
    Frame Length: 5 bytes (40 bits)
    Capture Length: 5 bytes (40 bits)
    [Frame is marked: False]
    [Frame is ignored: False]
    [Protocols in frame: wpan]
IEEE 802.15.4 Ack, Sequence Number: 223
    Frame Control Field: 0x0002, Frame Type: Ack, Destination Addressing Mode: None, Frame Version: IEEE Std 802.15.4-2003, Source Addressing Mode: None
        .... .... .... .010 = Frame Type: Ack (0x2)
        .... .... .... 0... = Security Enabled: False
        .... .... ...0 .... = Frame Pending: False
        .... .... ..0. .... = Acknowledge Request: False
        .... .... .0.. .... = PAN ID Compression: False
        .... .... 0... .... = Reserved: False
        .... ...0 .... .... = Sequence Number Suppression: False
        .... ..0. .... .... = Information Elements Present: False
        .... 00.. .... .... = Destination Addressing Mode: None (0x0)
        ..00 .... .... .... = Frame Version: IEEE Std 802.15.4-2003 (0)
        00.. .... .... .... = Source Addressing Mode: None (0x0)
    Sequence Number: 223
    FCS: 0x9bc2 (Correct)
    [Ack To: 204]
    [Ack Time: 0.554 ms]

0000  02 00 df c2 9b                                    .....

No.     Time           Source                Destination           Protocol Length Info
    206 8.404897       0x0103                0x0203                IEEE 802.15.4 48     Data, Dst: 0x0203, Src: 0x0103

Frame 206: 48 bytes on wire (384 bits), 48 bytes captured (384 bits)
    Encapsulation type: IEEE 802.15.4 Wireless PAN (104)
    Arrival Time: Mar  3, 2023 16:19:04.456360000 CST
    [Time shift for this packet: 0.000000000 seconds]
    Epoch Time: 1677881944.456360000 seconds
    [Time delta from previous captured frame: 0.029215000 seconds]
    [Time delta from previous displayed frame: 0.029215000 seconds]
    [Time since reference or first frame: 8.404897000 seconds]
    Frame Number: 206
    Frame Length: 48 bytes (384 bits)
    Capture Length: 48 bytes (384 bits)
    [Frame is marked: False]
    [Frame is ignored: False]
    [Protocols in frame: wpan:data]
IEEE 802.15.4 Data, Dst: 0x0203, Src: 0x0103
    Frame Control Field: 0x8861, Frame Type: Data, Acknowledge Request, PAN ID Compression, Destination Addressing Mode: Short/16-bit, Frame Version: IEEE Std 802.15.4-2003, Source Addressing Mode: Short/16-bit
        .... .... .... .001 = Frame Type: Data (0x1)
        .... .... .... 0... = Security Enabled: False
        .... .... ...0 .... = Frame Pending: False
        .... .... ..1. .... = Acknowledge Request: True
        .... .... .1.. .... = PAN ID Compression: True
        .... .... 0... .... = Reserved: False
        .... ...0 .... .... = Sequence Number Suppression: False
        .... ..0. .... .... = Information Elements Present: False
        .... 10.. .... .... = Destination Addressing Mode: Short/16-bit (0x2)
        ..00 .... .... .... = Frame Version: IEEE Std 802.15.4-2003 (0)
        10.. .... .... .... = Source Addressing Mode: Short/16-bit (0x2)
    Sequence Number: 224
    Destination PAN: 0x3332
    Destination: 0x0203
    Source: 0x0103
    FCS: 0xcaf6 (Correct)
    [Ack In: 207]
Data (37 bytes)
    Data: 1200fd170000760301fd000004454b463220494d55312066
    [Length: 37]

0000  61 88 e0 32 33 03 02 03 01 12 00 fd 17 00 00 76   a..23..........v
0010  03 01 fd 00 00 04 45 4b 46 32 20 49 4d 55 31 20   ......EKF2 IMU1 
0020  66 6f 72 63 65 64 20 72 65 73 65 74 70 02 f6 ca   forced resetp...

No.     Time           Source                Destination           Protocol Length Info
    207 8.405433                                                   IEEE 802.15.4 5      Ack

Frame 207: 5 bytes on wire (40 bits), 5 bytes captured (40 bits)
    Encapsulation type: IEEE 802.15.4 Wireless PAN (104)
    Arrival Time: Mar  3, 2023 16:19:04.456896000 CST
    [Time shift for this packet: 0.000000000 seconds]
    Epoch Time: 1677881944.456896000 seconds
    [Time delta from previous captured frame: 0.000536000 seconds]
    [Time delta from previous displayed frame: 0.000536000 seconds]
    [Time since reference or first frame: 8.405433000 seconds]
    Frame Number: 207
    Frame Length: 5 bytes (40 bits)
    Capture Length: 5 bytes (40 bits)
    [Frame is marked: False]
    [Frame is ignored: False]
    [Protocols in frame: wpan]
IEEE 802.15.4 Ack, Sequence Number: 224
    Frame Control Field: 0x0002, Frame Type: Ack, Destination Addressing Mode: None, Frame Version: IEEE Std 802.15.4-2003, Source Addressing Mode: None
        .... .... .... .010 = Frame Type: Ack (0x2)
        .... .... .... 0... = Security Enabled: False
        .... .... ...0 .... = Frame Pending: False
        .... .... ..0. .... = Acknowledge Request: False
        .... .... .0.. .... = PAN ID Compression: False
        .... .... 0... .... = Reserved: False
        .... ...0 .... .... = Sequence Number Suppression: False
        .... ..0. .... .... = Information Elements Present: False
        .... 00.. .... .... = Destination Addressing Mode: None (0x0)
        ..00 .... .... .... = Frame Version: IEEE Std 802.15.4-2003 (0)
        00.. .... .... .... = Source Addressing Mode: None (0x0)
    Sequence Number: 224
    FCS: 0x52b6 (Correct)
    [Ack To: 206]
    [Ack Time: 0.536 ms]

0000  02 00 e0 b6 52                                    ....R

No.     Time           Source                Destination           Protocol Length Info
    208 8.424542       0x0103                0x0203                IEEE 802.15.4 66     Data, Dst: 0x0203, Src: 0x0103

Frame 208: 66 bytes on wire (528 bits), 66 bytes captured (528 bits)
    Encapsulation type: IEEE 802.15.4 Wireless PAN (104)
    Arrival Time: Mar  3, 2023 16:19:04.476005000 CST
    [Time shift for this packet: 0.000000000 seconds]
    Epoch Time: 1677881944.476005000 seconds
    [Time delta from previous captured frame: 0.019109000 seconds]
    [Time delta from previous displayed frame: 0.019109000 seconds]
    [Time since reference or first frame: 8.424542000 seconds]
    Frame Number: 208
    Frame Length: 66 bytes (528 bits)
    Capture Length: 66 bytes (528 bits)
    [Frame is marked: False]
    [Frame is ignored: False]
    [Protocols in frame: wpan:data]
IEEE 802.15.4 Data, Dst: 0x0203, Src: 0x0103
    Frame Control Field: 0x8861, Frame Type: Data, Acknowledge Request, PAN ID Compression, Destination Addressing Mode: Short/16-bit, Frame Version: IEEE Std 802.15.4-2003, Source Addressing Mode: Short/16-bit
        .... .... .... .001 = Frame Type: Data (0x1)
        .... .... .... 0... = Security Enabled: False
        .... .... ...0 .... = Frame Pending: False
        .... .... ..1. .... = Acknowledge Request: True
        .... .... .1.. .... = PAN ID Compression: True
        .... .... 0... .... = Reserved: False
        .... ...0 .... .... = Sequence Number Suppression: False
        .... ..0. .... .... = Information Elements Present: False
        .... 10.. .... .... = Destination Addressing Mode: Short/16-bit (0x2)
        ..00 .... .... .... = Frame Version: IEEE Std 802.15.4-2003 (0)
        10.. .... .... .... = Source Addressing Mode: Short/16-bit (0x2)
    Sequence Number: 225
    Destination PAN: 0x3332
    Destination: 0x0203
    Source: 0x0103
    FCS: 0x6eb9 (Correct)
    [Ack In: 209]
Data (55 bytes)
    Data: 1300fd290000770301fd000006454b463220494d55312069
    [Length: 55]

0000  61 88 e1 32 33 03 02 03 01 13 00 fd 29 00 00 77   a..23.......)..w
0010  03 01 fd 00 00 06 45 4b 46 32 20 49 4d 55 31 20   ......EKF2 IMU1 
0020  69 6e 69 74 69 61 6c 20 79 61 77 20 61 6c 69 67   initial yaw alig
0030  6e 6d 65 6e 74 20 63 6f 6d 70 6c 65 74 65 f0 c0   nment complete..
0040  b9 6e                                             .n

No.     Time           Source                Destination           Protocol Length Info
    209 8.424819                                                   IEEE 802.15.4 5      Ack

Frame 209: 5 bytes on wire (40 bits), 5 bytes captured (40 bits)
    Encapsulation type: IEEE 802.15.4 Wireless PAN (104)
    Arrival Time: Mar  3, 2023 16:19:04.476282000 CST
    [Time shift for this packet: 0.000000000 seconds]
    Epoch Time: 1677881944.476282000 seconds
    [Time delta from previous captured frame: 0.000277000 seconds]
    [Time delta from previous displayed frame: 0.000277000 seconds]
    [Time since reference or first frame: 8.424819000 seconds]
    Frame Number: 209
    Frame Length: 5 bytes (40 bits)
    Capture Length: 5 bytes (40 bits)
    [Frame is marked: False]
    [Frame is ignored: False]
    [Protocols in frame: wpan]
IEEE 802.15.4 Ack, Sequence Number: 225
    Frame Control Field: 0x0002, Frame Type: Ack, Destination Addressing Mode: None, Frame Version: IEEE Std 802.15.4-2003, Source Addressing Mode: None
        .... .... .... .010 = Frame Type: Ack (0x2)
        .... .... .... 0... = Security Enabled: False
        .... .... ...0 .... = Frame Pending: False
        .... .... ..0. .... = Acknowledge Request: False
        .... .... .0.. .... = PAN ID Compression: False
        .... .... 0... .... = Reserved: False
        .... ...0 .... .... = Sequence Number Suppression: False
        .... ..0. .... .... = Information Elements Present: False
        .... 00.. .... .... = Destination Addressing Mode: None (0x0)
        ..00 .... .... .... = Frame Version: IEEE Std 802.15.4-2003 (0)
        00.. .... .... .... = Source Addressing Mode: None (0x0)
    Sequence Number: 225
    FCS: 0x433f (Correct)
    [Ack To: 208]
    [Ack Time: 0.277 ms]

0000  02 00 e1 3f 43                                    ...?C

No.     Time           Source                Destination           Protocol Length Info
    210 8.500920       0x0103                0x0203                IEEE 802.15.4 53     Data, Dst: 0x0203, Src: 0x0103

Frame 210: 53 bytes on wire (424 bits), 53 bytes captured (424 bits)
    Encapsulation type: IEEE 802.15.4 Wireless PAN (104)
    Arrival Time: Mar  3, 2023 16:19:04.552383000 CST
    [Time shift for this packet: 0.000000000 seconds]
    Epoch Time: 1677881944.552383000 seconds
    [Time delta from previous captured frame: 0.076101000 seconds]
    [Time delta from previous displayed frame: 0.076101000 seconds]
    [Time since reference or first frame: 8.500920000 seconds]
    Frame Number: 210
    Frame Length: 53 bytes (424 bits)
    Capture Length: 53 bytes (424 bits)
    [Frame is marked: False]
    [Frame is ignored: False]
    [Protocols in frame: wpan:data]
IEEE 802.15.4 Data, Dst: 0x0203, Src: 0x0103
    Frame Control Field: 0x8861, Frame Type: Data, Acknowledge Request, PAN ID Compression, Destination Addressing Mode: Short/16-bit, Frame Version: IEEE Std 802.15.4-2003, Source Addressing Mode: Short/16-bit
        .... .... .... .001 = Frame Type: Data (0x1)
        .... .... .... 0... = Security Enabled: False
        .... .... ...0 .... = Frame Pending: False
        .... .... ..1. .... = Acknowledge Request: True
        .... .... .1.. .... = PAN ID Compression: True
        .... .... 0... .... = Reserved: False
        .... ...0 .... .... = Sequence Number Suppression: False
        .... ..0. .... .... = Information Elements Present: False
        .... 10.. .... .... = Destination Addressing Mode: Short/16-bit (0x2)
        ..00 .... .... .... = Frame Version: IEEE Std 802.15.4-2003 (0)
        10.. .... .... .... = Source Addressing Mode: Short/16-bit (0x2)
    Sequence Number: 226
    Destination PAN: 0x3332
    Destination: 0x0203
    Source: 0x0103
    FCS: 0x3ba1 (Correct)
    [Ack In: 211]
Data (42 bytes)
    Data: 1400fd1c0000780301210000080a10000000000000000000
    [Length: 42]

0000  61 88 e2 32 33 03 02 03 01 14 00 fd 1c 00 00 78   a..23..........x
0010  03 01 21 00 00 08 0a 10 00 00 00 00 00 00 00 00   ..!.............
0020  00 4a 01 00 00 53 01 00 00 00 00 00 00 00 00 51   .J...S.........Q
0030  7f a0 0a a1 3b                                    ....;

No.     Time           Source                Destination           Protocol Length Info
    211 8.501413                                                   IEEE 802.15.4 5      Ack

Frame 211: 5 bytes on wire (40 bits), 5 bytes captured (40 bits)
    Encapsulation type: IEEE 802.15.4 Wireless PAN (104)
    Arrival Time: Mar  3, 2023 16:19:04.552876000 CST
    [Time shift for this packet: 0.000000000 seconds]
    Epoch Time: 1677881944.552876000 seconds
    [Time delta from previous captured frame: 0.000493000 seconds]
    [Time delta from previous displayed frame: 0.000493000 seconds]
    [Time since reference or first frame: 8.501413000 seconds]
    Frame Number: 211
    Frame Length: 5 bytes (40 bits)
    Capture Length: 5 bytes (40 bits)
    [Frame is marked: False]
    [Frame is ignored: False]
    [Protocols in frame: wpan]
IEEE 802.15.4 Ack, Sequence Number: 226
    Frame Control Field: 0x0002, Frame Type: Ack, Destination Addressing Mode: None, Frame Version: IEEE Std 802.15.4-2003, Source Addressing Mode: None
        .... .... .... .010 = Frame Type: Ack (0x2)
        .... .... .... 0... = Security Enabled: False
        .... .... ...0 .... = Frame Pending: False
        .... .... ..0. .... = Acknowledge Request: False
        .... .... .0.. .... = PAN ID Compression: False
        .... .... 0... .... = Reserved: False
        .... ...0 .... .... = Sequence Number Suppression: False
        .... ..0. .... .... = Information Elements Present: False
        .... 00.. .... .... = Destination Addressing Mode: None (0x0)
        ..00 .... .... .... = Frame Version: IEEE Std 802.15.4-2003 (0)
        00.. .... .... .... = Source Addressing Mode: None (0x0)
    Sequence Number: 226
    FCS: 0x71a4 (Correct)
    [Ack To: 210]
    [Ack Time: 0.493 ms]

0000  02 00 e2 a4 71                                    ....q

No.     Time           Source                Destination           Protocol Length Info
    212 8.625941       0x0103                0x0203                IEEE 802.15.4 53     Data, Dst: 0x0203, Src: 0x0103

Frame 212: 53 bytes on wire (424 bits), 53 bytes captured (424 bits)
    Encapsulation type: IEEE 802.15.4 Wireless PAN (104)
    Arrival Time: Mar  3, 2023 16:19:04.677404000 CST
    [Time shift for this packet: 0.000000000 seconds]
    Epoch Time: 1677881944.677404000 seconds
    [Time delta from previous captured frame: 0.124528000 seconds]
    [Time delta from previous displayed frame: 0.124528000 seconds]
    [Time since reference or first frame: 8.625941000 seconds]
    Frame Number: 212
    Frame Length: 53 bytes (424 bits)
    Capture Length: 53 bytes (424 bits)
    [Frame is marked: False]
    [Frame is ignored: False]
    [Protocols in frame: wpan:data]
IEEE 802.15.4 Data, Dst: 0x0203, Src: 0x0103
    Frame Control Field: 0x8861, Frame Type: Data, Acknowledge Request, PAN ID Compression, Destination Addressing Mode: Short/16-bit, Frame Version: IEEE Std 802.15.4-2003, Source Addressing Mode: Short/16-bit
        .... .... .... .001 = Frame Type: Data (0x1)
        .... .... .... 0... = Security Enabled: False
        .... .... ...0 .... = Frame Pending: False
        .... .... ..1. .... = Acknowledge Request: True
        .... .... .1.. .... = PAN ID Compression: True
        .... .... 0... .... = Reserved: False
        .... ...0 .... .... = Sequence Number Suppression: False
        .... ..0. .... .... = Information Elements Present: False
        .... 10.. .... .... = Destination Addressing Mode: Short/16-bit (0x2)
        ..00 .... .... .... = Frame Version: IEEE Std 802.15.4-2003 (0)
        10.. .... .... .... = Source Addressing Mode: Short/16-bit (0x2)
    Sequence Number: 227
    Destination PAN: 0x3332
    Destination: 0x0203
    Source: 0x0103
    FCS: 0x10b5 (Correct)
    [Ack In: 213]
Data (42 bytes)
    Data: 1500fd1c0000790301210000850a10000000000000000000
    [Length: 42]

0000  61 88 e3 32 33 03 02 03 01 15 00 fd 1c 00 00 79   a..23..........y
0010  03 01 21 00 00 85 0a 10 00 00 00 00 00 00 00 00   ..!.............
0020  00 e4 02 00 00 e4 02 00 00 00 00 00 00 00 00 50   ...............P
0030  7f bd 54 b5 10                                    ..T..

No.     Time           Source                Destination           Protocol Length Info
    213 8.626348                                                   IEEE 802.15.4 5      Ack

Frame 213: 5 bytes on wire (40 bits), 5 bytes captured (40 bits)
    Encapsulation type: IEEE 802.15.4 Wireless PAN (104)
    Arrival Time: Mar  3, 2023 16:19:04.677811000 CST
    [Time shift for this packet: 0.000000000 seconds]
    Epoch Time: 1677881944.677811000 seconds
    [Time delta from previous captured frame: 0.000407000 seconds]
    [Time delta from previous displayed frame: 0.000407000 seconds]
    [Time since reference or first frame: 8.626348000 seconds]
    Frame Number: 213
    Frame Length: 5 bytes (40 bits)
    Capture Length: 5 bytes (40 bits)
    [Frame is marked: False]
    [Frame is ignored: False]
    [Protocols in frame: wpan]
IEEE 802.15.4 Ack, Sequence Number: 227
    Frame Control Field: 0x0002, Frame Type: Ack, Destination Addressing Mode: None, Frame Version: IEEE Std 802.15.4-2003, Source Addressing Mode: None
        .... .... .... .010 = Frame Type: Ack (0x2)
        .... .... .... 0... = Security Enabled: False
        .... .... ...0 .... = Frame Pending: False
        .... .... ..0. .... = Acknowledge Request: False
        .... .... .0.. .... = PAN ID Compression: False
        .... .... 0... .... = Reserved: False
        .... ...0 .... .... = Sequence Number Suppression: False
        .... ..0. .... .... = Information Elements Present: False
        .... 00.. .... .... = Destination Addressing Mode: None (0x0)
        ..00 .... .... .... = Frame Version: IEEE Std 802.15.4-2003 (0)
        00.. .... .... .... = Source Addressing Mode: None (0x0)
    Sequence Number: 227
    FCS: 0x602d (Correct)
    [Ack To: 212]
    [Ack Time: 0.407 ms]

0000  02 00 e3 2d 60                                    ...-`

No.     Time           Source                Destination           Protocol Length Info
    214 8.759182       0x0103                0x0203                IEEE 802.15.4 93     Data, Dst: 0x0203, Src: 0x0103

Frame 214: 93 bytes on wire (744 bits), 93 bytes captured (744 bits)
    Encapsulation type: IEEE 802.15.4 Wireless PAN (104)
    Arrival Time: Mar  3, 2023 16:19:04.810645000 CST
    [Time shift for this packet: 0.000000000 seconds]
    Epoch Time: 1677881944.810645000 seconds
    [Time delta from previous captured frame: 0.132834000 seconds]
    [Time delta from previous displayed frame: 0.132834000 seconds]
    [Time since reference or first frame: 8.759182000 seconds]
    Frame Number: 214
    Frame Length: 93 bytes (744 bits)
    Capture Length: 93 bytes (744 bits)
    [Frame is marked: False]
    [Frame is ignored: False]
    [Protocols in frame: wpan:data]
IEEE 802.15.4 Data, Dst: 0x0203, Src: 0x0103
    Frame Control Field: 0x8861, Frame Type: Data, Acknowledge Request, PAN ID Compression, Destination Addressing Mode: Short/16-bit, Frame Version: IEEE Std 802.15.4-2003, Source Addressing Mode: Short/16-bit
        .... .... .... .001 = Frame Type: Data (0x1)
        .... .... .... 0... = Security Enabled: False
        .... .... ...0 .... = Frame Pending: False
        .... .... ..1. .... = Acknowledge Request: True
        .... .... .1.. .... = PAN ID Compression: True
        .... .... 0... .... = Reserved: False
        .... ...0 .... .... = Sequence Number Suppression: False
        .... ..0. .... .... = Information Elements Present: False
        .... 10.. .... .... = Destination Addressing Mode: Short/16-bit (0x2)
        ..00 .... .... .... = Frame Version: IEEE Std 802.15.4-2003 (0)
        10.. .... .... .... = Source Addressing Mode: Short/16-bit (0x2)
    Sequence Number: 228
    Destination PAN: 0x3332
    Destination: 0x0203
    Source: 0x0103
    FCS: 0xbc0d (Correct)
    [Ack In: 215]
Data (82 bytes)
    Data: 1600fd1c00007a03011e0000020b1000f6f0a23dfb10153b
    [Length: 82]

0000  61 88 e4 32 33 03 02 03 01 16 00 fd 1c 00 00 7a   a..23..........z
0010  03 01 1e 00 00 02 0b 10 00 f6 f0 a2 3d fb 10 15   ............=...
0020  3b 5a 52 18 bf f2 09 92 3a c8 87 e8 39 24 c7 6d   ;ZR.....:...9$.m
0030  3b da c1 fd 1c 00 00 7b 03 01 21 00 00 02 0b 10   ;......{..!.....
0040  00 00 00 00 00 00 00 00 00 6c 02 00 00 6d 02 00   .........l...m..
0050  00 00 00 00 00 00 00 4f 7f 2e fe 0d bc            .......O.....

No.     Time           Source                Destination           Protocol Length Info
    215 8.759702                                                   IEEE 802.15.4 5      Ack

Frame 215: 5 bytes on wire (40 bits), 5 bytes captured (40 bits)
    Encapsulation type: IEEE 802.15.4 Wireless PAN (104)
    Arrival Time: Mar  3, 2023 16:19:04.811165000 CST
    [Time shift for this packet: 0.000000000 seconds]
    Epoch Time: 1677881944.811165000 seconds
    [Time delta from previous captured frame: 0.000520000 seconds]
    [Time delta from previous displayed frame: 0.000520000 seconds]
    [Time since reference or first frame: 8.759702000 seconds]
    Frame Number: 215
    Frame Length: 5 bytes (40 bits)
    Capture Length: 5 bytes (40 bits)
    [Frame is marked: False]
    [Frame is ignored: False]
    [Protocols in frame: wpan]
IEEE 802.15.4 Ack, Sequence Number: 228
    Frame Control Field: 0x0002, Frame Type: Ack, Destination Addressing Mode: None, Frame Version: IEEE Std 802.15.4-2003, Source Addressing Mode: None
        .... .... .... .010 = Frame Type: Ack (0x2)
        .... .... .... 0... = Security Enabled: False
        .... .... ...0 .... = Frame Pending: False
        .... .... ..0. .... = Acknowledge Request: False
        .... .... .0.. .... = PAN ID Compression: False
        .... .... 0... .... = Reserved: False
        .... ...0 .... .... = Sequence Number Suppression: False
        .... ..0. .... .... = Information Elements Present: False
        .... 00.. .... .... = Destination Addressing Mode: None (0x0)
        ..00 .... .... .... = Frame Version: IEEE Std 802.15.4-2003 (0)
        00.. .... .... .... = Source Addressing Mode: None (0x0)
    Sequence Number: 228
    FCS: 0x1492 (Correct)
    [Ack To: 214]
    [Ack Time: 0.520 ms]

0000  02 00 e4 92 14                                    .....

No.     Time           Source                Destination           Protocol Length Info
    216 8.821065       0x0203                0x0103                IEEE 802.15.4 34     Data, Dst: 0x0103, Src: 0x0203

Frame 216: 34 bytes on wire (272 bits), 34 bytes captured (272 bits)
    Encapsulation type: IEEE 802.15.4 Wireless PAN (104)
    Arrival Time: Mar  3, 2023 16:19:04.872528000 CST
    [Time shift for this packet: 0.000000000 seconds]
    Epoch Time: 1677881944.872528000 seconds
    [Time delta from previous captured frame: 0.061363000 seconds]
    [Time delta from previous displayed frame: 0.061363000 seconds]
    [Time since reference or first frame: 8.821065000 seconds]
    Frame Number: 216
    Frame Length: 34 bytes (272 bits)
    Capture Length: 34 bytes (272 bits)
    [Frame is marked: False]
    [Frame is ignored: False]
    [Protocols in frame: wpan:data]
IEEE 802.15.4 Data, Dst: 0x0103, Src: 0x0203
    Frame Control Field: 0x8861, Frame Type: Data, Acknowledge Request, PAN ID Compression, Destination Addressing Mode: Short/16-bit, Frame Version: IEEE Std 802.15.4-2003, Source Addressing Mode: Short/16-bit
        .... .... .... .001 = Frame Type: Data (0x1)
        .... .... .... 0... = Security Enabled: False
        .... .... ...0 .... = Frame Pending: False
        .... .... ..1. .... = Acknowledge Request: True
        .... .... .1.. .... = PAN ID Compression: True
        .... .... 0... .... = Reserved: False
        .... ...0 .... .... = Sequence Number Suppression: False
        .... ..0. .... .... = Information Elements Present: False
        .... 10.. .... .... = Destination Addressing Mode: Short/16-bit (0x2)
        ..00 .... .... .... = Frame Version: IEEE Std 802.15.4-2003 (0)
        10.. .... .... .... = Source Addressing Mode: Short/16-bit (0x2)
    Sequence Number: 217
    Destination PAN: 0x3332
    Destination: 0x0103
    Source: 0x0203
    FCS: 0xfa1d (Correct)
    [Ack In: 217]
Data (23 bytes)
    Data: 0d00fd09000009ffbe000000000000000608c0040330ad
    [Length: 23]

0000  61 88 d9 32 33 03 01 03 02 0d 00 fd 09 00 00 09   a..23...........
0010  ff be 00 00 00 00 00 00 00 06 08 c0 04 03 30 ad   ..............0.
0020  1d fa                                             ..

No.     Time           Source                Destination           Protocol Length Info
    217 8.821590                                                   IEEE 802.15.4 5      Ack

Frame 217: 5 bytes on wire (40 bits), 5 bytes captured (40 bits)
    Encapsulation type: IEEE 802.15.4 Wireless PAN (104)
    Arrival Time: Mar  3, 2023 16:19:04.873053000 CST
    [Time shift for this packet: 0.000000000 seconds]
    Epoch Time: 1677881944.873053000 seconds
    [Time delta from previous captured frame: 0.000525000 seconds]
    [Time delta from previous displayed frame: 0.000525000 seconds]
    [Time since reference or first frame: 8.821590000 seconds]
    Frame Number: 217
    Frame Length: 5 bytes (40 bits)
    Capture Length: 5 bytes (40 bits)
    [Frame is marked: False]
    [Frame is ignored: False]
    [Protocols in frame: wpan]
IEEE 802.15.4 Ack, Sequence Number: 217
    Frame Control Field: 0x0002, Frame Type: Ack, Destination Addressing Mode: None, Frame Version: IEEE Std 802.15.4-2003, Source Addressing Mode: None
        .... .... .... .010 = Frame Type: Ack (0x2)
        .... .... .... 0... = Security Enabled: False
        .... .... ...0 .... = Frame Pending: False
        .... .... ..0. .... = Acknowledge Request: False
        .... .... .0.. .... = PAN ID Compression: False
        .... .... 0... .... = Reserved: False
        .... ...0 .... .... = Sequence Number Suppression: False
        .... ..0. .... .... = Information Elements Present: False
        .... 00.. .... .... = Destination Addressing Mode: None (0x0)
        ..00 .... .... .... = Frame Version: IEEE Std 802.15.4-2003 (0)
        00.. .... .... .... = Source Addressing Mode: None (0x0)
    Sequence Number: 217
    FCS: 0xfef4 (Correct)
    [Ack To: 216]
    [Ack Time: 0.525 ms]

0000  02 00 d9 f4 fe                                    .....

No.     Time           Source                Destination           Protocol Length Info
    218 8.876059       0x0103                0x0203                IEEE 802.15.4 53     Data, Dst: 0x0203, Src: 0x0103

Frame 218: 53 bytes on wire (424 bits), 53 bytes captured (424 bits)
    Encapsulation type: IEEE 802.15.4 Wireless PAN (104)
    Arrival Time: Mar  3, 2023 16:19:04.927522000 CST
    [Time shift for this packet: 0.000000000 seconds]
    Epoch Time: 1677881944.927522000 seconds
    [Time delta from previous captured frame: 0.054469000 seconds]
    [Time delta from previous displayed frame: 0.054469000 seconds]
    [Time since reference or first frame: 8.876059000 seconds]
    Frame Number: 218
    Frame Length: 53 bytes (424 bits)
    Capture Length: 53 bytes (424 bits)
    [Frame is marked: False]
    [Frame is ignored: False]
    [Protocols in frame: wpan:data]
IEEE 802.15.4 Data, Dst: 0x0203, Src: 0x0103
    Frame Control Field: 0x8861, Frame Type: Data, Acknowledge Request, PAN ID Compression, Destination Addressing Mode: Short/16-bit, Frame Version: IEEE Std 802.15.4-2003, Source Addressing Mode: Short/16-bit
        .... .... .... .001 = Frame Type: Data (0x1)
        .... .... .... 0... = Security Enabled: False
        .... .... ...0 .... = Frame Pending: False
        .... .... ..1. .... = Acknowledge Request: True
        .... .... .1.. .... = PAN ID Compression: True
        .... .... 0... .... = Reserved: False
        .... ...0 .... .... = Sequence Number Suppression: False
        .... ..0. .... .... = Information Elements Present: False
        .... 10.. .... .... = Destination Addressing Mode: Short/16-bit (0x2)
        ..00 .... .... .... = Frame Version: IEEE Std 802.15.4-2003 (0)
        10.. .... .... .... = Source Addressing Mode: Short/16-bit (0x2)
    Sequence Number: 229
    Destination PAN: 0x3332
    Destination: 0x0203
    Source: 0x0103
    FCS: 0xdfe2 (Correct)
    [Ack In: 219]
Data (42 bytes)
    Data: 1700fd1c00007c03012100007f0b10000000000000000000
    [Length: 42]

0000  61 88 e5 32 33 03 02 03 01 17 00 fd 1c 00 00 7c   a..23..........|
0010  03 01 21 00 00 7f 0b 10 00 00 00 00 00 00 00 00   ..!.............
0020  00 4a 01 00 00 50 01 00 00 00 00 00 00 00 00 4f   .J...P.........O
0030  7f 39 17 e2 df                                    .9...

No.     Time           Source                Destination           Protocol Length Info
    219 8.876582                                                   IEEE 802.15.4 5      Ack

Frame 219: 5 bytes on wire (40 bits), 5 bytes captured (40 bits)
    Encapsulation type: IEEE 802.15.4 Wireless PAN (104)
    Arrival Time: Mar  3, 2023 16:19:04.928045000 CST
    [Time shift for this packet: 0.000000000 seconds]
    Epoch Time: 1677881944.928045000 seconds
    [Time delta from previous captured frame: 0.000523000 seconds]
    [Time delta from previous displayed frame: 0.000523000 seconds]
    [Time since reference or first frame: 8.876582000 seconds]
    Frame Number: 219
    Frame Length: 5 bytes (40 bits)
    Capture Length: 5 bytes (40 bits)
    [Frame is marked: False]
    [Frame is ignored: False]
    [Protocols in frame: wpan]
IEEE 802.15.4 Ack, Sequence Number: 229
    Frame Control Field: 0x0002, Frame Type: Ack, Destination Addressing Mode: None, Frame Version: IEEE Std 802.15.4-2003, Source Addressing Mode: None
        .... .... .... .010 = Frame Type: Ack (0x2)
        .... .... .... 0... = Security Enabled: False
        .... .... ...0 .... = Frame Pending: False
        .... .... ..0. .... = Acknowledge Request: False
        .... .... .0.. .... = PAN ID Compression: False
        .... .... 0... .... = Reserved: False
        .... ...0 .... .... = Sequence Number Suppression: False
        .... ..0. .... .... = Information Elements Present: False
        .... 00.. .... .... = Destination Addressing Mode: None (0x0)
        ..00 .... .... .... = Frame Version: IEEE Std 802.15.4-2003 (0)
        00.. .... .... .... = Source Addressing Mode: None (0x0)
    Sequence Number: 229
    FCS: 0x051b (Correct)
    [Ack To: 218]
    [Ack Time: 0.523 ms]

0000  02 00 e5 1b 05                                    .....

No.     Time           Source                Destination           Protocol Length Info
    220 8.879300       0x0103                0x0203                IEEE 802.15.4 53     Data, Dst: 0x0203, Src: 0x0103

Frame 220: 53 bytes on wire (424 bits), 53 bytes captured (424 bits)
    Encapsulation type: IEEE 802.15.4 Wireless PAN (104)
    Arrival Time: Mar  3, 2023 16:19:04.930763000 CST
    [Time shift for this packet: 0.000000000 seconds]
    Epoch Time: 1677881944.930763000 seconds
    [Time delta from previous captured frame: 0.002718000 seconds]
    [Time delta from previous displayed frame: 0.002718000 seconds]
    [Time since reference or first frame: 8.879300000 seconds]
    Frame Number: 220
    Frame Length: 53 bytes (424 bits)
    Capture Length: 53 bytes (424 bits)
    [Frame is marked: False]
    [Frame is ignored: False]
    [Protocols in frame: wpan:data]
IEEE 802.15.4 Data, Dst: 0x0203, Src: 0x0103
    Frame Control Field: 0x8861, Frame Type: Data, Acknowledge Request, PAN ID Compression, Destination Addressing Mode: Short/16-bit, Frame Version: IEEE Std 802.15.4-2003, Source Addressing Mode: Short/16-bit
        .... .... .... .001 = Frame Type: Data (0x1)
        .... .... .... 0... = Security Enabled: False
        .... .... ...0 .... = Frame Pending: False
        .... .... ..1. .... = Acknowledge Request: True
        .... .... .1.. .... = PAN ID Compression: True
        .... .... 0... .... = Reserved: False
        .... ...0 .... .... = Sequence Number Suppression: False
        .... ..0. .... .... = Information Elements Present: False
        .... 10.. .... .... = Destination Addressing Mode: Short/16-bit (0x2)
        ..00 .... .... .... = Frame Version: IEEE Std 802.15.4-2003 (0)
        10.. .... .... .... = Source Addressing Mode: Short/16-bit (0x2)
    Sequence Number: 229
    Destination PAN: 0x3332
    Destination: 0x0203
    Source: 0x0103
    FCS: 0xdfe2 (Correct)
    [Ack In: 221]
Data (42 bytes)
    Data: 1700fd1c00007c03012100007f0b10000000000000000000
    [Length: 42]

0000  61 88 e5 32 33 03 02 03 01 17 00 fd 1c 00 00 7c   a..23..........|
0010  03 01 21 00 00 7f 0b 10 00 00 00 00 00 00 00 00   ..!.............
0020  00 4a 01 00 00 50 01 00 00 00 00 00 00 00 00 4f   .J...P.........O
0030  7f 39 17 e2 df                                    .9...

No.     Time           Source                Destination           Protocol Length Info
    221 8.879862                                                   IEEE 802.15.4 5      Ack

Frame 221: 5 bytes on wire (40 bits), 5 bytes captured (40 bits)
    Encapsulation type: IEEE 802.15.4 Wireless PAN (104)
    Arrival Time: Mar  3, 2023 16:19:04.931325000 CST
    [Time shift for this packet: 0.000000000 seconds]
    Epoch Time: 1677881944.931325000 seconds
    [Time delta from previous captured frame: 0.000562000 seconds]
    [Time delta from previous displayed frame: 0.000562000 seconds]
    [Time since reference or first frame: 8.879862000 seconds]
    Frame Number: 221
    Frame Length: 5 bytes (40 bits)
    Capture Length: 5 bytes (40 bits)
    [Frame is marked: False]
    [Frame is ignored: False]
    [Protocols in frame: wpan]
IEEE 802.15.4 Ack, Sequence Number: 229
    Frame Control Field: 0x0002, Frame Type: Ack, Destination Addressing Mode: None, Frame Version: IEEE Std 802.15.4-2003, Source Addressing Mode: None
        .... .... .... .010 = Frame Type: Ack (0x2)
        .... .... .... 0... = Security Enabled: False
        .... .... ...0 .... = Frame Pending: False
        .... .... ..0. .... = Acknowledge Request: False
        .... .... .0.. .... = PAN ID Compression: False
        .... .... 0... .... = Reserved: False
        .... ...0 .... .... = Sequence Number Suppression: False
        .... ..0. .... .... = Information Elements Present: False
        .... 00.. .... .... = Destination Addressing Mode: None (0x0)
        ..00 .... .... .... = Frame Version: IEEE Std 802.15.4-2003 (0)
        00.. .... .... .... = Source Addressing Mode: None (0x0)
    Sequence Number: 229
    FCS: 0x051b (Correct)
    [Ack To: 220]
    [Ack Time: 0.562 ms]

0000  02 00 e5 1b 05                                    .....

No.     Time           Source                Destination           Protocol Length Info
    222 9.002941       0x0103                0x0203                IEEE 802.15.4 53     Data, Dst: 0x0203, Src: 0x0103

Frame 222: 53 bytes on wire (424 bits), 53 bytes captured (424 bits)
    Encapsulation type: IEEE 802.15.4 Wireless PAN (104)
    Arrival Time: Mar  3, 2023 16:19:05.054404000 CST
    [Time shift for this packet: 0.000000000 seconds]
    Epoch Time: 1677881945.054404000 seconds
    [Time delta from previous captured frame: 0.123079000 seconds]
    [Time delta from previous displayed frame: 0.123079000 seconds]
    [Time since reference or first frame: 9.002941000 seconds]
    Frame Number: 222
    Frame Length: 53 bytes (424 bits)
    Capture Length: 53 bytes (424 bits)
    [Frame is marked: False]
    [Frame is ignored: False]
    [Protocols in frame: wpan:data]
IEEE 802.15.4 Data, Dst: 0x0203, Src: 0x0103
    Frame Control Field: 0x8861, Frame Type: Data, Acknowledge Request, PAN ID Compression, Destination Addressing Mode: Short/16-bit, Frame Version: IEEE Std 802.15.4-2003, Source Addressing Mode: Short/16-bit
        .... .... .... .001 = Frame Type: Data (0x1)
        .... .... .... 0... = Security Enabled: False
        .... .... ...0 .... = Frame Pending: False
        .... .... ..1. .... = Acknowledge Request: True
        .... .... .1.. .... = PAN ID Compression: True
        .... .... 0... .... = Reserved: False
        .... ...0 .... .... = Sequence Number Suppression: False
        .... ..0. .... .... = Information Elements Present: False
        .... 10.. .... .... = Destination Addressing Mode: Short/16-bit (0x2)
        ..00 .... .... .... = Frame Version: IEEE Std 802.15.4-2003 (0)
        10.. .... .... .... = Source Addressing Mode: Short/16-bit (0x2)
    Sequence Number: 230
    Destination PAN: 0x3332
    Destination: 0x0203
    Source: 0x0103
    FCS: 0x89e4 (Correct)
    [Ack In: 223]
Data (42 bytes)
    Data: 1800fd1c00007d0301210000ff0b10000000000000000000
    [Length: 42]

0000  61 88 e6 32 33 03 02 03 01 18 00 fd 1c 00 00 7d   a..23..........}
0010  03 01 21 00 00 ff 0b 10 00 00 00 00 00 00 00 00   ..!.............
0020  00 7c 01 00 00 85 01 00 00 00 00 00 00 00 00 4e   .|.............N
0030  7f e8 b2 e4 89                                    .....

No.     Time           Source                Destination           Protocol Length Info
    223 9.003445                                                   IEEE 802.15.4 5      Ack

Frame 223: 5 bytes on wire (40 bits), 5 bytes captured (40 bits)
    Encapsulation type: IEEE 802.15.4 Wireless PAN (104)
    Arrival Time: Mar  3, 2023 16:19:05.054908000 CST
    [Time shift for this packet: 0.000000000 seconds]
    Epoch Time: 1677881945.054908000 seconds
    [Time delta from previous captured frame: 0.000504000 seconds]
    [Time delta from previous displayed frame: 0.000504000 seconds]
    [Time since reference or first frame: 9.003445000 seconds]
    Frame Number: 223
    Frame Length: 5 bytes (40 bits)
    Capture Length: 5 bytes (40 bits)
    [Frame is marked: False]
    [Frame is ignored: False]
    [Protocols in frame: wpan]
IEEE 802.15.4 Ack, Sequence Number: 230
    Frame Control Field: 0x0002, Frame Type: Ack, Destination Addressing Mode: None, Frame Version: IEEE Std 802.15.4-2003, Source Addressing Mode: None
        .... .... .... .010 = Frame Type: Ack (0x2)
        .... .... .... 0... = Security Enabled: False
        .... .... ...0 .... = Frame Pending: False
        .... .... ..0. .... = Acknowledge Request: False
        .... .... .0.. .... = PAN ID Compression: False
        .... .... 0... .... = Reserved: False
        .... ...0 .... .... = Sequence Number Suppression: False
        .... ..0. .... .... = Information Elements Present: False
        .... 00.. .... .... = Destination Addressing Mode: None (0x0)
        ..00 .... .... .... = Frame Version: IEEE Std 802.15.4-2003 (0)
        00.. .... .... .... = Source Addressing Mode: None (0x0)
    Sequence Number: 230
    FCS: 0x3780 (Correct)
    [Ack To: 222]
    [Ack Time: 0.504 ms]

0000  02 00 e6 80 37                                    ....7

No.     Time           Source                Destination           Protocol Length Info
    224 9.123098       0x0103                0x0203                IEEE 802.15.4 53     Data, Dst: 0x0203, Src: 0x0103

Frame 224: 53 bytes on wire (424 bits), 53 bytes captured (424 bits)
    Encapsulation type: IEEE 802.15.4 Wireless PAN (104)
    Arrival Time: Mar  3, 2023 16:19:05.174561000 CST
    [Time shift for this packet: 0.000000000 seconds]
    Epoch Time: 1677881945.174561000 seconds
    [Time delta from previous captured frame: 0.119653000 seconds]
    [Time delta from previous displayed frame: 0.119653000 seconds]
    [Time since reference or first frame: 9.123098000 seconds]
    Frame Number: 224
    Frame Length: 53 bytes (424 bits)
    Capture Length: 53 bytes (424 bits)
    [Frame is marked: False]
    [Frame is ignored: False]
    [Protocols in frame: wpan:data]
IEEE 802.15.4 Data, Dst: 0x0203, Src: 0x0103
    Frame Control Field: 0x8861, Frame Type: Data, Acknowledge Request, PAN ID Compression, Destination Addressing Mode: Short/16-bit, Frame Version: IEEE Std 802.15.4-2003, Source Addressing Mode: Short/16-bit
        .... .... .... .001 = Frame Type: Data (0x1)
        .... .... .... 0... = Security Enabled: False
        .... .... ...0 .... = Frame Pending: False
        .... .... ..1. .... = Acknowledge Request: True
        .... .... .1.. .... = PAN ID Compression: True
        .... .... 0... .... = Reserved: False
        .... ...0 .... .... = Sequence Number Suppression: False
        .... ..0. .... .... = Information Elements Present: False
        .... 10.. .... .... = Destination Addressing Mode: Short/16-bit (0x2)
        ..00 .... .... .... = Frame Version: IEEE Std 802.15.4-2003 (0)
        10.. .... .... .... = Source Addressing Mode: Short/16-bit (0x2)
    Sequence Number: 231
    Destination PAN: 0x3332
    Destination: 0x0203
    Source: 0x0103
    FCS: 0x1d07 (Correct)
    [Ack In: 225]
Data (42 bytes)
    Data: 1900fd1c00007e0301210000770c10000000000000000000
    [Length: 42]

0000  61 88 e7 32 33 03 02 03 01 19 00 fd 1c 00 00 7e   a..23..........~
0010  03 01 21 00 00 77 0c 10 00 00 00 00 00 00 00 00   ..!..w..........
0020  00 ea 01 00 00 eb 01 00 00 00 00 00 00 00 00 4e   ...............N
0030  7f 97 80 07 1d                                    .....

No.     Time           Source                Destination           Protocol Length Info
    225 9.123608                                                   IEEE 802.15.4 5      Ack

Frame 225: 5 bytes on wire (40 bits), 5 bytes captured (40 bits)
    Encapsulation type: IEEE 802.15.4 Wireless PAN (104)
    Arrival Time: Mar  3, 2023 16:19:05.175071000 CST
    [Time shift for this packet: 0.000000000 seconds]
    Epoch Time: 1677881945.175071000 seconds
    [Time delta from previous captured frame: 0.000510000 seconds]
    [Time delta from previous displayed frame: 0.000510000 seconds]
    [Time since reference or first frame: 9.123608000 seconds]
    Frame Number: 225
    Frame Length: 5 bytes (40 bits)
    Capture Length: 5 bytes (40 bits)
    [Frame is marked: False]
    [Frame is ignored: False]
    [Protocols in frame: wpan]
IEEE 802.15.4 Ack, Sequence Number: 231
    Frame Control Field: 0x0002, Frame Type: Ack, Destination Addressing Mode: None, Frame Version: IEEE Std 802.15.4-2003, Source Addressing Mode: None
        .... .... .... .010 = Frame Type: Ack (0x2)
        .... .... .... 0... = Security Enabled: False
        .... .... ...0 .... = Frame Pending: False
        .... .... ..0. .... = Acknowledge Request: False
        .... .... .0.. .... = PAN ID Compression: False
        .... .... 0... .... = Reserved: False
        .... ...0 .... .... = Sequence Number Suppression: False
        .... ..0. .... .... = Information Elements Present: False
        .... 00.. .... .... = Destination Addressing Mode: None (0x0)
        ..00 .... .... .... = Frame Version: IEEE Std 802.15.4-2003 (0)
        00.. .... .... .... = Source Addressing Mode: None (0x0)
    Sequence Number: 231
    FCS: 0x2609 (Correct)
    [Ack To: 224]
    [Ack Time: 0.510 ms]

0000  02 00 e7 09 26                                    ....&

No.     Time           Source                Destination           Protocol Length Info
    226 9.256269       0x0103                0x0203                IEEE 802.15.4 77     Data, Dst: 0x0203, Src: 0x0103

Frame 226: 77 bytes on wire (616 bits), 77 bytes captured (616 bits)
    Encapsulation type: IEEE 802.15.4 Wireless PAN (104)
    Arrival Time: Mar  3, 2023 16:19:05.307732000 CST
    [Time shift for this packet: 0.000000000 seconds]
    Epoch Time: 1677881945.307732000 seconds
    [Time delta from previous captured frame: 0.132661000 seconds]
    [Time delta from previous displayed frame: 0.132661000 seconds]
    [Time since reference or first frame: 9.256269000 seconds]
    Frame Number: 226
    Frame Length: 77 bytes (616 bits)
    Capture Length: 77 bytes (616 bits)
    [Frame is marked: False]
    [Frame is ignored: False]
    [Protocols in frame: wpan:data]
IEEE 802.15.4 Data, Dst: 0x0203, Src: 0x0103
    Frame Control Field: 0x8861, Frame Type: Data, Acknowledge Request, PAN ID Compression, Destination Addressing Mode: Short/16-bit, Frame Version: IEEE Std 802.15.4-2003, Source Addressing Mode: Short/16-bit
        .... .... .... .001 = Frame Type: Data (0x1)
        .... .... .... 0... = Security Enabled: False
        .... .... ...0 .... = Frame Pending: False
        .... .... ..1. .... = Acknowledge Request: True
        .... .... .1.. .... = PAN ID Compression: True
        .... .... 0... .... = Reserved: False
        .... ...0 .... .... = Sequence Number Suppression: False
        .... ..0. .... .... = Information Elements Present: False
        .... 10.. .... .... = Destination Addressing Mode: Short/16-bit (0x2)
        ..00 .... .... .... = Frame Version: IEEE Std 802.15.4-2003 (0)
        10.. .... .... .... = Source Addressing Mode: Short/16-bit (0x2)
    Sequence Number: 232
    Destination PAN: 0x3332
    Destination: 0x0203
    Source: 0x0103
    FCS: 0xae71 (Correct)
    [Ack In: 227]
Data (66 bytes)
    Data: 1a00fd1f00007f03010100000ffc60130f1c60100f9c5001
    [Length: 66]

0000  61 88 e8 32 33 03 02 03 01 1a 00 fd 1f 00 00 7f   a..23...........
0010  03 01 01 00 00 0f fc 60 13 0f 1c 60 10 0f 9c 50   .......`...`...P
0020  01 00 02 00 00 ff ff 00 00 00 00 00 00 00 00 00   ................
0030  00 00 00 ff 11 2e fd 16 00 00 80 03 01 c1 00 00   ................
0040  00 00 00 00 9a ea 03 3b d2 e4 0e 71 ae            .......;...q.

No.     Time           Source                Destination           Protocol Length Info
    227 9.256651                                                   IEEE 802.15.4 5      Ack

Frame 227: 5 bytes on wire (40 bits), 5 bytes captured (40 bits)
    Encapsulation type: IEEE 802.15.4 Wireless PAN (104)
    Arrival Time: Mar  3, 2023 16:19:05.308114000 CST
    [Time shift for this packet: 0.000000000 seconds]
    Epoch Time: 1677881945.308114000 seconds
    [Time delta from previous captured frame: 0.000382000 seconds]
    [Time delta from previous displayed frame: 0.000382000 seconds]
    [Time since reference or first frame: 9.256651000 seconds]
    Frame Number: 227
    Frame Length: 5 bytes (40 bits)
    Capture Length: 5 bytes (40 bits)
    [Frame is marked: False]
    [Frame is ignored: False]
    [Protocols in frame: wpan]
IEEE 802.15.4 Ack, Sequence Number: 232
    Frame Control Field: 0x0002, Frame Type: Ack, Destination Addressing Mode: None, Frame Version: IEEE Std 802.15.4-2003, Source Addressing Mode: None
        .... .... .... .010 = Frame Type: Ack (0x2)
        .... .... .... 0... = Security Enabled: False
        .... .... ...0 .... = Frame Pending: False
        .... .... ..0. .... = Acknowledge Request: False
        .... .... .0.. .... = PAN ID Compression: False
        .... .... 0... .... = Reserved: False
        .... ...0 .... .... = Sequence Number Suppression: False
        .... ..0. .... .... = Information Elements Present: False
        .... 00.. .... .... = Destination Addressing Mode: None (0x0)
        ..00 .... .... .... = Frame Version: IEEE Std 802.15.4-2003 (0)
        00.. .... .... .... = Source Addressing Mode: None (0x0)
    Sequence Number: 232
    FCS: 0xdefe (Correct)
    [Ack To: 226]
    [Ack Time: 0.382 ms]

0000  02 00 e8 fe de                                    .....

No.     Time           Source                Destination           Protocol Length Info
    228 9.273921       0x0103                0x0203                IEEE 802.15.4 106    Data, Dst: 0x0203, Src: 0x0103

Frame 228: 106 bytes on wire (848 bits), 106 bytes captured (848 bits)
    Encapsulation type: IEEE 802.15.4 Wireless PAN (104)
    Arrival Time: Mar  3, 2023 16:19:05.325384000 CST
    [Time shift for this packet: 0.000000000 seconds]
    Epoch Time: 1677881945.325384000 seconds
    [Time delta from previous captured frame: 0.017270000 seconds]
    [Time delta from previous displayed frame: 0.017270000 seconds]
    [Time since reference or first frame: 9.273921000 seconds]
    Frame Number: 228
    Frame Length: 106 bytes (848 bits)
    Capture Length: 106 bytes (848 bits)
    [Frame is marked: False]
    [Frame is ignored: False]
    [Protocols in frame: wpan:data]
IEEE 802.15.4 Data, Dst: 0x0203, Src: 0x0103
    Frame Control Field: 0x8861, Frame Type: Data, Acknowledge Request, PAN ID Compression, Destination Addressing Mode: Short/16-bit, Frame Version: IEEE Std 802.15.4-2003, Source Addressing Mode: Short/16-bit
        .... .... .... .001 = Frame Type: Data (0x1)
        .... .... .... 0... = Security Enabled: False
        .... .... ...0 .... = Frame Pending: False
        .... .... ..1. .... = Acknowledge Request: True
        .... .... .1.. .... = PAN ID Compression: True
        .... .... 0... .... = Reserved: False
        .... ...0 .... .... = Sequence Number Suppression: False
        .... ..0. .... .... = Information Elements Present: False
        .... 10.. .... .... = Destination Addressing Mode: Short/16-bit (0x2)
        ..00 .... .... .... = Frame Version: IEEE Std 802.15.4-2003 (0)
        10.. .... .... .... = Source Addressing Mode: Short/16-bit (0x2)
    Sequence Number: 233
    Destination PAN: 0x3332
    Destination: 0x0203
    Source: 0x0103
    FCS: 0x8a5a (Correct)
    [Ack In: 229]
Data (95 bytes)
    Data: 1b003ba2c0dc3d00000000a501d874fd1c00008103011e00
    [Length: 95]

0000  61 88 e9 32 33 03 02 03 01 1b 00 3b a2 c0 dc 3d   a..23......;...=
0010  00 00 00 00 a5 01 d8 74 fd 1c 00 00 81 03 01 1e   .......t........
0020  00 00 f6 0c 10 00 61 ec a2 3d 95 3b 13 3b f6 6c   ......a..=.;.;.l
0030  18 bf 00 89 9d 35 e3 94 d6 39 8a e9 7e 3b 64 c3   .....5...9..~;d.
0040  fd 1c 00 00 82 03 01 21 00 00 fb 0c 10 00 00 00   .......!........
0050  00 00 00 00 00 00 c2 01 00 00 c4 01 00 00 00 00   ................
0060  00 00 00 00 4d 7f dd cf 5a 8a                     ....M...Z.

No.     Time           Source                Destination           Protocol Length Info
    229 9.274441                                                   IEEE 802.15.4 5      Ack

Frame 229: 5 bytes on wire (40 bits), 5 bytes captured (40 bits)
    Encapsulation type: IEEE 802.15.4 Wireless PAN (104)
    Arrival Time: Mar  3, 2023 16:19:05.325904000 CST
    [Time shift for this packet: 0.000000000 seconds]
    Epoch Time: 1677881945.325904000 seconds
    [Time delta from previous captured frame: 0.000520000 seconds]
    [Time delta from previous displayed frame: 0.000520000 seconds]
    [Time since reference or first frame: 9.274441000 seconds]
    Frame Number: 229
    Frame Length: 5 bytes (40 bits)
    Capture Length: 5 bytes (40 bits)
    [Frame is marked: False]
    [Frame is ignored: False]
    [Protocols in frame: wpan]
IEEE 802.15.4 Ack, Sequence Number: 233
    Frame Control Field: 0x0002, Frame Type: Ack, Destination Addressing Mode: None, Frame Version: IEEE Std 802.15.4-2003, Source Addressing Mode: None
        .... .... .... .010 = Frame Type: Ack (0x2)
        .... .... .... 0... = Security Enabled: False
        .... .... ...0 .... = Frame Pending: False
        .... .... ..0. .... = Acknowledge Request: False
        .... .... .0.. .... = PAN ID Compression: False
        .... .... 0... .... = Reserved: False
        .... ...0 .... .... = Sequence Number Suppression: False
        .... ..0. .... .... = Information Elements Present: False
        .... 00.. .... .... = Destination Addressing Mode: None (0x0)
        ..00 .... .... .... = Frame Version: IEEE Std 802.15.4-2003 (0)
        00.. .... .... .... = Source Addressing Mode: None (0x0)
    Sequence Number: 233
    FCS: 0xcf77 (Correct)
    [Ack To: 228]
    [Ack Time: 0.520 ms]

0000  02 00 e9 77 cf                                    ...w.

No.     Time           Source                Destination           Protocol Length Info
    230 9.318918       0x0103                0x0203                IEEE 802.15.4 34     Data, Dst: 0x0203, Src: 0x0103

Frame 230: 34 bytes on wire (272 bits), 34 bytes captured (272 bits)
    Encapsulation type: IEEE 802.15.4 Wireless PAN (104)
    Arrival Time: Mar  3, 2023 16:19:05.370381000 CST
    [Time shift for this packet: 0.000000000 seconds]
    Epoch Time: 1677881945.370381000 seconds
    [Time delta from previous captured frame: 0.044477000 seconds]
    [Time delta from previous displayed frame: 0.044477000 seconds]
    [Time since reference or first frame: 9.318918000 seconds]
    Frame Number: 230
    Frame Length: 34 bytes (272 bits)
    Capture Length: 34 bytes (272 bits)
    [Frame is marked: False]
    [Frame is ignored: False]
    [Protocols in frame: wpan:data]
IEEE 802.15.4 Data, Dst: 0x0203, Src: 0x0103
    Frame Control Field: 0x8861, Frame Type: Data, Acknowledge Request, PAN ID Compression, Destination Addressing Mode: Short/16-bit, Frame Version: IEEE Std 802.15.4-2003, Source Addressing Mode: Short/16-bit
        .... .... .... .001 = Frame Type: Data (0x1)
        .... .... .... 0... = Security Enabled: False
        .... .... ...0 .... = Frame Pending: False
        .... .... ..1. .... = Acknowledge Request: True
        .... .... .1.. .... = PAN ID Compression: True
        .... .... 0... .... = Reserved: False
        .... ...0 .... .... = Sequence Number Suppression: False
        .... ..0. .... .... = Information Elements Present: False
        .... 10.. .... .... = Destination Addressing Mode: Short/16-bit (0x2)
        ..00 .... .... .... = Frame Version: IEEE Std 802.15.4-2003 (0)
        10.. .... .... .... = Source Addressing Mode: Short/16-bit (0x2)
    Sequence Number: 234
    Destination PAN: 0x3332
    Destination: 0x0203
    Source: 0x0103
    FCS: 0xc39c (Correct)
    [Ack In: 231]
Data (23 bytes)
    Data: 1c00fd09000083030100000000000000020351030382bc
    [Length: 23]

0000  61 88 ea 32 33 03 02 03 01 1c 00 fd 09 00 00 83   a..23...........
0010  03 01 00 00 00 00 00 00 00 02 03 51 03 03 82 bc   ...........Q....
0020  9c c3                                             ..

No.     Time           Source                Destination           Protocol Length Info
    231 9.319435                                                   IEEE 802.15.4 5      Ack

Frame 231: 5 bytes on wire (40 bits), 5 bytes captured (40 bits)
    Encapsulation type: IEEE 802.15.4 Wireless PAN (104)
    Arrival Time: Mar  3, 2023 16:19:05.370898000 CST
    [Time shift for this packet: 0.000000000 seconds]
    Epoch Time: 1677881945.370898000 seconds
    [Time delta from previous captured frame: 0.000517000 seconds]
    [Time delta from previous displayed frame: 0.000517000 seconds]
    [Time since reference or first frame: 9.319435000 seconds]
    Frame Number: 231
    Frame Length: 5 bytes (40 bits)
    Capture Length: 5 bytes (40 bits)
    [Frame is marked: False]
    [Frame is ignored: False]
    [Protocols in frame: wpan]
IEEE 802.15.4 Ack, Sequence Number: 234
    Frame Control Field: 0x0002, Frame Type: Ack, Destination Addressing Mode: None, Frame Version: IEEE Std 802.15.4-2003, Source Addressing Mode: None
        .... .... .... .010 = Frame Type: Ack (0x2)
        .... .... .... 0... = Security Enabled: False
        .... .... ...0 .... = Frame Pending: False
        .... .... ..0. .... = Acknowledge Request: False
        .... .... .0.. .... = PAN ID Compression: False
        .... .... 0... .... = Reserved: False
        .... ...0 .... .... = Sequence Number Suppression: False
        .... ..0. .... .... = Information Elements Present: False
        .... 00.. .... .... = Destination Addressing Mode: None (0x0)
        ..00 .... .... .... = Frame Version: IEEE Std 802.15.4-2003 (0)
        00.. .... .... .... = Source Addressing Mode: None (0x0)
    Sequence Number: 234
    FCS: 0xfdec (Correct)
    [Ack To: 230]
    [Ack Time: 0.517 ms]

0000  02 00 ea ec fd                                    .....

No.     Time           Source                Destination           Protocol Length Info
    232 9.375725       0x0103                0x0203                IEEE 802.15.4 53     Data, Dst: 0x0203, Src: 0x0103

Frame 232: 53 bytes on wire (424 bits), 53 bytes captured (424 bits)
    Encapsulation type: IEEE 802.15.4 Wireless PAN (104)
    Arrival Time: Mar  3, 2023 16:19:05.427188000 CST
    [Time shift for this packet: 0.000000000 seconds]
    Epoch Time: 1677881945.427188000 seconds
    [Time delta from previous captured frame: 0.056290000 seconds]
    [Time delta from previous displayed frame: 0.056290000 seconds]
    [Time since reference or first frame: 9.375725000 seconds]
    Frame Number: 232
    Frame Length: 53 bytes (424 bits)
    Capture Length: 53 bytes (424 bits)
    [Frame is marked: False]
    [Frame is ignored: False]
    [Protocols in frame: wpan:data]
IEEE 802.15.4 Data, Dst: 0x0203, Src: 0x0103
    Frame Control Field: 0x8861, Frame Type: Data, Acknowledge Request, PAN ID Compression, Destination Addressing Mode: Short/16-bit, Frame Version: IEEE Std 802.15.4-2003, Source Addressing Mode: Short/16-bit
        .... .... .... .001 = Frame Type: Data (0x1)
        .... .... .... 0... = Security Enabled: False
        .... .... ...0 .... = Frame Pending: False
        .... .... ..1. .... = Acknowledge Request: True
        .... .... .1.. .... = PAN ID Compression: True
        .... .... 0... .... = Reserved: False
        .... ...0 .... .... = Sequence Number Suppression: False
        .... ..0. .... .... = Information Elements Present: False
        .... 10.. .... .... = Destination Addressing Mode: Short/16-bit (0x2)
        ..00 .... .... .... = Frame Version: IEEE Std 802.15.4-2003 (0)
        10.. .... .... .... = Source Addressing Mode: Short/16-bit (0x2)
    Sequence Number: 235
    Destination PAN: 0x3332
    Destination: 0x0203
    Source: 0x0103
    FCS: 0xe3ad (Correct)
    [Ack In: 233]
Data (42 bytes)
    Data: 1d00fd1c0000840301210000730d10000000000000000000
    [Length: 42]

0000  61 88 eb 32 33 03 02 03 01 1d 00 fd 1c 00 00 84   a..23...........
0010  03 01 21 00 00 73 0d 10 00 00 00 00 00 00 00 00   ..!..s..........
0020  00 62 02 00 00 68 02 00 00 00 00 00 00 00 00 4d   .b...h.........M
0030  7f 7e ba ad e3                                    .~...

No.     Time           Source                Destination           Protocol Length Info
    233 9.376247                                                   IEEE 802.15.4 5      Ack

Frame 233: 5 bytes on wire (40 bits), 5 bytes captured (40 bits)
    Encapsulation type: IEEE 802.15.4 Wireless PAN (104)
    Arrival Time: Mar  3, 2023 16:19:05.427710000 CST
    [Time shift for this packet: 0.000000000 seconds]
    Epoch Time: 1677881945.427710000 seconds
    [Time delta from previous captured frame: 0.000522000 seconds]
    [Time delta from previous displayed frame: 0.000522000 seconds]
    [Time since reference or first frame: 9.376247000 seconds]
    Frame Number: 233
    Frame Length: 5 bytes (40 bits)
    Capture Length: 5 bytes (40 bits)
    [Frame is marked: False]
    [Frame is ignored: False]
    [Protocols in frame: wpan]
IEEE 802.15.4 Ack, Sequence Number: 235
    Frame Control Field: 0x0002, Frame Type: Ack, Destination Addressing Mode: None, Frame Version: IEEE Std 802.15.4-2003, Source Addressing Mode: None
        .... .... .... .010 = Frame Type: Ack (0x2)
        .... .... .... 0... = Security Enabled: False
        .... .... ...0 .... = Frame Pending: False
        .... .... ..0. .... = Acknowledge Request: False
        .... .... .0.. .... = PAN ID Compression: False
        .... .... 0... .... = Reserved: False
        .... ...0 .... .... = Sequence Number Suppression: False
        .... ..0. .... .... = Information Elements Present: False
        .... 00.. .... .... = Destination Addressing Mode: None (0x0)
        ..00 .... .... .... = Frame Version: IEEE Std 802.15.4-2003 (0)
        00.. .... .... .... = Source Addressing Mode: None (0x0)
    Sequence Number: 235
    FCS: 0xec65 (Correct)
    [Ack To: 232]
    [Ack Time: 0.522 ms]

0000  02 00 eb 65 ec                                    ...e.

No.     Time           Source                Destination           Protocol Length Info
    234 9.501323       0x0103                0x0203                IEEE 802.15.4 53     Data, Dst: 0x0203, Src: 0x0103

Frame 234: 53 bytes on wire (424 bits), 53 bytes captured (424 bits)
    Encapsulation type: IEEE 802.15.4 Wireless PAN (104)
    Arrival Time: Mar  3, 2023 16:19:05.552786000 CST
    [Time shift for this packet: 0.000000000 seconds]
    Epoch Time: 1677881945.552786000 seconds
    [Time delta from previous captured frame: 0.125076000 seconds]
    [Time delta from previous displayed frame: 0.125076000 seconds]
    [Time since reference or first frame: 9.501323000 seconds]
    Frame Number: 234
    Frame Length: 53 bytes (424 bits)
    Capture Length: 53 bytes (424 bits)
    [Frame is marked: False]
    [Frame is ignored: False]
    [Protocols in frame: wpan:data]
IEEE 802.15.4 Data, Dst: 0x0203, Src: 0x0103
    Frame Control Field: 0x8861, Frame Type: Data, Acknowledge Request, PAN ID Compression, Destination Addressing Mode: Short/16-bit, Frame Version: IEEE Std 802.15.4-2003, Source Addressing Mode: Short/16-bit
        .... .... .... .001 = Frame Type: Data (0x1)
        .... .... .... 0... = Security Enabled: False
        .... .... ...0 .... = Frame Pending: False
        .... .... ..1. .... = Acknowledge Request: True
        .... .... .1.. .... = PAN ID Compression: True
        .... .... 0... .... = Reserved: False
        .... ...0 .... .... = Sequence Number Suppression: False
        .... ..0. .... .... = Information Elements Present: False
        .... 10.. .... .... = Destination Addressing Mode: Short/16-bit (0x2)
        ..00 .... .... .... = Frame Version: IEEE Std 802.15.4-2003 (0)
        10.. .... .... .... = Source Addressing Mode: Short/16-bit (0x2)
    Sequence Number: 236
    Destination PAN: 0x3332
    Destination: 0x0203
    Source: 0x0103
    FCS: 0x081b (Correct)
    [Ack In: 235]
Data (42 bytes)
    Data: 1e00fd1c0000850301210000f10d10000000000000000000
    [Length: 42]

0000  61 88 ec 32 33 03 02 03 01 1e 00 fd 1c 00 00 85   a..23...........
0010  03 01 21 00 00 f1 0d 10 00 00 00 00 00 00 00 00   ..!.............
0020  00 96 00 00 00 98 00 00 00 00 00 00 00 00 00 4c   ...............L
0030  7f 7d 11 1b 08                                    .}...

No.     Time           Source                Destination           Protocol Length Info
    235 9.501845                                                   IEEE 802.15.4 5      Ack

Frame 235: 5 bytes on wire (40 bits), 5 bytes captured (40 bits)
    Encapsulation type: IEEE 802.15.4 Wireless PAN (104)
    Arrival Time: Mar  3, 2023 16:19:05.553308000 CST
    [Time shift for this packet: 0.000000000 seconds]
    Epoch Time: 1677881945.553308000 seconds
    [Time delta from previous captured frame: 0.000522000 seconds]
    [Time delta from previous displayed frame: 0.000522000 seconds]
    [Time since reference or first frame: 9.501845000 seconds]
    Frame Number: 235
    Frame Length: 5 bytes (40 bits)
    Capture Length: 5 bytes (40 bits)
    [Frame is marked: False]
    [Frame is ignored: False]
    [Protocols in frame: wpan]
IEEE 802.15.4 Ack, Sequence Number: 236
    Frame Control Field: 0x0002, Frame Type: Ack, Destination Addressing Mode: None, Frame Version: IEEE Std 802.15.4-2003, Source Addressing Mode: None
        .... .... .... .010 = Frame Type: Ack (0x2)
        .... .... .... 0... = Security Enabled: False
        .... .... ...0 .... = Frame Pending: False
        .... .... ..0. .... = Acknowledge Request: False
        .... .... .0.. .... = PAN ID Compression: False
        .... .... 0... .... = Reserved: False
        .... ...0 .... .... = Sequence Number Suppression: False
        .... ..0. .... .... = Information Elements Present: False
        .... 00.. .... .... = Destination Addressing Mode: None (0x0)
        ..00 .... .... .... = Frame Version: IEEE Std 802.15.4-2003 (0)
        00.. .... .... .... = Source Addressing Mode: None (0x0)
    Sequence Number: 236
    FCS: 0x98da (Correct)
    [Ack To: 234]
    [Ack Time: 0.522 ms]

0000  02 00 ec da 98                                    .....

No.     Time           Source                Destination           Protocol Length Info
    236 9.625502       0x0103                0x0203                IEEE 802.15.4 53     Data, Dst: 0x0203, Src: 0x0103

Frame 236: 53 bytes on wire (424 bits), 53 bytes captured (424 bits)
    Encapsulation type: IEEE 802.15.4 Wireless PAN (104)
    Arrival Time: Mar  3, 2023 16:19:05.676965000 CST
    [Time shift for this packet: 0.000000000 seconds]
    Epoch Time: 1677881945.676965000 seconds
    [Time delta from previous captured frame: 0.123657000 seconds]
    [Time delta from previous displayed frame: 0.123657000 seconds]
    [Time since reference or first frame: 9.625502000 seconds]
    Frame Number: 236
    Frame Length: 53 bytes (424 bits)
    Capture Length: 53 bytes (424 bits)
    [Frame is marked: False]
    [Frame is ignored: False]
    [Protocols in frame: wpan:data]
IEEE 802.15.4 Data, Dst: 0x0203, Src: 0x0103
    Frame Control Field: 0x8861, Frame Type: Data, Acknowledge Request, PAN ID Compression, Destination Addressing Mode: Short/16-bit, Frame Version: IEEE Std 802.15.4-2003, Source Addressing Mode: Short/16-bit
        .... .... .... .001 = Frame Type: Data (0x1)
        .... .... .... 0... = Security Enabled: False
        .... .... ...0 .... = Frame Pending: False
        .... .... ..1. .... = Acknowledge Request: True
        .... .... .1.. .... = PAN ID Compression: True
        .... .... 0... .... = Reserved: False
        .... ...0 .... .... = Sequence Number Suppression: False
        .... ..0. .... .... = Information Elements Present: False
        .... 10.. .... .... = Destination Addressing Mode: Short/16-bit (0x2)
        ..00 .... .... .... = Frame Version: IEEE Std 802.15.4-2003 (0)
        10.. .... .... .... = Source Addressing Mode: Short/16-bit (0x2)
    Sequence Number: 237
    Destination PAN: 0x3332
    Destination: 0x0203
    Source: 0x0103
    FCS: 0x191e (Correct)
    [Ack In: 237]
Data (42 bytes)
    Data: 1f00fd1c00008603012100006d0e10000000000000000000
    [Length: 42]

0000  61 88 ed 32 33 03 02 03 01 1f 00 fd 1c 00 00 86   a..23...........
0010  03 01 21 00 00 6d 0e 10 00 00 00 00 00 00 00 00   ..!..m..........
0020  00 dc 00 00 00 e4 00 00 00 00 00 00 00 00 00 4b   ...............K
0030  7f f7 65 1e 19                                    ..e..

No.     Time           Source                Destination           Protocol Length Info
    237 9.626015                                                   IEEE 802.15.4 5      Ack

Frame 237: 5 bytes on wire (40 bits), 5 bytes captured (40 bits)
    Encapsulation type: IEEE 802.15.4 Wireless PAN (104)
    Arrival Time: Mar  3, 2023 16:19:05.677478000 CST
    [Time shift for this packet: 0.000000000 seconds]
    Epoch Time: 1677881945.677478000 seconds
    [Time delta from previous captured frame: 0.000513000 seconds]
    [Time delta from previous displayed frame: 0.000513000 seconds]
    [Time since reference or first frame: 9.626015000 seconds]
    Frame Number: 237
    Frame Length: 5 bytes (40 bits)
    Capture Length: 5 bytes (40 bits)
    [Frame is marked: False]
    [Frame is ignored: False]
    [Protocols in frame: wpan]
IEEE 802.15.4 Ack, Sequence Number: 237
    Frame Control Field: 0x0002, Frame Type: Ack, Destination Addressing Mode: None, Frame Version: IEEE Std 802.15.4-2003, Source Addressing Mode: None
        .... .... .... .010 = Frame Type: Ack (0x2)
        .... .... .... 0... = Security Enabled: False
        .... .... ...0 .... = Frame Pending: False
        .... .... ..0. .... = Acknowledge Request: False
        .... .... .0.. .... = PAN ID Compression: False
        .... .... 0... .... = Reserved: False
        .... ...0 .... .... = Sequence Number Suppression: False
        .... ..0. .... .... = Information Elements Present: False
        .... 00.. .... .... = Destination Addressing Mode: None (0x0)
        ..00 .... .... .... = Frame Version: IEEE Std 802.15.4-2003 (0)
        00.. .... .... .... = Source Addressing Mode: None (0x0)
    Sequence Number: 237
    FCS: 0x8953 (Correct)
    [Ack To: 236]
    [Ack Time: 0.513 ms]

0000  02 00 ed 53 89                                    ...S.

No.     Time           Source                Destination           Protocol Length Info
    238 9.761612       0x0103                0x0203                IEEE 802.15.4 93     Data, Dst: 0x0203, Src: 0x0103

Frame 238: 93 bytes on wire (744 bits), 93 bytes captured (744 bits)
    Encapsulation type: IEEE 802.15.4 Wireless PAN (104)
    Arrival Time: Mar  3, 2023 16:19:05.813075000 CST
    [Time shift for this packet: 0.000000000 seconds]
    Epoch Time: 1677881945.813075000 seconds
    [Time delta from previous captured frame: 0.135597000 seconds]
    [Time delta from previous displayed frame: 0.135597000 seconds]
    [Time since reference or first frame: 9.761612000 seconds]
    Frame Number: 238
    Frame Length: 93 bytes (744 bits)
    Capture Length: 93 bytes (744 bits)
    [Frame is marked: False]
    [Frame is ignored: False]
    [Protocols in frame: wpan:data]
IEEE 802.15.4 Data, Dst: 0x0203, Src: 0x0103
    Frame Control Field: 0x8861, Frame Type: Data, Acknowledge Request, PAN ID Compression, Destination Addressing Mode: Short/16-bit, Frame Version: IEEE Std 802.15.4-2003, Source Addressing Mode: Short/16-bit
        .... .... .... .001 = Frame Type: Data (0x1)
        .... .... .... 0... = Security Enabled: False
        .... .... ...0 .... = Frame Pending: False
        .... .... ..1. .... = Acknowledge Request: True
        .... .... .1.. .... = PAN ID Compression: True
        .... .... 0... .... = Reserved: False
        .... ...0 .... .... = Sequence Number Suppression: False
        .... ..0. .... .... = Information Elements Present: False
        .... 10.. .... .... = Destination Addressing Mode: Short/16-bit (0x2)
        ..00 .... .... .... = Frame Version: IEEE Std 802.15.4-2003 (0)
        10.. .... .... .... = Source Addressing Mode: Short/16-bit (0x2)
    Sequence Number: 238
    Destination PAN: 0x3332
    Destination: 0x0203
    Source: 0x0103
    FCS: 0x0b45 (Correct)
    [Ack In: 239]
Data (82 bytes)
    Data: 2000fd1c00008703011e0000ec0e1000a1f2a23d7f070f3b
    [Length: 82]

0000  61 88 ee 32 33 03 02 03 01 20 00 fd 1c 00 00 87   a..23.... ......
0010  03 01 1e 00 00 ec 0e 10 00 a1 f2 a2 3d 7f 07 0f   ............=...
0020  3b 9b 8a 18 bf 4c 38 dc 38 12 12 c1 39 a6 f4 82   ;....L8.8...9...
0030  3b 40 d3 fd 1c 00 00 88 03 01 21 00 00 ed 0e 10   ;@........!.....
0040  00 00 00 00 00 00 00 00 00 5e 01 00 00 66 01 00   .........^...f..
0050  00 00 00 00 00 00 00 4a 7f d1 be 45 0b            .......J...E.

No.     Time           Source                Destination           Protocol Length Info
    239 9.761942                                                   IEEE 802.15.4 5      Ack

Frame 239: 5 bytes on wire (40 bits), 5 bytes captured (40 bits)
    Encapsulation type: IEEE 802.15.4 Wireless PAN (104)
    Arrival Time: Mar  3, 2023 16:19:05.813405000 CST
    [Time shift for this packet: 0.000000000 seconds]
    Epoch Time: 1677881945.813405000 seconds
    [Time delta from previous captured frame: 0.000330000 seconds]
    [Time delta from previous displayed frame: 0.000330000 seconds]
    [Time since reference or first frame: 9.761942000 seconds]
    Frame Number: 239
    Frame Length: 5 bytes (40 bits)
    Capture Length: 5 bytes (40 bits)
    [Frame is marked: False]
    [Frame is ignored: False]
    [Protocols in frame: wpan]
IEEE 802.15.4 Ack, Sequence Number: 238
    Frame Control Field: 0x0002, Frame Type: Ack, Destination Addressing Mode: None, Frame Version: IEEE Std 802.15.4-2003, Source Addressing Mode: None
        .... .... .... .010 = Frame Type: Ack (0x2)
        .... .... .... 0... = Security Enabled: False
        .... .... ...0 .... = Frame Pending: False
        .... .... ..0. .... = Acknowledge Request: False
        .... .... .0.. .... = PAN ID Compression: False
        .... .... 0... .... = Reserved: False
        .... ...0 .... .... = Sequence Number Suppression: False
        .... ..0. .... .... = Information Elements Present: False
        .... 00.. .... .... = Destination Addressing Mode: None (0x0)
        ..00 .... .... .... = Frame Version: IEEE Std 802.15.4-2003 (0)
        00.. .... .... .... = Source Addressing Mode: None (0x0)
    Sequence Number: 238
    FCS: 0xbbc8 (Correct)
    [Ack To: 238]
    [Ack Time: 0.330 ms]

0000  02 00 ee c8 bb                                    .....

No.     Time           Source                Destination           Protocol Length Info
    240 9.822410       0x0203                0x0103                IEEE 802.15.4 34     Data, Dst: 0x0103, Src: 0x0203

Frame 240: 34 bytes on wire (272 bits), 34 bytes captured (272 bits)
    Encapsulation type: IEEE 802.15.4 Wireless PAN (104)
    Arrival Time: Mar  3, 2023 16:19:05.873873000 CST
    [Time shift for this packet: 0.000000000 seconds]
    Epoch Time: 1677881945.873873000 seconds
    [Time delta from previous captured frame: 0.060468000 seconds]
    [Time delta from previous displayed frame: 0.060468000 seconds]
    [Time since reference or first frame: 9.822410000 seconds]
    Frame Number: 240
    Frame Length: 34 bytes (272 bits)
    Capture Length: 34 bytes (272 bits)
    [Frame is marked: False]
    [Frame is ignored: False]
    [Protocols in frame: wpan:data]
IEEE 802.15.4 Data, Dst: 0x0103, Src: 0x0203
    Frame Control Field: 0x8861, Frame Type: Data, Acknowledge Request, PAN ID Compression, Destination Addressing Mode: Short/16-bit, Frame Version: IEEE Std 802.15.4-2003, Source Addressing Mode: Short/16-bit
        .... .... .... .001 = Frame Type: Data (0x1)
        .... .... .... 0... = Security Enabled: False
        .... .... ...0 .... = Frame Pending: False
        .... .... ..1. .... = Acknowledge Request: True
        .... .... .1.. .... = PAN ID Compression: True
        .... .... 0... .... = Reserved: False
        .... ...0 .... .... = Sequence Number Suppression: False
        .... ..0. .... .... = Information Elements Present: False
        .... 10.. .... .... = Destination Addressing Mode: Short/16-bit (0x2)
        ..00 .... .... .... = Frame Version: IEEE Std 802.15.4-2003 (0)
        10.. .... .... .... = Source Addressing Mode: Short/16-bit (0x2)
    Sequence Number: 218
    Destination PAN: 0x3332
    Destination: 0x0103
    Source: 0x0203
    FCS: 0x386b (Correct)
    [Ack In: 241]
Data (23 bytes)
    Data: 0e00fd0900000affbe000000000000000608c004031137
    [Length: 23]

0000  61 88 da 32 33 03 01 03 02 0e 00 fd 09 00 00 0a   a..23...........
0010  ff be 00 00 00 00 00 00 00 06 08 c0 04 03 11 37   ...............7
0020  6b 38                                             k8

No.     Time           Source                Destination           Protocol Length Info
    241 9.822931                                                   IEEE 802.15.4 5      Ack

Frame 241: 5 bytes on wire (40 bits), 5 bytes captured (40 bits)
    Encapsulation type: IEEE 802.15.4 Wireless PAN (104)
    Arrival Time: Mar  3, 2023 16:19:05.874394000 CST
    [Time shift for this packet: 0.000000000 seconds]
    Epoch Time: 1677881945.874394000 seconds
    [Time delta from previous captured frame: 0.000521000 seconds]
    [Time delta from previous displayed frame: 0.000521000 seconds]
    [Time since reference or first frame: 9.822931000 seconds]
    Frame Number: 241
    Frame Length: 5 bytes (40 bits)
    Capture Length: 5 bytes (40 bits)
    [Frame is marked: False]
    [Frame is ignored: False]
    [Protocols in frame: wpan]
IEEE 802.15.4 Ack, Sequence Number: 218
    Frame Control Field: 0x0002, Frame Type: Ack, Destination Addressing Mode: None, Frame Version: IEEE Std 802.15.4-2003, Source Addressing Mode: None
        .... .... .... .010 = Frame Type: Ack (0x2)
        .... .... .... 0... = Security Enabled: False
        .... .... ...0 .... = Frame Pending: False
        .... .... ..0. .... = Acknowledge Request: False
        .... .... .0.. .... = PAN ID Compression: False
        .... .... 0... .... = Reserved: False
        .... ...0 .... .... = Sequence Number Suppression: False
        .... ..0. .... .... = Information Elements Present: False
        .... 00.. .... .... = Destination Addressing Mode: None (0x0)
        ..00 .... .... .... = Frame Version: IEEE Std 802.15.4-2003 (0)
        00.. .... .... .... = Source Addressing Mode: None (0x0)
    Sequence Number: 218
    FCS: 0xcc6f (Correct)
    [Ack To: 240]
    [Ack Time: 0.521 ms]

0000  02 00 da 6f cc                                    ...o.

No.     Time           Source                Destination           Protocol Length Info
    242 9.875775       0x0103                0x0203                IEEE 802.15.4 53     Data, Dst: 0x0203, Src: 0x0103

Frame 242: 53 bytes on wire (424 bits), 53 bytes captured (424 bits)
    Encapsulation type: IEEE 802.15.4 Wireless PAN (104)
    Arrival Time: Mar  3, 2023 16:19:05.927238000 CST
    [Time shift for this packet: 0.000000000 seconds]
    Epoch Time: 1677881945.927238000 seconds
    [Time delta from previous captured frame: 0.052844000 seconds]
    [Time delta from previous displayed frame: 0.052844000 seconds]
    [Time since reference or first frame: 9.875775000 seconds]
    Frame Number: 242
    Frame Length: 53 bytes (424 bits)
    Capture Length: 53 bytes (424 bits)
    [Frame is marked: False]
    [Frame is ignored: False]
    [Protocols in frame: wpan:data]
IEEE 802.15.4 Data, Dst: 0x0203, Src: 0x0103
    Frame Control Field: 0x8861, Frame Type: Data, Acknowledge Request, PAN ID Compression, Destination Addressing Mode: Short/16-bit, Frame Version: IEEE Std 802.15.4-2003, Source Addressing Mode: Short/16-bit
        .... .... .... .001 = Frame Type: Data (0x1)
        .... .... .... 0... = Security Enabled: False
        .... .... ...0 .... = Frame Pending: False
        .... .... ..1. .... = Acknowledge Request: True
        .... .... .1.. .... = PAN ID Compression: True
        .... .... 0... .... = Reserved: False
        .... ...0 .... .... = Sequence Number Suppression: False
        .... ..0. .... .... = Information Elements Present: False
        .... 10.. .... .... = Destination Addressing Mode: Short/16-bit (0x2)
        ..00 .... .... .... = Frame Version: IEEE Std 802.15.4-2003 (0)
        10.. .... .... .... = Source Addressing Mode: Short/16-bit (0x2)
    Sequence Number: 239
    Destination PAN: 0x3332
    Destination: 0x0203
    Source: 0x0103
    FCS: 0xc09e (Correct)
    [Ack In: 243]
Data (42 bytes)
    Data: 2100fd1c0000890301210000670f10000000000000000000
    [Length: 42]

0000  61 88 ef 32 33 03 02 03 01 21 00 fd 1c 00 00 89   a..23....!......
0010  03 01 21 00 00 67 0f 10 00 00 00 00 00 00 00 00   ..!..g..........
0020  00 ae 01 00 00 b3 01 00 00 00 00 00 00 00 00 4a   ...............J
0030  7f e0 80 9e c0                                    .....

No.     Time           Source                Destination           Protocol Length Info
    243 9.876287                                                   IEEE 802.15.4 5      Ack

Frame 243: 5 bytes on wire (40 bits), 5 bytes captured (40 bits)
    Encapsulation type: IEEE 802.15.4 Wireless PAN (104)
    Arrival Time: Mar  3, 2023 16:19:05.927750000 CST
    [Time shift for this packet: 0.000000000 seconds]
    Epoch Time: 1677881945.927750000 seconds
    [Time delta from previous captured frame: 0.000512000 seconds]
    [Time delta from previous displayed frame: 0.000512000 seconds]
    [Time since reference or first frame: 9.876287000 seconds]
    Frame Number: 243
    Frame Length: 5 bytes (40 bits)
    Capture Length: 5 bytes (40 bits)
    [Frame is marked: False]
    [Frame is ignored: False]
    [Protocols in frame: wpan]
IEEE 802.15.4 Ack, Sequence Number: 239
    Frame Control Field: 0x0002, Frame Type: Ack, Destination Addressing Mode: None, Frame Version: IEEE Std 802.15.4-2003, Source Addressing Mode: None
        .... .... .... .010 = Frame Type: Ack (0x2)
        .... .... .... 0... = Security Enabled: False
        .... .... ...0 .... = Frame Pending: False
        .... .... ..0. .... = Acknowledge Request: False
        .... .... .0.. .... = PAN ID Compression: False
        .... .... 0... .... = Reserved: False
        .... ...0 .... .... = Sequence Number Suppression: False
        .... ..0. .... .... = Information Elements Present: False
        .... 00.. .... .... = Destination Addressing Mode: None (0x0)
        ..00 .... .... .... = Frame Version: IEEE Std 802.15.4-2003 (0)
        00.. .... .... .... = Source Addressing Mode: None (0x0)
    Sequence Number: 239
    FCS: 0xaa41 (Correct)
    [Ack To: 242]
    [Ack Time: 0.512 ms]

0000  02 00 ef 41 aa                                    ...A.

No.     Time           Source                Destination           Protocol Length Info
    244 10.002821      0x0103                0x0203                IEEE 802.15.4 53     Data, Dst: 0x0203, Src: 0x0103

Frame 244: 53 bytes on wire (424 bits), 53 bytes captured (424 bits)
    Encapsulation type: IEEE 802.15.4 Wireless PAN (104)
    Arrival Time: Mar  3, 2023 16:19:06.054284000 CST
    [Time shift for this packet: 0.000000000 seconds]
    Epoch Time: 1677881946.054284000 seconds
    [Time delta from previous captured frame: 0.126534000 seconds]
    [Time delta from previous displayed frame: 0.126534000 seconds]
    [Time since reference or first frame: 10.002821000 seconds]
    Frame Number: 244
    Frame Length: 53 bytes (424 bits)
    Capture Length: 53 bytes (424 bits)
    [Frame is marked: False]
    [Frame is ignored: False]
    [Protocols in frame: wpan:data]
IEEE 802.15.4 Data, Dst: 0x0203, Src: 0x0103
    Frame Control Field: 0x8861, Frame Type: Data, Acknowledge Request, PAN ID Compression, Destination Addressing Mode: Short/16-bit, Frame Version: IEEE Std 802.15.4-2003, Source Addressing Mode: Short/16-bit
        .... .... .... .001 = Frame Type: Data (0x1)
        .... .... .... 0... = Security Enabled: False
        .... .... ...0 .... = Frame Pending: False
        .... .... ..1. .... = Acknowledge Request: True
        .... .... .1.. .... = PAN ID Compression: True
        .... .... 0... .... = Reserved: False
        .... ...0 .... .... = Sequence Number Suppression: False
        .... ..0. .... .... = Information Elements Present: False
        .... 10.. .... .... = Destination Addressing Mode: Short/16-bit (0x2)
        ..00 .... .... .... = Frame Version: IEEE Std 802.15.4-2003 (0)
        10.. .... .... .... = Source Addressing Mode: Short/16-bit (0x2)
    Sequence Number: 240
    Destination PAN: 0x3332
    Destination: 0x0203
    Source: 0x0103
    FCS: 0xb878 (Correct)
    [Ack In: 245]
Data (42 bytes)
    Data: 2200fd1c00008a0301210000e60f10000000000000000000
    [Length: 42]

0000  61 88 f0 32 33 03 02 03 01 22 00 fd 1c 00 00 8a   a..23...."......
0010  03 01 21 00 00 e6 0f 10 00 00 00 00 00 00 00 00   ..!.............
0020  00 a4 01 00 00 aa 01 00 00 00 00 00 00 00 00 49   ...............I
0030  7f 82 34 78 b8                                    ..4x.

No.     Time           Source                Destination           Protocol Length Info
    245 10.003336                                                  IEEE 802.15.4 5      Ack

Frame 245: 5 bytes on wire (40 bits), 5 bytes captured (40 bits)
    Encapsulation type: IEEE 802.15.4 Wireless PAN (104)
    Arrival Time: Mar  3, 2023 16:19:06.054799000 CST
    [Time shift for this packet: 0.000000000 seconds]
    Epoch Time: 1677881946.054799000 seconds
    [Time delta from previous captured frame: 0.000515000 seconds]
    [Time delta from previous displayed frame: 0.000515000 seconds]
    [Time since reference or first frame: 10.003336000 seconds]
    Frame Number: 245
    Frame Length: 5 bytes (40 bits)
    Capture Length: 5 bytes (40 bits)
    [Frame is marked: False]
    [Frame is ignored: False]
    [Protocols in frame: wpan]
IEEE 802.15.4 Ack, Sequence Number: 240
    Frame Control Field: 0x0002, Frame Type: Ack, Destination Addressing Mode: None, Frame Version: IEEE Std 802.15.4-2003, Source Addressing Mode: None
        .... .... .... .010 = Frame Type: Ack (0x2)
        .... .... .... 0... = Security Enabled: False
        .... .... ...0 .... = Frame Pending: False
        .... .... ..0. .... = Acknowledge Request: False
        .... .... .0.. .... = PAN ID Compression: False
        .... .... 0... .... = Reserved: False
        .... ...0 .... .... = Sequence Number Suppression: False
        .... ..0. .... .... = Information Elements Present: False
        .... 00.. .... .... = Destination Addressing Mode: None (0x0)
        ..00 .... .... .... = Frame Version: IEEE Std 802.15.4-2003 (0)
        00.. .... .... .... = Source Addressing Mode: None (0x0)
    Sequence Number: 240
    FCS: 0x4237 (Correct)
    [Ack To: 244]
    [Ack Time: 0.515 ms]

0000  02 00 f0 37 42                                    ...7B

No.     Time           Source                Destination           Protocol Length Info
    246 10.079051      0x0103                0x0203                IEEE 802.15.4 59     Data, Dst: 0x0203, Src: 0x0103

Frame 246: 59 bytes on wire (472 bits), 59 bytes captured (472 bits)
    Encapsulation type: IEEE 802.15.4 Wireless PAN (104)
    Arrival Time: Mar  3, 2023 16:19:06.130514000 CST
    [Time shift for this packet: 0.000000000 seconds]
    Epoch Time: 1677881946.130514000 seconds
    [Time delta from previous captured frame: 0.075715000 seconds]
    [Time delta from previous displayed frame: 0.075715000 seconds]
    [Time since reference or first frame: 10.079051000 seconds]
    Frame Number: 246
    Frame Length: 59 bytes (472 bits)
    Capture Length: 59 bytes (472 bits)
    [Frame is marked: False]
    [Frame is ignored: False]
    [Protocols in frame: wpan:data]
IEEE 802.15.4 Data, Dst: 0x0203, Src: 0x0103
    Frame Control Field: 0x8861, Frame Type: Data, Acknowledge Request, PAN ID Compression, Destination Addressing Mode: Short/16-bit, Frame Version: IEEE Std 802.15.4-2003, Source Addressing Mode: Short/16-bit
        .... .... .... .001 = Frame Type: Data (0x1)
        .... .... .... 0... = Security Enabled: False
        .... .... ...0 .... = Frame Pending: False
        .... .... ..1. .... = Acknowledge Request: True
        .... .... .1.. .... = PAN ID Compression: True
        .... .... 0... .... = Reserved: False
        .... ...0 .... .... = Sequence Number Suppression: False
        .... ..0. .... .... = Information Elements Present: False
        .... 10.. .... .... = Destination Addressing Mode: Short/16-bit (0x2)
        ..00 .... .... .... = Frame Version: IEEE Std 802.15.4-2003 (0)
        10.. .... .... .... = Source Addressing Mode: Short/16-bit (0x2)
    Sequence Number: 241
    Destination PAN: 0x3332
    Destination: 0x0203
    Source: 0x0103
    FCS: 0xbd31 (Correct)
    [Ack In: 247]
Data (48 bytes)
    Data: 2300fd2200008b0301fd000006454b463220494d55312074
    [Length: 48]

0000  61 88 f1 32 33 03 02 03 01 23 00 fd 22 00 00 8b   a..23....#.."...
0010  03 01 fd 00 00 06 45 4b 46 32 20 49 4d 55 31 20   ......EKF2 IMU1 
0020  74 69 6c 74 20 61 6c 69 67 6e 6d 65 6e 74 20 63   tilt alignment c
0030  6f 6d 70 6c 65 74 65 8d b1 31 bd                  omplete..1.

No.     Time           Source                Destination           Protocol Length Info
    247 10.079558                                                  IEEE 802.15.4 5      Ack

Frame 247: 5 bytes on wire (40 bits), 5 bytes captured (40 bits)
    Encapsulation type: IEEE 802.15.4 Wireless PAN (104)
    Arrival Time: Mar  3, 2023 16:19:06.131021000 CST
    [Time shift for this packet: 0.000000000 seconds]
    Epoch Time: 1677881946.131021000 seconds
    [Time delta from previous captured frame: 0.000507000 seconds]
    [Time delta from previous displayed frame: 0.000507000 seconds]
    [Time since reference or first frame: 10.079558000 seconds]
    Frame Number: 247
    Frame Length: 5 bytes (40 bits)
    Capture Length: 5 bytes (40 bits)
    [Frame is marked: False]
    [Frame is ignored: False]
    [Protocols in frame: wpan]
IEEE 802.15.4 Ack, Sequence Number: 241
    Frame Control Field: 0x0002, Frame Type: Ack, Destination Addressing Mode: None, Frame Version: IEEE Std 802.15.4-2003, Source Addressing Mode: None
        .... .... .... .010 = Frame Type: Ack (0x2)
        .... .... .... 0... = Security Enabled: False
        .... .... ...0 .... = Frame Pending: False
        .... .... ..0. .... = Acknowledge Request: False
        .... .... .0.. .... = PAN ID Compression: False
        .... .... 0... .... = Reserved: False
        .... ...0 .... .... = Sequence Number Suppression: False
        .... ..0. .... .... = Information Elements Present: False
        .... 00.. .... .... = Destination Addressing Mode: None (0x0)
        ..00 .... .... .... = Frame Version: IEEE Std 802.15.4-2003 (0)
        00.. .... .... .... = Source Addressing Mode: None (0x0)
    Sequence Number: 241
    FCS: 0x53be (Correct)
    [Ack To: 246]
    [Ack Time: 0.507 ms]

0000  02 00 f1 be 53                                    ....S

No.     Time           Source                Destination           Protocol Length Info
    248 10.125555      0x0103                0x0203                IEEE 802.15.4 53     Data, Dst: 0x0203, Src: 0x0103

Frame 248: 53 bytes on wire (424 bits), 53 bytes captured (424 bits)
    Encapsulation type: IEEE 802.15.4 Wireless PAN (104)
    Arrival Time: Mar  3, 2023 16:19:06.177018000 CST
    [Time shift for this packet: 0.000000000 seconds]
    Epoch Time: 1677881946.177018000 seconds
    [Time delta from previous captured frame: 0.045997000 seconds]
    [Time delta from previous displayed frame: 0.045997000 seconds]
    [Time since reference or first frame: 10.125555000 seconds]
    Frame Number: 248
    Frame Length: 53 bytes (424 bits)
    Capture Length: 53 bytes (424 bits)
    [Frame is marked: False]
    [Frame is ignored: False]
    [Protocols in frame: wpan:data]
IEEE 802.15.4 Data, Dst: 0x0203, Src: 0x0103
    Frame Control Field: 0x8861, Frame Type: Data, Acknowledge Request, PAN ID Compression, Destination Addressing Mode: Short/16-bit, Frame Version: IEEE Std 802.15.4-2003, Source Addressing Mode: Short/16-bit
        .... .... .... .001 = Frame Type: Data (0x1)
        .... .... .... 0... = Security Enabled: False
        .... .... ...0 .... = Frame Pending: False
        .... .... ..1. .... = Acknowledge Request: True
        .... .... .1.. .... = PAN ID Compression: True
        .... .... 0... .... = Reserved: False
        .... ...0 .... .... = Sequence Number Suppression: False
        .... ..0. .... .... = Information Elements Present: False
        .... 10.. .... .... = Destination Addressing Mode: Short/16-bit (0x2)
        ..00 .... .... .... = Frame Version: IEEE Std 802.15.4-2003 (0)
        10.. .... .... .... = Source Addressing Mode: Short/16-bit (0x2)
    Sequence Number: 242
    Destination PAN: 0x3332
    Destination: 0x0203
    Source: 0x0103
    FCS: 0x1322 (Correct)
    [Ack In: 249]
Data (42 bytes)
    Data: 2400fd1c00008c0301210000611010000000000000000000
    [Length: 42]

0000  61 88 f2 32 33 03 02 03 01 24 00 fd 1c 00 00 8c   a..23....$......
0010  03 01 21 00 00 61 10 10 00 00 00 00 00 00 00 00   ..!..a..........
0020  00 4a 01 00 00 53 01 00 00 01 00 00 00 00 00 49   .J...S.........I
0030  7f c3 83 22 13                                    ...".

No.     Time           Source                Destination           Protocol Length Info
    249 10.126032                                                  IEEE 802.15.4 5      Ack

Frame 249: 5 bytes on wire (40 bits), 5 bytes captured (40 bits)
    Encapsulation type: IEEE 802.15.4 Wireless PAN (104)
    Arrival Time: Mar  3, 2023 16:19:06.177495000 CST
    [Time shift for this packet: 0.000000000 seconds]
    Epoch Time: 1677881946.177495000 seconds
    [Time delta from previous captured frame: 0.000477000 seconds]
    [Time delta from previous displayed frame: 0.000477000 seconds]
    [Time since reference or first frame: 10.126032000 seconds]
    Frame Number: 249
    Frame Length: 5 bytes (40 bits)
    Capture Length: 5 bytes (40 bits)
    [Frame is marked: False]
    [Frame is ignored: False]
    [Protocols in frame: wpan]
IEEE 802.15.4 Ack, Sequence Number: 242
    Frame Control Field: 0x0002, Frame Type: Ack, Destination Addressing Mode: None, Frame Version: IEEE Std 802.15.4-2003, Source Addressing Mode: None
        .... .... .... .010 = Frame Type: Ack (0x2)
        .... .... .... 0... = Security Enabled: False
        .... .... ...0 .... = Frame Pending: False
        .... .... ..0. .... = Acknowledge Request: False
        .... .... .0.. .... = PAN ID Compression: False
        .... .... 0... .... = Reserved: False
        .... ...0 .... .... = Sequence Number Suppression: False
        .... ..0. .... .... = Information Elements Present: False
        .... 00.. .... .... = Destination Addressing Mode: None (0x0)
        ..00 .... .... .... = Frame Version: IEEE Std 802.15.4-2003 (0)
        00.. .... .... .... = Source Addressing Mode: None (0x0)
    Sequence Number: 242
    FCS: 0x6125 (Correct)
    [Ack To: 248]
    [Ack Time: 0.477 ms]

0000  02 00 f2 25 61                                    ...%a

No.     Time           Source                Destination           Protocol Length Info
    250 10.253297      0x0103                0x0203                IEEE 802.15.4 77     Data, Dst: 0x0203, Src: 0x0103

Frame 250: 77 bytes on wire (616 bits), 77 bytes captured (616 bits)
    Encapsulation type: IEEE 802.15.4 Wireless PAN (104)
    Arrival Time: Mar  3, 2023 16:19:06.304760000 CST
    [Time shift for this packet: 0.000000000 seconds]
    Epoch Time: 1677881946.304760000 seconds
    [Time delta from previous captured frame: 0.127265000 seconds]
    [Time delta from previous displayed frame: 0.127265000 seconds]
    [Time since reference or first frame: 10.253297000 seconds]
    Frame Number: 250
    Frame Length: 77 bytes (616 bits)
    Capture Length: 77 bytes (616 bits)
    [Frame is marked: False]
    [Frame is ignored: False]
    [Protocols in frame: wpan:data]
IEEE 802.15.4 Data, Dst: 0x0203, Src: 0x0103
    Frame Control Field: 0x8861, Frame Type: Data, Acknowledge Request, PAN ID Compression, Destination Addressing Mode: Short/16-bit, Frame Version: IEEE Std 802.15.4-2003, Source Addressing Mode: Short/16-bit
        .... .... .... .001 = Frame Type: Data (0x1)
        .... .... .... 0... = Security Enabled: False
        .... .... ...0 .... = Frame Pending: False
        .... .... ..1. .... = Acknowledge Request: True
        .... .... .1.. .... = PAN ID Compression: True
        .... .... 0... .... = Reserved: False
        .... ...0 .... .... = Sequence Number Suppression: False
        .... ..0. .... .... = Information Elements Present: False
        .... 10.. .... .... = Destination Addressing Mode: Short/16-bit (0x2)
        ..00 .... .... .... = Frame Version: IEEE Std 802.15.4-2003 (0)
        10.. .... .... .... = Source Addressing Mode: Short/16-bit (0x2)
    Sequence Number: 243
    Destination PAN: 0x3332
    Destination: 0x0203
    Source: 0x0103
    FCS: 0xf4e4 (Correct)
    [Ack In: 251]
Data (66 bytes)
    Data: 2500fd1f00008d03010100000ffc60130f1c60100f9c5001
    [Length: 66]

0000  61 88 f3 32 33 03 02 03 01 25 00 fd 1f 00 00 8d   a..23....%......
0010  03 01 01 00 00 0f fc 60 13 0f 1c 60 10 0f 9c 50   .......`...`...P
0020  01 fa 01 00 00 ff ff 00 00 00 00 00 00 00 00 00   ................
0030  00 00 00 ff 4e 8a fd 16 00 00 8e 03 01 c1 00 00   ....N...........
0040  00 00 00 00 28 c3 05 3b 67 30 63 e4 f4            ....(..;g0c..

No.     Time           Source                Destination           Protocol Length Info
    251 10.253802                                                  IEEE 802.15.4 5      Ack

Frame 251: 5 bytes on wire (40 bits), 5 bytes captured (40 bits)
    Encapsulation type: IEEE 802.15.4 Wireless PAN (104)
    Arrival Time: Mar  3, 2023 16:19:06.305265000 CST
    [Time shift for this packet: 0.000000000 seconds]
    Epoch Time: 1677881946.305265000 seconds
    [Time delta from previous captured frame: 0.000505000 seconds]
    [Time delta from previous displayed frame: 0.000505000 seconds]
    [Time since reference or first frame: 10.253802000 seconds]
    Frame Number: 251
    Frame Length: 5 bytes (40 bits)
    Capture Length: 5 bytes (40 bits)
    [Frame is marked: False]
    [Frame is ignored: False]
    [Protocols in frame: wpan]
IEEE 802.15.4 Ack, Sequence Number: 243
    Frame Control Field: 0x0002, Frame Type: Ack, Destination Addressing Mode: None, Frame Version: IEEE Std 802.15.4-2003, Source Addressing Mode: None
        .... .... .... .010 = Frame Type: Ack (0x2)
        .... .... .... 0... = Security Enabled: False
        .... .... ...0 .... = Frame Pending: False
        .... .... ..0. .... = Acknowledge Request: False
        .... .... .0.. .... = PAN ID Compression: False
        .... .... 0... .... = Reserved: False
        .... ...0 .... .... = Sequence Number Suppression: False
        .... ..0. .... .... = Information Elements Present: False
        .... 00.. .... .... = Destination Addressing Mode: None (0x0)
        ..00 .... .... .... = Frame Version: IEEE Std 802.15.4-2003 (0)
        00.. .... .... .... = Source Addressing Mode: None (0x0)
    Sequence Number: 243
    FCS: 0x70ac (Correct)
    [Ack To: 250]
    [Ack Time: 0.505 ms]

0000  02 00 f3 ac 70                                    ....p

No.     Time           Source                Destination           Protocol Length Info
    252 10.265639      0x0103                0x0203                IEEE 802.15.4 77     Data, Dst: 0x0203, Src: 0x0103

Frame 252: 77 bytes on wire (616 bits), 77 bytes captured (616 bits)
    Encapsulation type: IEEE 802.15.4 Wireless PAN (104)
    Arrival Time: Mar  3, 2023 16:19:06.317102000 CST
    [Time shift for this packet: 0.000000000 seconds]
    Epoch Time: 1677881946.317102000 seconds
    [Time delta from previous captured frame: 0.011837000 seconds]
    [Time delta from previous displayed frame: 0.011837000 seconds]
    [Time since reference or first frame: 10.265639000 seconds]
    Frame Number: 252
    Frame Length: 77 bytes (616 bits)
    Capture Length: 77 bytes (616 bits)
    [Frame is marked: False]
    [Frame is ignored: False]
    [Protocols in frame: wpan:data]
IEEE 802.15.4 Data, Dst: 0x0203, Src: 0x0103
    Frame Control Field: 0x8861, Frame Type: Data, Acknowledge Request, PAN ID Compression, Destination Addressing Mode: Short/16-bit, Frame Version: IEEE Std 802.15.4-2003, Source Addressing Mode: Short/16-bit
        .... .... .... .001 = Frame Type: Data (0x1)
        .... .... .... 0... = Security Enabled: False
        .... .... ...0 .... = Frame Pending: False
        .... .... ..1. .... = Acknowledge Request: True
        .... .... .1.. .... = PAN ID Compression: True
        .... .... 0... .... = Reserved: False
        .... ...0 .... .... = Sequence Number Suppression: False
        .... ..0. .... .... = Information Elements Present: False
        .... 10.. .... .... = Destination Addressing Mode: Short/16-bit (0x2)
        ..00 .... .... .... = Frame Version: IEEE Std 802.15.4-2003 (0)
        10.. .... .... .... = Source Addressing Mode: Short/16-bit (0x2)
    Sequence Number: 244
    Destination PAN: 0x3332
    Destination: 0x0203
    Source: 0x0103
    FCS: 0xf226 (Correct)
    [Ack In: 253]
Data (66 bytes)
    Data: 26003b00f7f83d00000000a5013c42fd1c00008f03011e00
    [Length: 66]

0000  61 88 f4 32 33 03 02 03 01 26 00 3b 00 f7 f8 3d   a..23....&.;...=
0010  00 00 00 00 a5 01 3c 42 fd 1c 00 00 8f 03 01 1e   ......<B........
0020  00 00 dc 10 10 00 54 e9 a2 3d 7d a2 07 3b e2 a7   ......T..=}..;..
0030  18 bf 11 31 a9 39 d4 a6 90 3a 18 b5 95 3b 6a bb   ...1.9...:...;j.
0040  fd 1c 00 00 90 03 01 21 00 00 dc 26 f2            .......!...&.

No.     Time           Source                Destination           Protocol Length Info
    253 10.266151                                                  IEEE 802.15.4 5      Ack

Frame 253: 5 bytes on wire (40 bits), 5 bytes captured (40 bits)
    Encapsulation type: IEEE 802.15.4 Wireless PAN (104)
    Arrival Time: Mar  3, 2023 16:19:06.317614000 CST
    [Time shift for this packet: 0.000000000 seconds]
    Epoch Time: 1677881946.317614000 seconds
    [Time delta from previous captured frame: 0.000512000 seconds]
    [Time delta from previous displayed frame: 0.000512000 seconds]
    [Time since reference or first frame: 10.266151000 seconds]
    Frame Number: 253
    Frame Length: 5 bytes (40 bits)
    Capture Length: 5 bytes (40 bits)
    [Frame is marked: False]
    [Frame is ignored: False]
    [Protocols in frame: wpan]
IEEE 802.15.4 Ack, Sequence Number: 244
    Frame Control Field: 0x0002, Frame Type: Ack, Destination Addressing Mode: None, Frame Version: IEEE Std 802.15.4-2003, Source Addressing Mode: None
        .... .... .... .010 = Frame Type: Ack (0x2)
        .... .... .... 0... = Security Enabled: False
        .... .... ...0 .... = Frame Pending: False
        .... .... ..0. .... = Acknowledge Request: False
        .... .... .0.. .... = PAN ID Compression: False
        .... .... 0... .... = Reserved: False
        .... ...0 .... .... = Sequence Number Suppression: False
        .... ..0. .... .... = Information Elements Present: False
        .... 00.. .... .... = Destination Addressing Mode: None (0x0)
        ..00 .... .... .... = Frame Version: IEEE Std 802.15.4-2003 (0)
        00.. .... .... .... = Source Addressing Mode: None (0x0)
    Sequence Number: 244
    FCS: 0x0413 (Correct)
    [Ack To: 252]
    [Ack Time: 0.512 ms]

0000  02 00 f4 13 04                                    .....

No.     Time           Source                Destination           Protocol Length Info
    254 10.270138      0x0103                0x0203                IEEE 802.15.4 42     Data, Dst: 0x0203, Src: 0x0103

Frame 254: 42 bytes on wire (336 bits), 42 bytes captured (336 bits)
    Encapsulation type: IEEE 802.15.4 Wireless PAN (104)
    Arrival Time: Mar  3, 2023 16:19:06.321601000 CST
    [Time shift for this packet: 0.000000000 seconds]
    Epoch Time: 1677881946.321601000 seconds
    [Time delta from previous captured frame: 0.003987000 seconds]
    [Time delta from previous displayed frame: 0.003987000 seconds]
    [Time since reference or first frame: 10.270138000 seconds]
    Frame Number: 254
    Frame Length: 42 bytes (336 bits)
    Capture Length: 42 bytes (336 bits)
    [Frame is marked: False]
    [Frame is ignored: False]
    [Protocols in frame: wpan:data]
IEEE 802.15.4 Data, Dst: 0x0203, Src: 0x0103
    Frame Control Field: 0x8861, Frame Type: Data, Acknowledge Request, PAN ID Compression, Destination Addressing Mode: Short/16-bit, Frame Version: IEEE Std 802.15.4-2003, Source Addressing Mode: Short/16-bit
        .... .... .... .001 = Frame Type: Data (0x1)
        .... .... .... 0... = Security Enabled: False
        .... .... ...0 .... = Frame Pending: False
        .... .... ..1. .... = Acknowledge Request: True
        .... .... .1.. .... = PAN ID Compression: True
        .... .... 0... .... = Reserved: False
        .... ...0 .... .... = Sequence Number Suppression: False
        .... ..0. .... .... = Information Elements Present: False
        .... 10.. .... .... = Destination Addressing Mode: Short/16-bit (0x2)
        ..00 .... .... .... = Frame Version: IEEE Std 802.15.4-2003 (0)
        10.. .... .... .... = Source Addressing Mode: Short/16-bit (0x2)
    Sequence Number: 245
    Destination PAN: 0x3332
    Destination: 0x0203
    Source: 0x0103
    FCS: 0x92f1 (Correct)
    [Ack In: 255]
Data (31 bytes)
    Data: 27001010000000000000000000c8000000d1000000010000
    [Length: 31]

0000  61 88 f5 32 33 03 02 03 01 27 00 10 10 00 00 00   a..23....'......
0010  00 00 00 00 00 00 c8 00 00 00 d1 00 00 00 01 00   ................
0020  00 00 00 00 48 7f 1e 51 f1 92                     ....H..Q..

No.     Time           Source                Destination           Protocol Length Info
    255 10.270677                                                  IEEE 802.15.4 5      Ack

Frame 255: 5 bytes on wire (40 bits), 5 bytes captured (40 bits)
    Encapsulation type: IEEE 802.15.4 Wireless PAN (104)
    Arrival Time: Mar  3, 2023 16:19:06.322140000 CST
    [Time shift for this packet: 0.000000000 seconds]
    Epoch Time: 1677881946.322140000 seconds
    [Time delta from previous captured frame: 0.000539000 seconds]
    [Time delta from previous displayed frame: 0.000539000 seconds]
    [Time since reference or first frame: 10.270677000 seconds]
    Frame Number: 255
    Frame Length: 5 bytes (40 bits)
    Capture Length: 5 bytes (40 bits)
    [Frame is marked: False]
    [Frame is ignored: False]
    [Protocols in frame: wpan]
IEEE 802.15.4 Ack, Sequence Number: 245
    Frame Control Field: 0x0002, Frame Type: Ack, Destination Addressing Mode: None, Frame Version: IEEE Std 802.15.4-2003, Source Addressing Mode: None
        .... .... .... .010 = Frame Type: Ack (0x2)
        .... .... .... 0... = Security Enabled: False
        .... .... ...0 .... = Frame Pending: False
        .... .... ..0. .... = Acknowledge Request: False
        .... .... .0.. .... = PAN ID Compression: False
        .... .... 0... .... = Reserved: False
        .... ...0 .... .... = Sequence Number Suppression: False
        .... ..0. .... .... = Information Elements Present: False
        .... 00.. .... .... = Destination Addressing Mode: None (0x0)
        ..00 .... .... .... = Frame Version: IEEE Std 802.15.4-2003 (0)
        00.. .... .... .... = Source Addressing Mode: None (0x0)
    Sequence Number: 245
    FCS: 0x159a (Correct)
    [Ack To: 254]
    [Ack Time: 0.539 ms]

0000  02 00 f5 9a 15                                    .....

No.     Time           Source                Destination           Protocol Length Info
    256 10.318627      0x0103                0x0203                IEEE 802.15.4 34     Data, Dst: 0x0203, Src: 0x0103

Frame 256: 34 bytes on wire (272 bits), 34 bytes captured (272 bits)
    Encapsulation type: IEEE 802.15.4 Wireless PAN (104)
    Arrival Time: Mar  3, 2023 16:19:06.370090000 CST
    [Time shift for this packet: 0.000000000 seconds]
    Epoch Time: 1677881946.370090000 seconds
    [Time delta from previous captured frame: 0.047950000 seconds]
    [Time delta from previous displayed frame: 0.047950000 seconds]
    [Time since reference or first frame: 10.318627000 seconds]
    Frame Number: 256
    Frame Length: 34 bytes (272 bits)
    Capture Length: 34 bytes (272 bits)
    [Frame is marked: False]
    [Frame is ignored: False]
    [Protocols in frame: wpan:data]
IEEE 802.15.4 Data, Dst: 0x0203, Src: 0x0103
    Frame Control Field: 0x8861, Frame Type: Data, Acknowledge Request, PAN ID Compression, Destination Addressing Mode: Short/16-bit, Frame Version: IEEE Std 802.15.4-2003, Source Addressing Mode: Short/16-bit
        .... .... .... .001 = Frame Type: Data (0x1)
        .... .... .... 0... = Security Enabled: False
        .... .... ...0 .... = Frame Pending: False
        .... .... ..1. .... = Acknowledge Request: True
        .... .... .1.. .... = PAN ID Compression: True
        .... .... 0... .... = Reserved: False
        .... ...0 .... .... = Sequence Number Suppression: False
        .... ..0. .... .... = Information Elements Present: False
        .... 10.. .... .... = Destination Addressing Mode: Short/16-bit (0x2)
        ..00 .... .... .... = Frame Version: IEEE Std 802.15.4-2003 (0)
        10.. .... .... .... = Source Addressing Mode: Short/16-bit (0x2)
    Sequence Number: 246
    Destination PAN: 0x3332
    Destination: 0x0203
    Source: 0x0103
    FCS: 0x2c5b (Correct)
    [Ack In: 257]
Data (23 bytes)
    Data: 2800fd0900009103010000000000000002035103033b09
    [Length: 23]

0000  61 88 f6 32 33 03 02 03 01 28 00 fd 09 00 00 91   a..23....(......
0010  03 01 00 00 00 00 00 00 00 02 03 51 03 03 3b 09   ...........Q..;.
0020  5b 2c                                             [,

No.     Time           Source                Destination           Protocol Length Info
    257 10.319144                                                  IEEE 802.15.4 5      Ack

Frame 257: 5 bytes on wire (40 bits), 5 bytes captured (40 bits)
    Encapsulation type: IEEE 802.15.4 Wireless PAN (104)
    Arrival Time: Mar  3, 2023 16:19:06.370607000 CST
    [Time shift for this packet: 0.000000000 seconds]
    Epoch Time: 1677881946.370607000 seconds
    [Time delta from previous captured frame: 0.000517000 seconds]
    [Time delta from previous displayed frame: 0.000517000 seconds]
    [Time since reference or first frame: 10.319144000 seconds]
    Frame Number: 257
    Frame Length: 5 bytes (40 bits)
    Capture Length: 5 bytes (40 bits)
    [Frame is marked: False]
    [Frame is ignored: False]
    [Protocols in frame: wpan]
IEEE 802.15.4 Ack, Sequence Number: 246
    Frame Control Field: 0x0002, Frame Type: Ack, Destination Addressing Mode: None, Frame Version: IEEE Std 802.15.4-2003, Source Addressing Mode: None
        .... .... .... .010 = Frame Type: Ack (0x2)
        .... .... .... 0... = Security Enabled: False
        .... .... ...0 .... = Frame Pending: False
        .... .... ..0. .... = Acknowledge Request: False
        .... .... .0.. .... = PAN ID Compression: False
        .... .... 0... .... = Reserved: False
        .... ...0 .... .... = Sequence Number Suppression: False
        .... ..0. .... .... = Information Elements Present: False
        .... 00.. .... .... = Destination Addressing Mode: None (0x0)
        ..00 .... .... .... = Frame Version: IEEE Std 802.15.4-2003 (0)
        00.. .... .... .... = Source Addressing Mode: None (0x0)
    Sequence Number: 246
    FCS: 0x2701 (Correct)
    [Ack To: 256]
    [Ack Time: 0.517 ms]

0000  02 00 f6 01 27                                    ....'

No.     Time           Source                Destination           Protocol Length Info
    258 10.375795      0x0103                0x0203                IEEE 802.15.4 53     Data, Dst: 0x0203, Src: 0x0103

Frame 258: 53 bytes on wire (424 bits), 53 bytes captured (424 bits)
    Encapsulation type: IEEE 802.15.4 Wireless PAN (104)
    Arrival Time: Mar  3, 2023 16:19:06.427258000 CST
    [Time shift for this packet: 0.000000000 seconds]
    Epoch Time: 1677881946.427258000 seconds
    [Time delta from previous captured frame: 0.056651000 seconds]
    [Time delta from previous displayed frame: 0.056651000 seconds]
    [Time since reference or first frame: 10.375795000 seconds]
    Frame Number: 258
    Frame Length: 53 bytes (424 bits)
    Capture Length: 53 bytes (424 bits)
    [Frame is marked: False]
    [Frame is ignored: False]
    [Protocols in frame: wpan:data]
IEEE 802.15.4 Data, Dst: 0x0203, Src: 0x0103
    Frame Control Field: 0x8861, Frame Type: Data, Acknowledge Request, PAN ID Compression, Destination Addressing Mode: Short/16-bit, Frame Version: IEEE Std 802.15.4-2003, Source Addressing Mode: Short/16-bit
        .... .... .... .001 = Frame Type: Data (0x1)
        .... .... .... 0... = Security Enabled: False
        .... .... ...0 .... = Frame Pending: False
        .... .... ..1. .... = Acknowledge Request: True
        .... .... .1.. .... = PAN ID Compression: True
        .... .... 0... .... = Reserved: False
        .... ...0 .... .... = Sequence Number Suppression: False
        .... ..0. .... .... = Information Elements Present: False
        .... 10.. .... .... = Destination Addressing Mode: Short/16-bit (0x2)
        ..00 .... .... .... = Frame Version: IEEE Std 802.15.4-2003 (0)
        10.. .... .... .... = Source Addressing Mode: Short/16-bit (0x2)
    Sequence Number: 247
    Destination PAN: 0x3332
    Destination: 0x0203
    Source: 0x0103
    FCS: 0x15e0 (Correct)
    [Ack In: 259]
Data (42 bytes)
    Data: 2900fd1c00009203012100005b1110000000000000000000
    [Length: 42]

0000  61 88 f7 32 33 03 02 03 01 29 00 fd 1c 00 00 92   a..23....)......
0010  03 01 21 00 00 5b 11 10 00 00 00 00 00 00 00 00   ..!..[..........
0020  00 b8 01 00 00 c1 01 00 00 01 00 00 00 00 00 47   ...............G
0030  7f 3d 3c e0 15                                    .=<..

No.     Time           Source                Destination           Protocol Length Info
    259 10.376310                                                  IEEE 802.15.4 5      Ack

Frame 259: 5 bytes on wire (40 bits), 5 bytes captured (40 bits)
    Encapsulation type: IEEE 802.15.4 Wireless PAN (104)
    Arrival Time: Mar  3, 2023 16:19:06.427773000 CST
    [Time shift for this packet: 0.000000000 seconds]
    Epoch Time: 1677881946.427773000 seconds
    [Time delta from previous captured frame: 0.000515000 seconds]
    [Time delta from previous displayed frame: 0.000515000 seconds]
    [Time since reference or first frame: 10.376310000 seconds]
    Frame Number: 259
    Frame Length: 5 bytes (40 bits)
    Capture Length: 5 bytes (40 bits)
    [Frame is marked: False]
    [Frame is ignored: False]
    [Protocols in frame: wpan]
IEEE 802.15.4 Ack, Sequence Number: 247
    Frame Control Field: 0x0002, Frame Type: Ack, Destination Addressing Mode: None, Frame Version: IEEE Std 802.15.4-2003, Source Addressing Mode: None
        .... .... .... .010 = Frame Type: Ack (0x2)
        .... .... .... 0... = Security Enabled: False
        .... .... ...0 .... = Frame Pending: False
        .... .... ..0. .... = Acknowledge Request: False
        .... .... .0.. .... = PAN ID Compression: False
        .... .... 0... .... = Reserved: False
        .... ...0 .... .... = Sequence Number Suppression: False
        .... ..0. .... .... = Information Elements Present: False
        .... 00.. .... .... = Destination Addressing Mode: None (0x0)
        ..00 .... .... .... = Frame Version: IEEE Std 802.15.4-2003 (0)
        00.. .... .... .... = Source Addressing Mode: None (0x0)
    Sequence Number: 247
    FCS: 0x3688 (Correct)
    [Ack To: 258]
    [Ack Time: 0.515 ms]

0000  02 00 f7 88 36                                    ....6

No.     Time           Source                Destination           Protocol Length Info
    260 10.501216      0x0103                0x0203                IEEE 802.15.4 53     Data, Dst: 0x0203, Src: 0x0103

Frame 260: 53 bytes on wire (424 bits), 53 bytes captured (424 bits)
    Encapsulation type: IEEE 802.15.4 Wireless PAN (104)
    Arrival Time: Mar  3, 2023 16:19:06.552679000 CST
    [Time shift for this packet: 0.000000000 seconds]
    Epoch Time: 1677881946.552679000 seconds
    [Time delta from previous captured frame: 0.124906000 seconds]
    [Time delta from previous displayed frame: 0.124906000 seconds]
    [Time since reference or first frame: 10.501216000 seconds]
    Frame Number: 260
    Frame Length: 53 bytes (424 bits)
    Capture Length: 53 bytes (424 bits)
    [Frame is marked: False]
    [Frame is ignored: False]
    [Protocols in frame: wpan:data]
IEEE 802.15.4 Data, Dst: 0x0203, Src: 0x0103
    Frame Control Field: 0x8861, Frame Type: Data, Acknowledge Request, PAN ID Compression, Destination Addressing Mode: Short/16-bit, Frame Version: IEEE Std 802.15.4-2003, Source Addressing Mode: Short/16-bit
        .... .... .... .001 = Frame Type: Data (0x1)
        .... .... .... 0... = Security Enabled: False
        .... .... ...0 .... = Frame Pending: False
        .... .... ..1. .... = Acknowledge Request: True
        .... .... .1.. .... = PAN ID Compression: True
        .... .... 0... .... = Reserved: False
        .... ...0 .... .... = Sequence Number Suppression: False
        .... ..0. .... .... = Information Elements Present: False
        .... 10.. .... .... = Destination Addressing Mode: Short/16-bit (0x2)
        ..00 .... .... .... = Frame Version: IEEE Std 802.15.4-2003 (0)
        10.. .... .... .... = Source Addressing Mode: Short/16-bit (0x2)
    Sequence Number: 248
    Destination PAN: 0x3332
    Destination: 0x0203
    Source: 0x0103
    FCS: 0x637e (Correct)
    [Ack In: 261]
Data (42 bytes)
    Data: 2a00fd1c0000930301210000d91110000000000000000000
    [Length: 42]

0000  61 88 f8 32 33 03 02 03 01 2a 00 fd 1c 00 00 93   a..23....*......
0010  03 01 21 00 00 d9 11 10 00 00 00 00 00 00 00 00   ..!.............
0020  00 86 01 00 00 88 01 00 00 01 00 00 00 00 00 47   ...............G
0030  7f 95 1e 7e 63                                    ...~c

No.     Time           Source                Destination           Protocol Length Info
    261 10.501735                                                  IEEE 802.15.4 5      Ack

Frame 261: 5 bytes on wire (40 bits), 5 bytes captured (40 bits)
    Encapsulation type: IEEE 802.15.4 Wireless PAN (104)
    Arrival Time: Mar  3, 2023 16:19:06.553198000 CST
    [Time shift for this packet: 0.000000000 seconds]
    Epoch Time: 1677881946.553198000 seconds
    [Time delta from previous captured frame: 0.000519000 seconds]
    [Time delta from previous displayed frame: 0.000519000 seconds]
    [Time since reference or first frame: 10.501735000 seconds]
    Frame Number: 261
    Frame Length: 5 bytes (40 bits)
    Capture Length: 5 bytes (40 bits)
    [Frame is marked: False]
    [Frame is ignored: False]
    [Protocols in frame: wpan]
IEEE 802.15.4 Ack, Sequence Number: 248
    Frame Control Field: 0x0002, Frame Type: Ack, Destination Addressing Mode: None, Frame Version: IEEE Std 802.15.4-2003, Source Addressing Mode: None
        .... .... .... .010 = Frame Type: Ack (0x2)
        .... .... .... 0... = Security Enabled: False
        .... .... ...0 .... = Frame Pending: False
        .... .... ..0. .... = Acknowledge Request: False
        .... .... .0.. .... = PAN ID Compression: False
        .... .... 0... .... = Reserved: False
        .... ...0 .... .... = Sequence Number Suppression: False
        .... ..0. .... .... = Information Elements Present: False
        .... 00.. .... .... = Destination Addressing Mode: None (0x0)
        ..00 .... .... .... = Frame Version: IEEE Std 802.15.4-2003 (0)
        00.. .... .... .... = Source Addressing Mode: None (0x0)
    Sequence Number: 248
    FCS: 0xce7f (Correct)
    [Ack To: 260]
    [Ack Time: 0.519 ms]

0000  02 00 f8 7f ce                                    .....

No.     Time           Source                Destination           Protocol Length Info
    262 10.625359      0x0103                0x0203                IEEE 802.15.4 53     Data, Dst: 0x0203, Src: 0x0103

Frame 262: 53 bytes on wire (424 bits), 53 bytes captured (424 bits)
    Encapsulation type: IEEE 802.15.4 Wireless PAN (104)
    Arrival Time: Mar  3, 2023 16:19:06.676822000 CST
    [Time shift for this packet: 0.000000000 seconds]
    Epoch Time: 1677881946.676822000 seconds
    [Time delta from previous captured frame: 0.123624000 seconds]
    [Time delta from previous displayed frame: 0.123624000 seconds]
    [Time since reference or first frame: 10.625359000 seconds]
    Frame Number: 262
    Frame Length: 53 bytes (424 bits)
    Capture Length: 53 bytes (424 bits)
    [Frame is marked: False]
    [Frame is ignored: False]
    [Protocols in frame: wpan:data]
IEEE 802.15.4 Data, Dst: 0x0203, Src: 0x0103
    Frame Control Field: 0x8861, Frame Type: Data, Acknowledge Request, PAN ID Compression, Destination Addressing Mode: Short/16-bit, Frame Version: IEEE Std 802.15.4-2003, Source Addressing Mode: Short/16-bit
        .... .... .... .001 = Frame Type: Data (0x1)
        .... .... .... 0... = Security Enabled: False
        .... .... ...0 .... = Frame Pending: False
        .... .... ..1. .... = Acknowledge Request: True
        .... .... .1.. .... = PAN ID Compression: True
        .... .... 0... .... = Reserved: False
        .... ...0 .... .... = Sequence Number Suppression: False
        .... ..0. .... .... = Information Elements Present: False
        .... 10.. .... .... = Destination Addressing Mode: Short/16-bit (0x2)
        ..00 .... .... .... = Frame Version: IEEE Std 802.15.4-2003 (0)
        10.. .... .... .... = Source Addressing Mode: Short/16-bit (0x2)
    Sequence Number: 249
    Destination PAN: 0x3332
    Destination: 0x0203
    Source: 0x0103
    FCS: 0xf00a (Correct)
    [Ack In: 263]
Data (42 bytes)
    Data: 2b00fd1c0000940301210000551210000000000000000000
    [Length: 42]

0000  61 88 f9 32 33 03 02 03 01 2b 00 fd 1c 00 00 94   a..23....+......
0010  03 01 21 00 00 55 12 10 00 00 00 00 00 00 00 00   ..!..U..........
0020  00 fe 01 00 00 02 02 00 00 01 00 00 00 00 00 46   ...............F
0030  7f 73 8a 0a f0                                    .s...

No.     Time           Source                Destination           Protocol Length Info
    263 10.625900                                                  IEEE 802.15.4 5      Ack

Frame 263: 5 bytes on wire (40 bits), 5 bytes captured (40 bits)
    Encapsulation type: IEEE 802.15.4 Wireless PAN (104)
    Arrival Time: Mar  3, 2023 16:19:06.677363000 CST
    [Time shift for this packet: 0.000000000 seconds]
    Epoch Time: 1677881946.677363000 seconds
    [Time delta from previous captured frame: 0.000541000 seconds]
    [Time delta from previous displayed frame: 0.000541000 seconds]
    [Time since reference or first frame: 10.625900000 seconds]
    Frame Number: 263
    Frame Length: 5 bytes (40 bits)
    Capture Length: 5 bytes (40 bits)
    [Frame is marked: False]
    [Frame is ignored: False]
    [Protocols in frame: wpan]
IEEE 802.15.4 Ack, Sequence Number: 249
    Frame Control Field: 0x0002, Frame Type: Ack, Destination Addressing Mode: None, Frame Version: IEEE Std 802.15.4-2003, Source Addressing Mode: None
        .... .... .... .010 = Frame Type: Ack (0x2)
        .... .... .... 0... = Security Enabled: False
        .... .... ...0 .... = Frame Pending: False
        .... .... ..0. .... = Acknowledge Request: False
        .... .... .0.. .... = PAN ID Compression: False
        .... .... 0... .... = Reserved: False
        .... ...0 .... .... = Sequence Number Suppression: False
        .... ..0. .... .... = Information Elements Present: False
        .... 00.. .... .... = Destination Addressing Mode: None (0x0)
        ..00 .... .... .... = Frame Version: IEEE Std 802.15.4-2003 (0)
        00.. .... .... .... = Source Addressing Mode: None (0x0)
    Sequence Number: 249
    FCS: 0xdff6 (Correct)
    [Ack To: 262]
    [Ack Time: 0.541 ms]

0000  02 00 f9 f6 df                                    .....

No.     Time           Source                Destination           Protocol Length Info
    264 10.761301      0x0103                0x0203                IEEE 802.15.4 93     Data, Dst: 0x0203, Src: 0x0103

Frame 264: 93 bytes on wire (744 bits), 93 bytes captured (744 bits)
    Encapsulation type: IEEE 802.15.4 Wireless PAN (104)
    Arrival Time: Mar  3, 2023 16:19:06.812764000 CST
    [Time shift for this packet: 0.000000000 seconds]
    Epoch Time: 1677881946.812764000 seconds
    [Time delta from previous captured frame: 0.135401000 seconds]
    [Time delta from previous displayed frame: 0.135401000 seconds]
    [Time since reference or first frame: 10.761301000 seconds]
    Frame Number: 264
    Frame Length: 93 bytes (744 bits)
    Capture Length: 93 bytes (744 bits)
    [Frame is marked: False]
    [Frame is ignored: False]
    [Protocols in frame: wpan:data]
IEEE 802.15.4 Data, Dst: 0x0203, Src: 0x0103
    Frame Control Field: 0x8861, Frame Type: Data, Acknowledge Request, PAN ID Compression, Destination Addressing Mode: Short/16-bit, Frame Version: IEEE Std 802.15.4-2003, Source Addressing Mode: Short/16-bit
        .... .... .... .001 = Frame Type: Data (0x1)
        .... .... .... 0... = Security Enabled: False
        .... .... ...0 .... = Frame Pending: False
        .... .... ..1. .... = Acknowledge Request: True
        .... .... .1.. .... = PAN ID Compression: True
        .... .... 0... .... = Reserved: False
        .... ...0 .... .... = Sequence Number Suppression: False
        .... ..0. .... .... = Information Elements Present: False
        .... 10.. .... .... = Destination Addressing Mode: Short/16-bit (0x2)
        ..00 .... .... .... = Frame Version: IEEE Std 802.15.4-2003 (0)
        10.. .... .... .... = Source Addressing Mode: Short/16-bit (0x2)
    Sequence Number: 250
    Destination PAN: 0x3332
    Destination: 0x0203
    Source: 0x0103
    FCS: 0xf3b2 (Correct)
    [Ack In: 265]
Data (82 bytes)
    Data: 2c00fd1c00009503011e0000d41210006718a33d98be033b
    [Length: 82]

0000  61 88 fa 32 33 03 02 03 01 2c 00 fd 1c 00 00 95   a..23....,......
0010  03 01 1e 00 00 d4 12 10 00 67 18 a3 3d 98 be 03   .........g..=...
0020  3b 44 c7 18 bf c2 7b 41 3a 36 f9 e0 b9 d3 fc 83   ;D....{A:6......
0030  3b 3f b9 fd 1c 00 00 96 03 01 21 00 00 d4 12 10   ;?........!.....
0040  00 00 00 00 00 00 00 00 00 40 01 00 00 47 01 00   .........@...G..
0050  00 01 00 00 00 00 00 45 7f 8c a8 b2 f3            .......E.....

No.     Time           Source                Destination           Protocol Length Info
    265 10.761816                                                  IEEE 802.15.4 5      Ack

Frame 265: 5 bytes on wire (40 bits), 5 bytes captured (40 bits)
    Encapsulation type: IEEE 802.15.4 Wireless PAN (104)
    Arrival Time: Mar  3, 2023 16:19:06.813279000 CST
    [Time shift for this packet: 0.000000000 seconds]
    Epoch Time: 1677881946.813279000 seconds
    [Time delta from previous captured frame: 0.000515000 seconds]
    [Time delta from previous displayed frame: 0.000515000 seconds]
    [Time since reference or first frame: 10.761816000 seconds]
    Frame Number: 265
    Frame Length: 5 bytes (40 bits)
    Capture Length: 5 bytes (40 bits)
    [Frame is marked: False]
    [Frame is ignored: False]
    [Protocols in frame: wpan]
IEEE 802.15.4 Ack, Sequence Number: 250
    Frame Control Field: 0x0002, Frame Type: Ack, Destination Addressing Mode: None, Frame Version: IEEE Std 802.15.4-2003, Source Addressing Mode: None
        .... .... .... .010 = Frame Type: Ack (0x2)
        .... .... .... 0... = Security Enabled: False
        .... .... ...0 .... = Frame Pending: False
        .... .... ..0. .... = Acknowledge Request: False
        .... .... .0.. .... = PAN ID Compression: False
        .... .... 0... .... = Reserved: False
        .... ...0 .... .... = Sequence Number Suppression: False
        .... ..0. .... .... = Information Elements Present: False
        .... 00.. .... .... = Destination Addressing Mode: None (0x0)
        ..00 .... .... .... = Frame Version: IEEE Std 802.15.4-2003 (0)
        00.. .... .... .... = Source Addressing Mode: None (0x0)
    Sequence Number: 250
    FCS: 0xed6d (Correct)
    [Ack To: 264]
    [Ack Time: 0.515 ms]

0000  02 00 fa 6d ed                                    ...m.

No.     Time           Source                Destination           Protocol Length Info
    266 10.821033      0x0203                0x0103                IEEE 802.15.4 34     Data, Dst: 0x0103, Src: 0x0203

Frame 266: 34 bytes on wire (272 bits), 34 bytes captured (272 bits)
    Encapsulation type: IEEE 802.15.4 Wireless PAN (104)
    Arrival Time: Mar  3, 2023 16:19:06.872496000 CST
    [Time shift for this packet: 0.000000000 seconds]
    Epoch Time: 1677881946.872496000 seconds
    [Time delta from previous captured frame: 0.059217000 seconds]
    [Time delta from previous displayed frame: 0.059217000 seconds]
    [Time since reference or first frame: 10.821033000 seconds]
    Frame Number: 266
    Frame Length: 34 bytes (272 bits)
    Capture Length: 34 bytes (272 bits)
    [Frame is marked: False]
    [Frame is ignored: False]
    [Protocols in frame: wpan:data]
IEEE 802.15.4 Data, Dst: 0x0103, Src: 0x0203
    Frame Control Field: 0x8861, Frame Type: Data, Acknowledge Request, PAN ID Compression, Destination Addressing Mode: Short/16-bit, Frame Version: IEEE Std 802.15.4-2003, Source Addressing Mode: Short/16-bit
        .... .... .... .001 = Frame Type: Data (0x1)
        .... .... .... 0... = Security Enabled: False
        .... .... ...0 .... = Frame Pending: False
        .... .... ..1. .... = Acknowledge Request: True
        .... .... .1.. .... = PAN ID Compression: True
        .... .... 0... .... = Reserved: False
        .... ...0 .... .... = Sequence Number Suppression: False
        .... ..0. .... .... = Information Elements Present: False
        .... 10.. .... .... = Destination Addressing Mode: Short/16-bit (0x2)
        ..00 .... .... .... = Frame Version: IEEE Std 802.15.4-2003 (0)
        10.. .... .... .... = Source Addressing Mode: Short/16-bit (0x2)
    Sequence Number: 219
    Destination PAN: 0x3332
    Destination: 0x0103
    Source: 0x0203
    FCS: 0x79b9 (Correct)
    [Ack In: 267]
Data (23 bytes)
    Data: 0f00fd0900000bffbe000000000000000608c0040301b9
    [Length: 23]

0000  61 88 db 32 33 03 01 03 02 0f 00 fd 09 00 00 0b   a..23...........
0010  ff be 00 00 00 00 00 00 00 06 08 c0 04 03 01 b9   ................
0020  b9 79                                             .y

No.     Time           Source                Destination           Protocol Length Info
    267 10.821582                                                  IEEE 802.15.4 5      Ack

Frame 267: 5 bytes on wire (40 bits), 5 bytes captured (40 bits)
    Encapsulation type: IEEE 802.15.4 Wireless PAN (104)
    Arrival Time: Mar  3, 2023 16:19:06.873045000 CST
    [Time shift for this packet: 0.000000000 seconds]
    Epoch Time: 1677881946.873045000 seconds
    [Time delta from previous captured frame: 0.000549000 seconds]
    [Time delta from previous displayed frame: 0.000549000 seconds]
    [Time since reference or first frame: 10.821582000 seconds]
    Frame Number: 267
    Frame Length: 5 bytes (40 bits)
    Capture Length: 5 bytes (40 bits)
    [Frame is marked: False]
    [Frame is ignored: False]
    [Protocols in frame: wpan]
IEEE 802.15.4 Ack, Sequence Number: 219
    Frame Control Field: 0x0002, Frame Type: Ack, Destination Addressing Mode: None, Frame Version: IEEE Std 802.15.4-2003, Source Addressing Mode: None
        .... .... .... .010 = Frame Type: Ack (0x2)
        .... .... .... 0... = Security Enabled: False
        .... .... ...0 .... = Frame Pending: False
        .... .... ..0. .... = Acknowledge Request: False
        .... .... .0.. .... = PAN ID Compression: False
        .... .... 0... .... = Reserved: False
        .... ...0 .... .... = Sequence Number Suppression: False
        .... ..0. .... .... = Information Elements Present: False
        .... 00.. .... .... = Destination Addressing Mode: None (0x0)
        ..00 .... .... .... = Frame Version: IEEE Std 802.15.4-2003 (0)
        00.. .... .... .... = Source Addressing Mode: None (0x0)
    Sequence Number: 219
    FCS: 0xdde6 (Correct)
    [Ack To: 266]
    [Ack Time: 0.549 ms]

0000  02 00 db e6 dd                                    .....

No.     Time           Source                Destination           Protocol Length Info
    268 10.875293      0x0103                0x0203                IEEE 802.15.4 53     Data, Dst: 0x0203, Src: 0x0103

Frame 268: 53 bytes on wire (424 bits), 53 bytes captured (424 bits)
    Encapsulation type: IEEE 802.15.4 Wireless PAN (104)
    Arrival Time: Mar  3, 2023 16:19:06.926756000 CST
    [Time shift for this packet: 0.000000000 seconds]
    Epoch Time: 1677881946.926756000 seconds
    [Time delta from previous captured frame: 0.053711000 seconds]
    [Time delta from previous displayed frame: 0.053711000 seconds]
    [Time since reference or first frame: 10.875293000 seconds]
    Frame Number: 268
    Frame Length: 53 bytes (424 bits)
    Capture Length: 53 bytes (424 bits)
    [Frame is marked: False]
    [Frame is ignored: False]
    [Protocols in frame: wpan:data]
IEEE 802.15.4 Data, Dst: 0x0203, Src: 0x0103
    Frame Control Field: 0x8861, Frame Type: Data, Acknowledge Request, PAN ID Compression, Destination Addressing Mode: Short/16-bit, Frame Version: IEEE Std 802.15.4-2003, Source Addressing Mode: Short/16-bit
        .... .... .... .001 = Frame Type: Data (0x1)
        .... .... .... 0... = Security Enabled: False
        .... .... ...0 .... = Frame Pending: False
        .... .... ..1. .... = Acknowledge Request: True
        .... .... .1.. .... = PAN ID Compression: True
        .... .... 0... .... = Reserved: False
        .... ...0 .... .... = Sequence Number Suppression: False
        .... ..0. .... .... = Information Elements Present: False
        .... 10.. .... .... = Destination Addressing Mode: Short/16-bit (0x2)
        ..00 .... .... .... = Frame Version: IEEE Std 802.15.4-2003 (0)
        10.. .... .... .... = Source Addressing Mode: Short/16-bit (0x2)
    Sequence Number: 251
    Destination PAN: 0x3332
    Destination: 0x0203
    Source: 0x0103
    FCS: 0x1305 (Correct)
    [Ack In: 269]
Data (42 bytes)
    Data: 2d00fd1c00009703012100004f1310000000000000000000
    [Length: 42]

0000  61 88 fb 32 33 03 02 03 01 2d 00 fd 1c 00 00 97   a..23....-......
0010  03 01 21 00 00 4f 13 10 00 00 00 00 00 00 00 00   ..!..O..........
0020  00 08 02 00 00 0d 02 00 00 01 00 00 00 00 00 45   ...............E
0030  7f a6 ee 05 13                                    .....

No.     Time           Source                Destination           Protocol Length Info
    269 10.875802                                                  IEEE 802.15.4 5      Ack

Frame 269: 5 bytes on wire (40 bits), 5 bytes captured (40 bits)
    Encapsulation type: IEEE 802.15.4 Wireless PAN (104)
    Arrival Time: Mar  3, 2023 16:19:06.927265000 CST
    [Time shift for this packet: 0.000000000 seconds]
    Epoch Time: 1677881946.927265000 seconds
    [Time delta from previous captured frame: 0.000509000 seconds]
    [Time delta from previous displayed frame: 0.000509000 seconds]
    [Time since reference or first frame: 10.875802000 seconds]
    Frame Number: 269
    Frame Length: 5 bytes (40 bits)
    Capture Length: 5 bytes (40 bits)
    [Frame is marked: False]
    [Frame is ignored: False]
    [Protocols in frame: wpan]
IEEE 802.15.4 Ack, Sequence Number: 251
    Frame Control Field: 0x0002, Frame Type: Ack, Destination Addressing Mode: None, Frame Version: IEEE Std 802.15.4-2003, Source Addressing Mode: None
        .... .... .... .010 = Frame Type: Ack (0x2)
        .... .... .... 0... = Security Enabled: False
        .... .... ...0 .... = Frame Pending: False
        .... .... ..0. .... = Acknowledge Request: False
        .... .... .0.. .... = PAN ID Compression: False
        .... .... 0... .... = Reserved: False
        .... ...0 .... .... = Sequence Number Suppression: False
        .... ..0. .... .... = Information Elements Present: False
        .... 00.. .... .... = Destination Addressing Mode: None (0x0)
        ..00 .... .... .... = Frame Version: IEEE Std 802.15.4-2003 (0)
        00.. .... .... .... = Source Addressing Mode: None (0x0)
    Sequence Number: 251
    FCS: 0xfce4 (Correct)
    [Ack To: 268]
    [Ack Time: 0.509 ms]

0000  02 00 fb e4 fc                                    .....

No.     Time           Source                Destination           Protocol Length Info
    270 10.997803      0x0103                0x0203                IEEE 802.15.4 53     Data, Dst: 0x0203, Src: 0x0103

Frame 270: 53 bytes on wire (424 bits), 53 bytes captured (424 bits)
    Encapsulation type: IEEE 802.15.4 Wireless PAN (104)
    Arrival Time: Mar  3, 2023 16:19:07.049266000 CST
    [Time shift for this packet: 0.000000000 seconds]
    Epoch Time: 1677881947.049266000 seconds
    [Time delta from previous captured frame: 0.122001000 seconds]
    [Time delta from previous displayed frame: 0.122001000 seconds]
    [Time since reference or first frame: 10.997803000 seconds]
    Frame Number: 270
    Frame Length: 53 bytes (424 bits)
    Capture Length: 53 bytes (424 bits)
    [Frame is marked: False]
    [Frame is ignored: False]
    [Protocols in frame: wpan:data]
IEEE 802.15.4 Data, Dst: 0x0203, Src: 0x0103
    Frame Control Field: 0x8861, Frame Type: Data, Acknowledge Request, PAN ID Compression, Destination Addressing Mode: Short/16-bit, Frame Version: IEEE Std 802.15.4-2003, Source Addressing Mode: Short/16-bit
        .... .... .... .001 = Frame Type: Data (0x1)
        .... .... .... 0... = Security Enabled: False
        .... .... ...0 .... = Frame Pending: False
        .... .... ..1. .... = Acknowledge Request: True
        .... .... .1.. .... = PAN ID Compression: True
        .... .... 0... .... = Reserved: False
        .... ...0 .... .... = Sequence Number Suppression: False
        .... ..0. .... .... = Information Elements Present: False
        .... 10.. .... .... = Destination Addressing Mode: Short/16-bit (0x2)
        ..00 .... .... .... = Frame Version: IEEE Std 802.15.4-2003 (0)
        10.. .... .... .... = Source Addressing Mode: Short/16-bit (0x2)
    Sequence Number: 252
    Destination PAN: 0x3332
    Destination: 0x0203
    Source: 0x0103
    FCS: 0xf445 (Correct)
    [Ack In: 271]
Data (42 bytes)
    Data: 2e00fd1c0000980301210000ca1310000000000000000000
    [Length: 42]

0000  61 88 fc 32 33 03 02 03 01 2e 00 fd 1c 00 00 98   a..23...........
0010  03 01 21 00 00 ca 13 10 00 00 00 00 00 00 00 00   ..!.............
0020  00 b8 01 00 00 bb 01 00 00 01 00 00 00 00 00 44   ...............D
0030  7f 0c eb 45 f4                                    ...E.

No.     Time           Source                Destination           Protocol Length Info
    271 10.998310                                                  IEEE 802.15.4 5      Ack

Frame 271: 5 bytes on wire (40 bits), 5 bytes captured (40 bits)
    Encapsulation type: IEEE 802.15.4 Wireless PAN (104)
    Arrival Time: Mar  3, 2023 16:19:07.049773000 CST
    [Time shift for this packet: 0.000000000 seconds]
    Epoch Time: 1677881947.049773000 seconds
    [Time delta from previous captured frame: 0.000507000 seconds]
    [Time delta from previous displayed frame: 0.000507000 seconds]
    [Time since reference or first frame: 10.998310000 seconds]
    Frame Number: 271
    Frame Length: 5 bytes (40 bits)
    Capture Length: 5 bytes (40 bits)
    [Frame is marked: False]
    [Frame is ignored: False]
    [Protocols in frame: wpan]
IEEE 802.15.4 Ack, Sequence Number: 252
    Frame Control Field: 0x0002, Frame Type: Ack, Destination Addressing Mode: None, Frame Version: IEEE Std 802.15.4-2003, Source Addressing Mode: None
        .... .... .... .010 = Frame Type: Ack (0x2)
        .... .... .... 0... = Security Enabled: False
        .... .... ...0 .... = Frame Pending: False
        .... .... ..0. .... = Acknowledge Request: False
        .... .... .0.. .... = PAN ID Compression: False
        .... .... 0... .... = Reserved: False
        .... ...0 .... .... = Sequence Number Suppression: False
        .... ..0. .... .... = Information Elements Present: False
        .... 00.. .... .... = Destination Addressing Mode: None (0x0)
        ..00 .... .... .... = Frame Version: IEEE Std 802.15.4-2003 (0)
        00.. .... .... .... = Source Addressing Mode: None (0x0)
    Sequence Number: 252
    FCS: 0x885b (Correct)
    [Ack To: 270]
    [Ack Time: 0.507 ms]

0000  02 00 fc 5b 88                                    ...[.

No.     Time           Source                Destination           Protocol Length Info
    272 11.125750      0x0103                0x0203                IEEE 802.15.4 53     Data, Dst: 0x0203, Src: 0x0103

Frame 272: 53 bytes on wire (424 bits), 53 bytes captured (424 bits)
    Encapsulation type: IEEE 802.15.4 Wireless PAN (104)
    Arrival Time: Mar  3, 2023 16:19:07.177213000 CST
    [Time shift for this packet: 0.000000000 seconds]
    Epoch Time: 1677881947.177213000 seconds
    [Time delta from previous captured frame: 0.127440000 seconds]
    [Time delta from previous displayed frame: 0.127440000 seconds]
    [Time since reference or first frame: 11.125750000 seconds]
    Frame Number: 272
    Frame Length: 53 bytes (424 bits)
    Capture Length: 53 bytes (424 bits)
    [Frame is marked: False]
    [Frame is ignored: False]
    [Protocols in frame: wpan:data]
IEEE 802.15.4 Data, Dst: 0x0203, Src: 0x0103
    Frame Control Field: 0x8861, Frame Type: Data, Acknowledge Request, PAN ID Compression, Destination Addressing Mode: Short/16-bit, Frame Version: IEEE Std 802.15.4-2003, Source Addressing Mode: Short/16-bit
        .... .... .... .001 = Frame Type: Data (0x1)
        .... .... .... 0... = Security Enabled: False
        .... .... ...0 .... = Frame Pending: False
        .... .... ..1. .... = Acknowledge Request: True
        .... .... .1.. .... = PAN ID Compression: True
        .... .... 0... .... = Reserved: False
        .... ...0 .... .... = Sequence Number Suppression: False
        .... ..0. .... .... = Information Elements Present: False
        .... 10.. .... .... = Destination Addressing Mode: Short/16-bit (0x2)
        ..00 .... .... .... = Frame Version: IEEE Std 802.15.4-2003 (0)
        10.. .... .... .... = Source Addressing Mode: Short/16-bit (0x2)
    Sequence Number: 253
    Destination PAN: 0x3332
    Destination: 0x0203
    Source: 0x0103
    FCS: 0x618a (Correct)
    [Ack In: 273]
Data (42 bytes)
    Data: 2f00fd1c00009903012100004a1410000000000000000000
    [Length: 42]

0000  61 88 fd 32 33 03 02 03 01 2f 00 fd 1c 00 00 99   a..23..../......
0010  03 01 21 00 00 4a 14 10 00 00 00 00 00 00 00 00   ..!..J..........
0020  00 08 02 00 00 10 02 00 00 01 00 00 00 00 00 43   ...............C
0030  7f 3e 64 8a 61                                    .>d.a

No.     Time           Source                Destination           Protocol Length Info
    273 11.126266                                                  IEEE 802.15.4 5      Ack

Frame 273: 5 bytes on wire (40 bits), 5 bytes captured (40 bits)
    Encapsulation type: IEEE 802.15.4 Wireless PAN (104)
    Arrival Time: Mar  3, 2023 16:19:07.177729000 CST
    [Time shift for this packet: 0.000000000 seconds]
    Epoch Time: 1677881947.177729000 seconds
    [Time delta from previous captured frame: 0.000516000 seconds]
    [Time delta from previous displayed frame: 0.000516000 seconds]
    [Time since reference or first frame: 11.126266000 seconds]
    Frame Number: 273
    Frame Length: 5 bytes (40 bits)
    Capture Length: 5 bytes (40 bits)
    [Frame is marked: False]
    [Frame is ignored: False]
    [Protocols in frame: wpan]
IEEE 802.15.4 Ack, Sequence Number: 253
    Frame Control Field: 0x0002, Frame Type: Ack, Destination Addressing Mode: None, Frame Version: IEEE Std 802.15.4-2003, Source Addressing Mode: None
        .... .... .... .010 = Frame Type: Ack (0x2)
        .... .... .... 0... = Security Enabled: False
        .... .... ...0 .... = Frame Pending: False
        .... .... ..0. .... = Acknowledge Request: False
        .... .... .0.. .... = PAN ID Compression: False
        .... .... 0... .... = Reserved: False
        .... ...0 .... .... = Sequence Number Suppression: False
        .... ..0. .... .... = Information Elements Present: False
        .... 00.. .... .... = Destination Addressing Mode: None (0x0)
        ..00 .... .... .... = Frame Version: IEEE Std 802.15.4-2003 (0)
        00.. .... .... .... = Source Addressing Mode: None (0x0)
    Sequence Number: 253
    FCS: 0x99d2 (Correct)
    [Ack To: 272]
    [Ack Time: 0.516 ms]

0000  02 00 fd d2 99                                    .....

No.     Time           Source                Destination           Protocol Length Info
    274 11.265003      0x0103                0x0203                IEEE 802.15.4 113    Data, Dst: 0x0203, Src: 0x0103

Frame 274: 113 bytes on wire (904 bits), 113 bytes captured (904 bits)
    Encapsulation type: IEEE 802.15.4 Wireless PAN (104)
    Arrival Time: Mar  3, 2023 16:19:07.316466000 CST
    [Time shift for this packet: 0.000000000 seconds]
    Epoch Time: 1677881947.316466000 seconds
    [Time delta from previous captured frame: 0.138737000 seconds]
    [Time delta from previous displayed frame: 0.138737000 seconds]
    [Time since reference or first frame: 11.265003000 seconds]
    Frame Number: 274
    Frame Length: 113 bytes (904 bits)
    Capture Length: 113 bytes (904 bits)
    [Frame is marked: False]
    [Frame is ignored: False]
    [Protocols in frame: wpan:data]
IEEE 802.15.4 Data, Dst: 0x0203, Src: 0x0103
    Frame Control Field: 0x8861, Frame Type: Data, Acknowledge Request, PAN ID Compression, Destination Addressing Mode: Short/16-bit, Frame Version: IEEE Std 802.15.4-2003, Source Addressing Mode: Short/16-bit
        .... .... .... .001 = Frame Type: Data (0x1)
        .... .... .... 0... = Security Enabled: False
        .... .... ...0 .... = Frame Pending: False
        .... .... ..1. .... = Acknowledge Request: True
        .... .... .1.. .... = PAN ID Compression: True
        .... .... 0... .... = Reserved: False
        .... ...0 .... .... = Sequence Number Suppression: False
        .... ..0. .... .... = Information Elements Present: False
        .... 10.. .... .... = Destination Addressing Mode: Short/16-bit (0x2)
        ..00 .... .... .... = Frame Version: IEEE Std 802.15.4-2003 (0)
        10.. .... .... .... = Source Addressing Mode: Short/16-bit (0x2)
    Sequence Number: 254
    Destination PAN: 0x3332
    Destination: 0x0203
    Source: 0x0103
    FCS: 0xf7e7 (Correct)
    [Ack In: 275]
Data (102 bytes)
    Data: 3000fd1f00009a03010100000ffc60130f1c60100f9c5001
    [Length: 102]

0000  61 88 fe 32 33 03 02 03 01 30 00 fd 1f 00 00 9a   a..23....0......
0010  03 01 01 00 00 0f fc 60 13 0f 1c 60 10 0f 9c 50   .......`...`...P
0020  01 09 02 00 00 ff ff 00 00 00 00 00 00 00 00 00   ................
0030  00 00 00 ff a2 eb fd 16 00 00 9b 03 01 c1 00 00   ................
0040  00 00 00 00 ac 6c 14 3b 7c df f1 3b e9 32 dd 3d   .....l.;|..;.2.=
0050  00 00 00 00 a5 01 cc 80 fd 1c 00 00 9c 03 01 1e   ................
0060  00 00 c9 14 10 00 58 1d a3 3d 10 b2 03 3b 5e e7   ......X..=...;^.
0070  f7                                                .

No.     Time           Source                Destination           Protocol Length Info
    275 11.265477                                                  IEEE 802.15.4 5      Ack

Frame 275: 5 bytes on wire (40 bits), 5 bytes captured (40 bits)
    Encapsulation type: IEEE 802.15.4 Wireless PAN (104)
    Arrival Time: Mar  3, 2023 16:19:07.316940000 CST
    [Time shift for this packet: 0.000000000 seconds]
    Epoch Time: 1677881947.316940000 seconds
    [Time delta from previous captured frame: 0.000474000 seconds]
    [Time delta from previous displayed frame: 0.000474000 seconds]
    [Time since reference or first frame: 11.265477000 seconds]
    Frame Number: 275
    Frame Length: 5 bytes (40 bits)
    Capture Length: 5 bytes (40 bits)
    [Frame is marked: False]
    [Frame is ignored: False]
    [Protocols in frame: wpan]
IEEE 802.15.4 Ack, Sequence Number: 254
    Frame Control Field: 0x0002, Frame Type: Ack, Destination Addressing Mode: None, Frame Version: IEEE Std 802.15.4-2003, Source Addressing Mode: None
        .... .... .... .010 = Frame Type: Ack (0x2)
        .... .... .... 0... = Security Enabled: False
        .... .... ...0 .... = Frame Pending: False
        .... .... ..0. .... = Acknowledge Request: False
        .... .... .0.. .... = PAN ID Compression: False
        .... .... 0... .... = Reserved: False
        .... ...0 .... .... = Sequence Number Suppression: False
        .... ..0. .... .... = Information Elements Present: False
        .... 00.. .... .... = Destination Addressing Mode: None (0x0)
        ..00 .... .... .... = Frame Version: IEEE Std 802.15.4-2003 (0)
        00.. .... .... .... = Source Addressing Mode: None (0x0)
    Sequence Number: 254
    FCS: 0xab49 (Correct)
    [Ack To: 274]
    [Ack Time: 0.474 ms]

0000  02 00 fe 49 ab                                    ...I.

No.     Time           Source                Destination           Protocol Length Info
    276 11.274288      0x0103                0x0203                IEEE 802.15.4 70     Data, Dst: 0x0203, Src: 0x0103

Frame 276: 70 bytes on wire (560 bits), 70 bytes captured (560 bits)
    Encapsulation type: IEEE 802.15.4 Wireless PAN (104)
    Arrival Time: Mar  3, 2023 16:19:07.325751000 CST
    [Time shift for this packet: 0.000000000 seconds]
    Epoch Time: 1677881947.325751000 seconds
    [Time delta from previous captured frame: 0.008811000 seconds]
    [Time delta from previous displayed frame: 0.008811000 seconds]
    [Time since reference or first frame: 11.274288000 seconds]
    Frame Number: 276
    Frame Length: 70 bytes (560 bits)
    Capture Length: 70 bytes (560 bits)
    [Frame is marked: False]
    [Frame is ignored: False]
    [Protocols in frame: wpan:data]
IEEE 802.15.4 Data, Dst: 0x0203, Src: 0x0103
    Frame Control Field: 0x8861, Frame Type: Data, Acknowledge Request, PAN ID Compression, Destination Addressing Mode: Short/16-bit, Frame Version: IEEE Std 802.15.4-2003, Source Addressing Mode: Short/16-bit
        .... .... .... .001 = Frame Type: Data (0x1)
        .... .... .... 0... = Security Enabled: False
        .... .... ...0 .... = Frame Pending: False
        .... .... ..1. .... = Acknowledge Request: True
        .... .... .1.. .... = PAN ID Compression: True
        .... .... 0... .... = Reserved: False
        .... ...0 .... .... = Sequence Number Suppression: False
        .... ..0. .... .... = Information Elements Present: False
        .... 10.. .... .... = Destination Addressing Mode: Short/16-bit (0x2)
        ..00 .... .... .... = Frame Version: IEEE Std 802.15.4-2003 (0)
        10.. .... .... .... = Source Addressing Mode: Short/16-bit (0x2)
    Sequence Number: 255
    Destination PAN: 0x3332
    Destination: 0x0203
    Source: 0x0103
    FCS: 0x384d (Correct)
    [Ack In: 277]
Data (59 bytes)
    Data: 3100e518bf325dc1b934dda939408ba03b5362fd1c00009d
    [Length: 59]

0000  61 88 ff 32 33 03 02 03 01 31 00 e5 18 bf 32 5d   a..23....1....2]
0010  c1 b9 34 dd a9 39 40 8b a0 3b 53 62 fd 1c 00 00   ..4..9@..;Sb....
0020  9d 03 01 21 00 00 cd 14 10 00 00 00 00 00 00 00   ...!............
0030  00 00 86 01 00 00 8b 01 00 00 01 00 00 00 00 00   ................
0040  42 7f cc 97 4d 38                                 B...M8

No.     Time           Source                Destination           Protocol Length Info
    277 11.274736                                                  IEEE 802.15.4 5      Ack

Frame 277: 5 bytes on wire (40 bits), 5 bytes captured (40 bits)
    Encapsulation type: IEEE 802.15.4 Wireless PAN (104)
    Arrival Time: Mar  3, 2023 16:19:07.326199000 CST
    [Time shift for this packet: 0.000000000 seconds]
    Epoch Time: 1677881947.326199000 seconds
    [Time delta from previous captured frame: 0.000448000 seconds]
    [Time delta from previous displayed frame: 0.000448000 seconds]
    [Time since reference or first frame: 11.274736000 seconds]
    Frame Number: 277
    Frame Length: 5 bytes (40 bits)
    Capture Length: 5 bytes (40 bits)
    [Frame is marked: False]
    [Frame is ignored: False]
    [Protocols in frame: wpan]
IEEE 802.15.4 Ack, Sequence Number: 255
    Frame Control Field: 0x0002, Frame Type: Ack, Destination Addressing Mode: None, Frame Version: IEEE Std 802.15.4-2003, Source Addressing Mode: None
        .... .... .... .010 = Frame Type: Ack (0x2)
        .... .... .... 0... = Security Enabled: False
        .... .... ...0 .... = Frame Pending: False
        .... .... ..0. .... = Acknowledge Request: False
        .... .... .0.. .... = PAN ID Compression: False
        .... .... 0... .... = Reserved: False
        .... ...0 .... .... = Sequence Number Suppression: False
        .... ..0. .... .... = Information Elements Present: False
        .... 00.. .... .... = Destination Addressing Mode: None (0x0)
        ..00 .... .... .... = Frame Version: IEEE Std 802.15.4-2003 (0)
        00.. .... .... .... = Source Addressing Mode: None (0x0)
    Sequence Number: 255
    FCS: 0xbac0 (Correct)
    [Ack To: 276]
    [Ack Time: 0.448 ms]

0000  02 00 ff c0 ba                                    .....

No.     Time           Source                Destination           Protocol Length Info
    278 11.318753      0x0103                0x0203                IEEE 802.15.4 34     Data, Dst: 0x0203, Src: 0x0103

Frame 278: 34 bytes on wire (272 bits), 34 bytes captured (272 bits)
    Encapsulation type: IEEE 802.15.4 Wireless PAN (104)
    Arrival Time: Mar  3, 2023 16:19:07.370216000 CST
    [Time shift for this packet: 0.000000000 seconds]
    Epoch Time: 1677881947.370216000 seconds
    [Time delta from previous captured frame: 0.044017000 seconds]
    [Time delta from previous displayed frame: 0.044017000 seconds]
    [Time since reference or first frame: 11.318753000 seconds]
    Frame Number: 278
    Frame Length: 34 bytes (272 bits)
    Capture Length: 34 bytes (272 bits)
    [Frame is marked: False]
    [Frame is ignored: False]
    [Protocols in frame: wpan:data]
IEEE 802.15.4 Data, Dst: 0x0203, Src: 0x0103
    Frame Control Field: 0x8861, Frame Type: Data, Acknowledge Request, PAN ID Compression, Destination Addressing Mode: Short/16-bit, Frame Version: IEEE Std 802.15.4-2003, Source Addressing Mode: Short/16-bit
        .... .... .... .001 = Frame Type: Data (0x1)
        .... .... .... 0... = Security Enabled: False
        .... .... ...0 .... = Frame Pending: False
        .... .... ..1. .... = Acknowledge Request: True
        .... .... .1.. .... = PAN ID Compression: True
        .... .... 0... .... = Reserved: False
        .... ...0 .... .... = Sequence Number Suppression: False
        .... ..0. .... .... = Information Elements Present: False
        .... 10.. .... .... = Destination Addressing Mode: Short/16-bit (0x2)
        ..00 .... .... .... = Frame Version: IEEE Std 802.15.4-2003 (0)
        10.. .... .... .... = Source Addressing Mode: Short/16-bit (0x2)
    Sequence Number: 0
    Destination PAN: 0x3332
    Destination: 0x0203
    Source: 0x0103
    FCS: 0x1785 (Correct)
    [Ack In: 279]
Data (23 bytes)
    Data: 3200fd0900009e0301000000000000000203510303bceb
    [Length: 23]

0000  61 88 00 32 33 03 02 03 01 32 00 fd 09 00 00 9e   a..23....2......
0010  03 01 00 00 00 00 00 00 00 02 03 51 03 03 bc eb   ...........Q....
0020  85 17                                             ..

No.     Time           Source                Destination           Protocol Length Info
    279 11.319069                                                  IEEE 802.15.4 5      Ack

Frame 279: 5 bytes on wire (40 bits), 5 bytes captured (40 bits)
    Encapsulation type: IEEE 802.15.4 Wireless PAN (104)
    Arrival Time: Mar  3, 2023 16:19:07.370532000 CST
    [Time shift for this packet: 0.000000000 seconds]
    Epoch Time: 1677881947.370532000 seconds
    [Time delta from previous captured frame: 0.000316000 seconds]
    [Time delta from previous displayed frame: 0.000316000 seconds]
    [Time since reference or first frame: 11.319069000 seconds]
    Frame Number: 279
    Frame Length: 5 bytes (40 bits)
    Capture Length: 5 bytes (40 bits)
    [Frame is marked: False]
    [Frame is ignored: False]
    [Protocols in frame: wpan]
IEEE 802.15.4 Ack, Sequence Number: 0
    Frame Control Field: 0x0002, Frame Type: Ack, Destination Addressing Mode: None, Frame Version: IEEE Std 802.15.4-2003, Source Addressing Mode: None
        .... .... .... .010 = Frame Type: Ack (0x2)
        .... .... .... 0... = Security Enabled: False
        .... .... ...0 .... = Frame Pending: False
        .... .... ..0. .... = Acknowledge Request: False
        .... .... .0.. .... = PAN ID Compression: False
        .... .... 0... .... = Reserved: False
        .... ...0 .... .... = Sequence Number Suppression: False
        .... ..0. .... .... = Information Elements Present: False
        .... 00.. .... .... = Destination Addressing Mode: None (0x0)
        ..00 .... .... .... = Frame Version: IEEE Std 802.15.4-2003 (0)
        00.. .... .... .... = Source Addressing Mode: None (0x0)
    Sequence Number: 0
    FCS: 0xb5b8 (Correct)
    [Ack To: 278]
    [Ack Time: 0.316 ms]

0000  02 00 00 b8 b5                                    .....

No.     Time           Source                Destination           Protocol Length Info
    280 11.373151      0x0103                0x0203                IEEE 802.15.4 53     Data, Dst: 0x0203, Src: 0x0103

Frame 280: 53 bytes on wire (424 bits), 53 bytes captured (424 bits)
    Encapsulation type: IEEE 802.15.4 Wireless PAN (104)
    Arrival Time: Mar  3, 2023 16:19:07.424614000 CST
    [Time shift for this packet: 0.000000000 seconds]
    Epoch Time: 1677881947.424614000 seconds
    [Time delta from previous captured frame: 0.054082000 seconds]
    [Time delta from previous displayed frame: 0.054082000 seconds]
    [Time since reference or first frame: 11.373151000 seconds]
    Frame Number: 280
    Frame Length: 53 bytes (424 bits)
    Capture Length: 53 bytes (424 bits)
    [Frame is marked: False]
    [Frame is ignored: False]
    [Protocols in frame: wpan:data]
IEEE 802.15.4 Data, Dst: 0x0203, Src: 0x0103
    Frame Control Field: 0x8861, Frame Type: Data, Acknowledge Request, PAN ID Compression, Destination Addressing Mode: Short/16-bit, Frame Version: IEEE Std 802.15.4-2003, Source Addressing Mode: Short/16-bit
        .... .... .... .001 = Frame Type: Data (0x1)
        .... .... .... 0... = Security Enabled: False
        .... .... ...0 .... = Frame Pending: False
        .... .... ..1. .... = Acknowledge Request: True
        .... .... .1.. .... = PAN ID Compression: True
        .... .... 0... .... = Reserved: False
        .... ...0 .... .... = Sequence Number Suppression: False
        .... ..0. .... .... = Information Elements Present: False
        .... 10.. .... .... = Destination Addressing Mode: Short/16-bit (0x2)
        ..00 .... .... .... = Frame Version: IEEE Std 802.15.4-2003 (0)
        10.. .... .... .... = Source Addressing Mode: Short/16-bit (0x2)
    Sequence Number: 1
    Destination PAN: 0x3332
    Destination: 0x0203
    Source: 0x0103
    FCS: 0x10bb (Correct)
    [Ack In: 281]
Data (42 bytes)
    Data: 3300fd1c00009f0301210000411510000000000000000000
    [Length: 42]

0000  61 88 01 32 33 03 02 03 01 33 00 fd 1c 00 00 9f   a..23....3......
0010  03 01 21 00 00 41 15 10 00 00 00 00 00 00 00 00   ..!..A..........
0020  00 44 02 00 00 46 02 00 00 01 00 00 00 00 00 42   .D...F.........B
0030  7f 78 eb bb 10                                    .x...

No.     Time           Source                Destination           Protocol Length Info
    281 11.373369                                                  IEEE 802.15.4 5      Ack

Frame 281: 5 bytes on wire (40 bits), 5 bytes captured (40 bits)
    Encapsulation type: IEEE 802.15.4 Wireless PAN (104)
    Arrival Time: Mar  3, 2023 16:19:07.424832000 CST
    [Time shift for this packet: 0.000000000 seconds]
    Epoch Time: 1677881947.424832000 seconds
    [Time delta from previous captured frame: 0.000218000 seconds]
    [Time delta from previous displayed frame: 0.000218000 seconds]
    [Time since reference or first frame: 11.373369000 seconds]
    Frame Number: 281
    Frame Length: 5 bytes (40 bits)
    Capture Length: 5 bytes (40 bits)
    [Frame is marked: False]
    [Frame is ignored: False]
    [Protocols in frame: wpan]
IEEE 802.15.4 Ack, Sequence Number: 1
    Frame Control Field: 0x0002, Frame Type: Ack, Destination Addressing Mode: None, Frame Version: IEEE Std 802.15.4-2003, Source Addressing Mode: None
        .... .... .... .010 = Frame Type: Ack (0x2)
        .... .... .... 0... = Security Enabled: False
        .... .... ...0 .... = Frame Pending: False
        .... .... ..0. .... = Acknowledge Request: False
        .... .... .0.. .... = PAN ID Compression: False
        .... .... 0... .... = Reserved: False
        .... ...0 .... .... = Sequence Number Suppression: False
        .... ..0. .... .... = Information Elements Present: False
        .... 00.. .... .... = Destination Addressing Mode: None (0x0)
        ..00 .... .... .... = Frame Version: IEEE Std 802.15.4-2003 (0)
        00.. .... .... .... = Source Addressing Mode: None (0x0)
    Sequence Number: 1
    FCS: 0xa431 (Correct)
    [Ack To: 280]
    [Ack Time: 0.218 ms]

0000  02 00 01 31 a4                                    ...1.

No.     Time           Source                Destination           Protocol Length Info
    282 11.497844      0x0103                0x0203                IEEE 802.15.4 53     Data, Dst: 0x0203, Src: 0x0103

Frame 282: 53 bytes on wire (424 bits), 53 bytes captured (424 bits)
    Encapsulation type: IEEE 802.15.4 Wireless PAN (104)
    Arrival Time: Mar  3, 2023 16:19:07.549307000 CST
    [Time shift for this packet: 0.000000000 seconds]
    Epoch Time: 1677881947.549307000 seconds
    [Time delta from previous captured frame: 0.124475000 seconds]
    [Time delta from previous displayed frame: 0.124475000 seconds]
    [Time since reference or first frame: 11.497844000 seconds]
    Frame Number: 282
    Frame Length: 53 bytes (424 bits)
    Capture Length: 53 bytes (424 bits)
    [Frame is marked: False]
    [Frame is ignored: False]
    [Protocols in frame: wpan:data]
IEEE 802.15.4 Data, Dst: 0x0203, Src: 0x0103
    Frame Control Field: 0x8861, Frame Type: Data, Acknowledge Request, PAN ID Compression, Destination Addressing Mode: Short/16-bit, Frame Version: IEEE Std 802.15.4-2003, Source Addressing Mode: Short/16-bit
        .... .... .... .001 = Frame Type: Data (0x1)
        .... .... .... 0... = Security Enabled: False
        .... .... ...0 .... = Frame Pending: False
        .... .... ..1. .... = Acknowledge Request: True
        .... .... .1.. .... = PAN ID Compression: True
        .... .... 0... .... = Reserved: False
        .... ...0 .... .... = Sequence Number Suppression: False
        .... ..0. .... .... = Information Elements Present: False
        .... 10.. .... .... = Destination Addressing Mode: Short/16-bit (0x2)
        ..00 .... .... .... = Frame Version: IEEE Std 802.15.4-2003 (0)
        10.. .... .... .... = Source Addressing Mode: Short/16-bit (0x2)
    Sequence Number: 2
    Destination PAN: 0x3332
    Destination: 0x0203
    Source: 0x0103
    FCS: 0xd822 (Correct)
    [Ack In: 283]
Data (42 bytes)
    Data: 3400fd1c0000a00301210000be1510000000000000000000
    [Length: 42]

0000  61 88 02 32 33 03 02 03 01 34 00 fd 1c 00 00 a0   a..23....4......
0010  03 01 21 00 00 be 15 10 00 00 00 00 00 00 00 00   ..!.............
0020  00 58 02 00 00 5f 02 00 00 01 00 00 00 00 00 41   .X..._.........A
0030  7f 80 62 22 d8                                    ..b".

No.     Time           Source                Destination           Protocol Length Info
    283 11.498339                                                  IEEE 802.15.4 5      Ack

Frame 283: 5 bytes on wire (40 bits), 5 bytes captured (40 bits)
    Encapsulation type: IEEE 802.15.4 Wireless PAN (104)
    Arrival Time: Mar  3, 2023 16:19:07.549802000 CST
    [Time shift for this packet: 0.000000000 seconds]
    Epoch Time: 1677881947.549802000 seconds
    [Time delta from previous captured frame: 0.000495000 seconds]
    [Time delta from previous displayed frame: 0.000495000 seconds]
    [Time since reference or first frame: 11.498339000 seconds]
    Frame Number: 283
    Frame Length: 5 bytes (40 bits)
    Capture Length: 5 bytes (40 bits)
    [Frame is marked: False]
    [Frame is ignored: False]
    [Protocols in frame: wpan]
IEEE 802.15.4 Ack, Sequence Number: 2
    Frame Control Field: 0x0002, Frame Type: Ack, Destination Addressing Mode: None, Frame Version: IEEE Std 802.15.4-2003, Source Addressing Mode: None
        .... .... .... .010 = Frame Type: Ack (0x2)
        .... .... .... 0... = Security Enabled: False
        .... .... ...0 .... = Frame Pending: False
        .... .... ..0. .... = Acknowledge Request: False
        .... .... .0.. .... = PAN ID Compression: False
        .... .... 0... .... = Reserved: False
        .... ...0 .... .... = Sequence Number Suppression: False
        .... ..0. .... .... = Information Elements Present: False
        .... 00.. .... .... = Destination Addressing Mode: None (0x0)
        ..00 .... .... .... = Frame Version: IEEE Std 802.15.4-2003 (0)
        00.. .... .... .... = Source Addressing Mode: None (0x0)
    Sequence Number: 2
    FCS: 0x96aa (Correct)
    [Ack To: 282]
    [Ack Time: 0.495 ms]

0000  02 00 02 aa 96                                    .....

No.     Time           Source                Destination           Protocol Length Info
    284 11.625513      0x0103                0x0203                IEEE 802.15.4 53     Data, Dst: 0x0203, Src: 0x0103

Frame 284: 53 bytes on wire (424 bits), 53 bytes captured (424 bits)
    Encapsulation type: IEEE 802.15.4 Wireless PAN (104)
    Arrival Time: Mar  3, 2023 16:19:07.676976000 CST
    [Time shift for this packet: 0.000000000 seconds]
    Epoch Time: 1677881947.676976000 seconds
    [Time delta from previous captured frame: 0.127174000 seconds]
    [Time delta from previous displayed frame: 0.127174000 seconds]
    [Time since reference or first frame: 11.625513000 seconds]
    Frame Number: 284
    Frame Length: 53 bytes (424 bits)
    Capture Length: 53 bytes (424 bits)
    [Frame is marked: False]
    [Frame is ignored: False]
    [Protocols in frame: wpan:data]
IEEE 802.15.4 Data, Dst: 0x0203, Src: 0x0103
    Frame Control Field: 0x8861, Frame Type: Data, Acknowledge Request, PAN ID Compression, Destination Addressing Mode: Short/16-bit, Frame Version: IEEE Std 802.15.4-2003, Source Addressing Mode: Short/16-bit
        .... .... .... .001 = Frame Type: Data (0x1)
        .... .... .... 0... = Security Enabled: False
        .... .... ...0 .... = Frame Pending: False
        .... .... ..1. .... = Acknowledge Request: True
        .... .... .1.. .... = PAN ID Compression: True
        .... .... 0... .... = Reserved: False
        .... ...0 .... .... = Sequence Number Suppression: False
        .... ..0. .... .... = Information Elements Present: False
        .... 10.. .... .... = Destination Addressing Mode: Short/16-bit (0x2)
        ..00 .... .... .... = Frame Version: IEEE Std 802.15.4-2003 (0)
        10.. .... .... .... = Source Addressing Mode: Short/16-bit (0x2)
    Sequence Number: 3
    Destination PAN: 0x3332
    Destination: 0x0203
    Source: 0x0103
    FCS: 0xf2bc (Correct)
    [Ack In: 285]
Data (42 bytes)
    Data: 3500fd1c0000a103012100003d1610000000000000000000
    [Length: 42]

0000  61 88 03 32 33 03 02 03 01 35 00 fd 1c 00 00 a1   a..23....5......
0010  03 01 21 00 00 3d 16 10 00 00 00 00 00 00 00 00   ..!..=..........
0020  00 c6 02 00 00 cd 02 00 00 01 00 00 00 00 00 41   ...............A
0030  7f 5c 69 bc f2                                    .\i..

No.     Time           Source                Destination           Protocol Length Info
    285 11.625794                                                  IEEE 802.15.4 5      Ack

Frame 285: 5 bytes on wire (40 bits), 5 bytes captured (40 bits)
    Encapsulation type: IEEE 802.15.4 Wireless PAN (104)
    Arrival Time: Mar  3, 2023 16:19:07.677257000 CST
    [Time shift for this packet: 0.000000000 seconds]
    Epoch Time: 1677881947.677257000 seconds
    [Time delta from previous captured frame: 0.000281000 seconds]
    [Time delta from previous displayed frame: 0.000281000 seconds]
    [Time since reference or first frame: 11.625794000 seconds]
    Frame Number: 285
    Frame Length: 5 bytes (40 bits)
    Capture Length: 5 bytes (40 bits)
    [Frame is marked: False]
    [Frame is ignored: False]
    [Protocols in frame: wpan]
IEEE 802.15.4 Ack, Sequence Number: 3
    Frame Control Field: 0x0002, Frame Type: Ack, Destination Addressing Mode: None, Frame Version: IEEE Std 802.15.4-2003, Source Addressing Mode: None
        .... .... .... .010 = Frame Type: Ack (0x2)
        .... .... .... 0... = Security Enabled: False
        .... .... ...0 .... = Frame Pending: False
        .... .... ..0. .... = Acknowledge Request: False
        .... .... .0.. .... = PAN ID Compression: False
        .... .... 0... .... = Reserved: False
        .... ...0 .... .... = Sequence Number Suppression: False
        .... ..0. .... .... = Information Elements Present: False
        .... 00.. .... .... = Destination Addressing Mode: None (0x0)
        ..00 .... .... .... = Frame Version: IEEE Std 802.15.4-2003 (0)
        00.. .... .... .... = Source Addressing Mode: None (0x0)
    Sequence Number: 3
    FCS: 0x8723 (Correct)
    [Ack To: 284]
    [Ack Time: 0.281 ms]

0000  02 00 03 23 87                                    ...#.

No.     Time           Source                Destination           Protocol Length Info
    286 11.756091      0x0103                0x0203                IEEE 802.15.4 77     Data, Dst: 0x0203, Src: 0x0103

Frame 286: 77 bytes on wire (616 bits), 77 bytes captured (616 bits)
    Encapsulation type: IEEE 802.15.4 Wireless PAN (104)
    Arrival Time: Mar  3, 2023 16:19:07.807554000 CST
    [Time shift for this packet: 0.000000000 seconds]
    Epoch Time: 1677881947.807554000 seconds
    [Time delta from previous captured frame: 0.130297000 seconds]
    [Time delta from previous displayed frame: 0.130297000 seconds]
    [Time since reference or first frame: 11.756091000 seconds]
    Frame Number: 286
    Frame Length: 77 bytes (616 bits)
    Capture Length: 77 bytes (616 bits)
    [Frame is marked: False]
    [Frame is ignored: False]
    [Protocols in frame: wpan:data]
IEEE 802.15.4 Data, Dst: 0x0203, Src: 0x0103
    Frame Control Field: 0x8861, Frame Type: Data, Acknowledge Request, PAN ID Compression, Destination Addressing Mode: Short/16-bit, Frame Version: IEEE Std 802.15.4-2003, Source Addressing Mode: Short/16-bit
        .... .... .... .001 = Frame Type: Data (0x1)
        .... .... .... 0... = Security Enabled: False
        .... .... ...0 .... = Frame Pending: False
        .... .... ..1. .... = Acknowledge Request: True
        .... .... .1.. .... = PAN ID Compression: True
        .... .... 0... .... = Reserved: False
        .... ...0 .... .... = Sequence Number Suppression: False
        .... ..0. .... .... = Information Elements Present: False
        .... 10.. .... .... = Destination Addressing Mode: Short/16-bit (0x2)
        ..00 .... .... .... = Frame Version: IEEE Std 802.15.4-2003 (0)
        10.. .... .... .... = Source Addressing Mode: Short/16-bit (0x2)
    Sequence Number: 4
    Destination PAN: 0x3332
    Destination: 0x0203
    Source: 0x0103
    FCS: 0x227e (Correct)
    [Ack In: 287]
Data (66 bytes)
    Data: 3600fd1c0000a203011e0000ba16100011e2a23d277aff3a
    [Length: 66]

0000  61 88 04 32 33 03 02 03 01 36 00 fd 1c 00 00 a2   a..23....6......
0010  03 01 1e 00 00 ba 16 10 00 11 e2 a2 3d 27 7a ff   ............='z.
0020  3a d7 04 19 bf 10 0c fe 37 be c4 18 3a 40 63 79   :.......7...:@cy
0030  3b 43 1d fd 1c 00 00 a3 03 01 21 00 00 ba 16 10   ;C........!.....
0040  00 00 00 00 00 00 00 00 00 d6 01 7e 22            ...........~"

No.     Time           Source                Destination           Protocol Length Info
    287 11.756467                                                  IEEE 802.15.4 5      Ack

Frame 287: 5 bytes on wire (40 bits), 5 bytes captured (40 bits)
    Encapsulation type: IEEE 802.15.4 Wireless PAN (104)
    Arrival Time: Mar  3, 2023 16:19:07.807930000 CST
    [Time shift for this packet: 0.000000000 seconds]
    Epoch Time: 1677881947.807930000 seconds
    [Time delta from previous captured frame: 0.000376000 seconds]
    [Time delta from previous displayed frame: 0.000376000 seconds]
    [Time since reference or first frame: 11.756467000 seconds]
    Frame Number: 287
    Frame Length: 5 bytes (40 bits)
    Capture Length: 5 bytes (40 bits)
    [Frame is marked: False]
    [Frame is ignored: False]
    [Protocols in frame: wpan]
IEEE 802.15.4 Ack, Sequence Number: 4
    Frame Control Field: 0x0002, Frame Type: Ack, Destination Addressing Mode: None, Frame Version: IEEE Std 802.15.4-2003, Source Addressing Mode: None
        .... .... .... .010 = Frame Type: Ack (0x2)
        .... .... .... 0... = Security Enabled: False
        .... .... ...0 .... = Frame Pending: False
        .... .... ..0. .... = Acknowledge Request: False
        .... .... .0.. .... = PAN ID Compression: False
        .... .... 0... .... = Reserved: False
        .... ...0 .... .... = Sequence Number Suppression: False
        .... ..0. .... .... = Information Elements Present: False
        .... 00.. .... .... = Destination Addressing Mode: None (0x0)
        ..00 .... .... .... = Frame Version: IEEE Std 802.15.4-2003 (0)
        00.. .... .... .... = Source Addressing Mode: None (0x0)
    Sequence Number: 4
    FCS: 0xf39c (Correct)
    [Ack To: 286]
    [Ack Time: 0.376 ms]

0000  02 00 04 9c f3                                    .....

No.     Time           Source                Destination           Protocol Length Info
    288 11.760085      0x0103                0x0203                IEEE 802.15.4 29     Data, Dst: 0x0203, Src: 0x0103

Frame 288: 29 bytes on wire (232 bits), 29 bytes captured (232 bits)
    Encapsulation type: IEEE 802.15.4 Wireless PAN (104)
    Arrival Time: Mar  3, 2023 16:19:07.811548000 CST
    [Time shift for this packet: 0.000000000 seconds]
    Epoch Time: 1677881947.811548000 seconds
    [Time delta from previous captured frame: 0.003618000 seconds]
    [Time delta from previous displayed frame: 0.003618000 seconds]
    [Time since reference or first frame: 11.760085000 seconds]
    Frame Number: 288
    Frame Length: 29 bytes (232 bits)
    Capture Length: 29 bytes (232 bits)
    [Frame is marked: False]
    [Frame is ignored: False]
    [Protocols in frame: wpan:data]
IEEE 802.15.4 Data, Dst: 0x0203, Src: 0x0103
    Frame Control Field: 0x8861, Frame Type: Data, Acknowledge Request, PAN ID Compression, Destination Addressing Mode: Short/16-bit, Frame Version: IEEE Std 802.15.4-2003, Source Addressing Mode: Short/16-bit
        .... .... .... .001 = Frame Type: Data (0x1)
        .... .... .... 0... = Security Enabled: False
        .... .... ...0 .... = Frame Pending: False
        .... .... ..1. .... = Acknowledge Request: True
        .... .... .1.. .... = PAN ID Compression: True
        .... .... 0... .... = Reserved: False
        .... ...0 .... .... = Sequence Number Suppression: False
        .... ..0. .... .... = Information Elements Present: False
        .... 10.. .... .... = Destination Addressing Mode: Short/16-bit (0x2)
        ..00 .... .... .... = Frame Version: IEEE Std 802.15.4-2003 (0)
        10.. .... .... .... = Source Addressing Mode: Short/16-bit (0x2)
    Sequence Number: 5
    Destination PAN: 0x3332
    Destination: 0x0203
    Source: 0x0103
    FCS: 0x2f87 (Correct)
    [Ack In: 289]
Data (18 bytes)
    Data: 37000000dd010000010000000000407fb6fe
    [Length: 18]

0000  61 88 05 32 33 03 02 03 01 37 00 00 00 dd 01 00   a..23....7......
0010  00 01 00 00 00 00 00 40 7f b6 fe 87 2f            .......@..../

No.     Time           Source                Destination           Protocol Length Info
    289 11.760632                                                  IEEE 802.15.4 5      Ack

Frame 289: 5 bytes on wire (40 bits), 5 bytes captured (40 bits)
    Encapsulation type: IEEE 802.15.4 Wireless PAN (104)
    Arrival Time: Mar  3, 2023 16:19:07.812095000 CST
    [Time shift for this packet: 0.000000000 seconds]
    Epoch Time: 1677881947.812095000 seconds
    [Time delta from previous captured frame: 0.000547000 seconds]
    [Time delta from previous displayed frame: 0.000547000 seconds]
    [Time since reference or first frame: 11.760632000 seconds]
    Frame Number: 289
    Frame Length: 5 bytes (40 bits)
    Capture Length: 5 bytes (40 bits)
    [Frame is marked: False]
    [Frame is ignored: False]
    [Protocols in frame: wpan]
IEEE 802.15.4 Ack, Sequence Number: 5
    Frame Control Field: 0x0002, Frame Type: Ack, Destination Addressing Mode: None, Frame Version: IEEE Std 802.15.4-2003, Source Addressing Mode: None
        .... .... .... .010 = Frame Type: Ack (0x2)
        .... .... .... 0... = Security Enabled: False
        .... .... ...0 .... = Frame Pending: False
        .... .... ..0. .... = Acknowledge Request: False
        .... .... .0.. .... = PAN ID Compression: False
        .... .... 0... .... = Reserved: False
        .... ...0 .... .... = Sequence Number Suppression: False
        .... ..0. .... .... = Information Elements Present: False
        .... 00.. .... .... = Destination Addressing Mode: None (0x0)
        ..00 .... .... .... = Frame Version: IEEE Std 802.15.4-2003 (0)
        00.. .... .... .... = Source Addressing Mode: None (0x0)
    Sequence Number: 5
    FCS: 0xe215 (Correct)
    [Ack To: 288]
    [Ack Time: 0.547 ms]

0000  02 00 05 15 e2                                    .....

No.     Time           Source                Destination           Protocol Length Info
    290 11.823819      0x0203                0x0103                IEEE 802.15.4 34     Data, Dst: 0x0103, Src: 0x0203

Frame 290: 34 bytes on wire (272 bits), 34 bytes captured (272 bits)
    Encapsulation type: IEEE 802.15.4 Wireless PAN (104)
    Arrival Time: Mar  3, 2023 16:19:07.875282000 CST
    [Time shift for this packet: 0.000000000 seconds]
    Epoch Time: 1677881947.875282000 seconds
    [Time delta from previous captured frame: 0.063187000 seconds]
    [Time delta from previous displayed frame: 0.063187000 seconds]
    [Time since reference or first frame: 11.823819000 seconds]
    Frame Number: 290
    Frame Length: 34 bytes (272 bits)
    Capture Length: 34 bytes (272 bits)
    [Frame is marked: False]
    [Frame is ignored: False]
    [Protocols in frame: wpan:data]
IEEE 802.15.4 Data, Dst: 0x0103, Src: 0x0203
    Frame Control Field: 0x8861, Frame Type: Data, Acknowledge Request, PAN ID Compression, Destination Addressing Mode: Short/16-bit, Frame Version: IEEE Std 802.15.4-2003, Source Addressing Mode: Short/16-bit
        .... .... .... .001 = Frame Type: Data (0x1)
        .... .... .... 0... = Security Enabled: False
        .... .... ...0 .... = Frame Pending: False
        .... .... ..1. .... = Acknowledge Request: True
        .... .... .1.. .... = PAN ID Compression: True
        .... .... 0... .... = Reserved: False
        .... ...0 .... .... = Sequence Number Suppression: False
        .... ..0. .... .... = Information Elements Present: False
        .... 10.. .... .... = Destination Addressing Mode: Short/16-bit (0x2)
        ..00 .... .... .... = Frame Version: IEEE Std 802.15.4-2003 (0)
        10.. .... .... .... = Source Addressing Mode: Short/16-bit (0x2)
    Sequence Number: 220
    Destination PAN: 0x3332
    Destination: 0x0103
    Source: 0x0203
    FCS: 0x0682 (Correct)
    [Ack In: 291]
Data (23 bytes)
    Data: 1000fd0900000cffbe000000000000000608c00403420b
    [Length: 23]

0000  61 88 dc 32 33 03 01 03 02 10 00 fd 09 00 00 0c   a..23...........
0010  ff be 00 00 00 00 00 00 00 06 08 c0 04 03 42 0b   ..............B.
0020  82 06                                             ..

No.     Time           Source                Destination           Protocol Length Info
    291 11.824347                                                  IEEE 802.15.4 5      Ack

Frame 291: 5 bytes on wire (40 bits), 5 bytes captured (40 bits)
    Encapsulation type: IEEE 802.15.4 Wireless PAN (104)
    Arrival Time: Mar  3, 2023 16:19:07.875810000 CST
    [Time shift for this packet: 0.000000000 seconds]
    Epoch Time: 1677881947.875810000 seconds
    [Time delta from previous captured frame: 0.000528000 seconds]
    [Time delta from previous displayed frame: 0.000528000 seconds]
    [Time since reference or first frame: 11.824347000 seconds]
    Frame Number: 291
    Frame Length: 5 bytes (40 bits)
    Capture Length: 5 bytes (40 bits)
    [Frame is marked: False]
    [Frame is ignored: False]
    [Protocols in frame: wpan]
IEEE 802.15.4 Ack, Sequence Number: 220
    Frame Control Field: 0x0002, Frame Type: Ack, Destination Addressing Mode: None, Frame Version: IEEE Std 802.15.4-2003, Source Addressing Mode: None
        .... .... .... .010 = Frame Type: Ack (0x2)
        .... .... .... 0... = Security Enabled: False
        .... .... ...0 .... = Frame Pending: False
        .... .... ..0. .... = Acknowledge Request: False
        .... .... .0.. .... = PAN ID Compression: False
        .... .... 0... .... = Reserved: False
        .... ...0 .... .... = Sequence Number Suppression: False
        .... ..0. .... .... = Information Elements Present: False
        .... 00.. .... .... = Destination Addressing Mode: None (0x0)
        ..00 .... .... .... = Frame Version: IEEE Std 802.15.4-2003 (0)
        00.. .... .... .... = Source Addressing Mode: None (0x0)
    Sequence Number: 220
    FCS: 0xa959 (Correct)
    [Ack To: 290]
    [Ack Time: 0.528 ms]

0000  02 00 dc 59 a9                                    ...Y.

No.     Time           Source                Destination           Protocol Length Info
    292 11.875366      0x0103                0x0203                IEEE 802.15.4 53     Data, Dst: 0x0203, Src: 0x0103

Frame 292: 53 bytes on wire (424 bits), 53 bytes captured (424 bits)
    Encapsulation type: IEEE 802.15.4 Wireless PAN (104)
    Arrival Time: Mar  3, 2023 16:19:07.926829000 CST
    [Time shift for this packet: 0.000000000 seconds]
    Epoch Time: 1677881947.926829000 seconds
    [Time delta from previous captured frame: 0.051019000 seconds]
    [Time delta from previous displayed frame: 0.051019000 seconds]
    [Time since reference or first frame: 11.875366000 seconds]
    Frame Number: 292
    Frame Length: 53 bytes (424 bits)
    Capture Length: 53 bytes (424 bits)
    [Frame is marked: False]
    [Frame is ignored: False]
    [Protocols in frame: wpan:data]
IEEE 802.15.4 Data, Dst: 0x0203, Src: 0x0103
    Frame Control Field: 0x8861, Frame Type: Data, Acknowledge Request, PAN ID Compression, Destination Addressing Mode: Short/16-bit, Frame Version: IEEE Std 802.15.4-2003, Source Addressing Mode: Short/16-bit
        .... .... .... .001 = Frame Type: Data (0x1)
        .... .... .... 0... = Security Enabled: False
        .... .... ...0 .... = Frame Pending: False
        .... .... ..1. .... = Acknowledge Request: True
        .... .... .1.. .... = PAN ID Compression: True
        .... .... 0... .... = Reserved: False
        .... ...0 .... .... = Sequence Number Suppression: False
        .... ..0. .... .... = Information Elements Present: False
        .... 10.. .... .... = Destination Addressing Mode: Short/16-bit (0x2)
        ..00 .... .... .... = Frame Version: IEEE Std 802.15.4-2003 (0)
        10.. .... .... .... = Source Addressing Mode: Short/16-bit (0x2)
    Sequence Number: 6
    Destination PAN: 0x3332
    Destination: 0x0203
    Source: 0x0103
    FCS: 0xe808 (Correct)
    [Ack In: 293]
Data (42 bytes)
    Data: 3800fd1c0000a40301210000371710000000000000000000
    [Length: 42]

0000  61 88 06 32 33 03 02 03 01 38 00 fd 1c 00 00 a4   a..23....8......
0010  03 01 21 00 00 37 17 10 00 00 00 00 00 00 00 00   ..!..7..........
0020  00 30 02 00 00 32 02 00 00 01 00 00 00 00 00 3f   .0...2.........?
0030  7f f5 67 08 e8                                    ..g..

No.     Time           Source                Destination           Protocol Length Info
    293 11.875869                                                  IEEE 802.15.4 5      Ack

Frame 293: 5 bytes on wire (40 bits), 5 bytes captured (40 bits)
    Encapsulation type: IEEE 802.15.4 Wireless PAN (104)
    Arrival Time: Mar  3, 2023 16:19:07.927332000 CST
    [Time shift for this packet: 0.000000000 seconds]
    Epoch Time: 1677881947.927332000 seconds
    [Time delta from previous captured frame: 0.000503000 seconds]
    [Time delta from previous displayed frame: 0.000503000 seconds]
    [Time since reference or first frame: 11.875869000 seconds]
    Frame Number: 293
    Frame Length: 5 bytes (40 bits)
    Capture Length: 5 bytes (40 bits)
    [Frame is marked: False]
    [Frame is ignored: False]
    [Protocols in frame: wpan]
IEEE 802.15.4 Ack, Sequence Number: 6
    Frame Control Field: 0x0002, Frame Type: Ack, Destination Addressing Mode: None, Frame Version: IEEE Std 802.15.4-2003, Source Addressing Mode: None
        .... .... .... .010 = Frame Type: Ack (0x2)
        .... .... .... 0... = Security Enabled: False
        .... .... ...0 .... = Frame Pending: False
        .... .... ..0. .... = Acknowledge Request: False
        .... .... .0.. .... = PAN ID Compression: False
        .... .... 0... .... = Reserved: False
        .... ...0 .... .... = Sequence Number Suppression: False
        .... ..0. .... .... = Information Elements Present: False
        .... 00.. .... .... = Destination Addressing Mode: None (0x0)
        ..00 .... .... .... = Frame Version: IEEE Std 802.15.4-2003 (0)
        00.. .... .... .... = Source Addressing Mode: None (0x0)
    Sequence Number: 6
    FCS: 0xd08e (Correct)
    [Ack To: 292]
    [Ack Time: 0.503 ms]

0000  02 00 06 8e d0                                    .....

No.     Time           Source                Destination           Protocol Length Info
    294 12.001138      0x0103                0x0203                IEEE 802.15.4 53     Data, Dst: 0x0203, Src: 0x0103

Frame 294: 53 bytes on wire (424 bits), 53 bytes captured (424 bits)
    Encapsulation type: IEEE 802.15.4 Wireless PAN (104)
    Arrival Time: Mar  3, 2023 16:19:08.052601000 CST
    [Time shift for this packet: 0.000000000 seconds]
    Epoch Time: 1677881948.052601000 seconds
    [Time delta from previous captured frame: 0.125269000 seconds]
    [Time delta from previous displayed frame: 0.125269000 seconds]
    [Time since reference or first frame: 12.001138000 seconds]
    Frame Number: 294
    Frame Length: 53 bytes (424 bits)
    Capture Length: 53 bytes (424 bits)
    [Frame is marked: False]
    [Frame is ignored: False]
    [Protocols in frame: wpan:data]
IEEE 802.15.4 Data, Dst: 0x0203, Src: 0x0103
    Frame Control Field: 0x8861, Frame Type: Data, Acknowledge Request, PAN ID Compression, Destination Addressing Mode: Short/16-bit, Frame Version: IEEE Std 802.15.4-2003, Source Addressing Mode: Short/16-bit
        .... .... .... .001 = Frame Type: Data (0x1)
        .... .... .... 0... = Security Enabled: False
        .... .... ...0 .... = Frame Pending: False
        .... .... ..1. .... = Acknowledge Request: True
        .... .... .1.. .... = PAN ID Compression: True
        .... .... 0... .... = Reserved: False
        .... ...0 .... .... = Sequence Number Suppression: False
        .... ..0. .... .... = Information Elements Present: False
        .... 10.. .... .... = Destination Addressing Mode: Short/16-bit (0x2)
        ..00 .... .... .... = Frame Version: IEEE Std 802.15.4-2003 (0)
        10.. .... .... .... = Source Addressing Mode: Short/16-bit (0x2)
    Sequence Number: 7
    Destination PAN: 0x3332
    Destination: 0x0203
    Source: 0x0103
    FCS: 0x1d9e (Correct)
    [Ack In: 295]
Data (42 bytes)
    Data: 3900fd1c0000a50301210000b51710000000000000000000
    [Length: 42]

0000  61 88 07 32 33 03 02 03 01 39 00 fd 1c 00 00 a5   a..23....9......
0010  03 01 21 00 00 b5 17 10 00 00 00 00 00 00 00 00   ..!.............
0020  00 90 01 00 00 94 01 00 00 01 00 00 00 00 00 3f   ...............?
0030  7f 59 d2 9e 1d                                    .Y...

No.     Time           Source                Destination           Protocol Length Info
    295 12.001673                                                  IEEE 802.15.4 5      Ack

Frame 295: 5 bytes on wire (40 bits), 5 bytes captured (40 bits)
    Encapsulation type: IEEE 802.15.4 Wireless PAN (104)
    Arrival Time: Mar  3, 2023 16:19:08.053136000 CST
    [Time shift for this packet: 0.000000000 seconds]
    Epoch Time: 1677881948.053136000 seconds
    [Time delta from previous captured frame: 0.000535000 seconds]
    [Time delta from previous displayed frame: 0.000535000 seconds]
    [Time since reference or first frame: 12.001673000 seconds]
    Frame Number: 295
    Frame Length: 5 bytes (40 bits)
    Capture Length: 5 bytes (40 bits)
    [Frame is marked: False]
    [Frame is ignored: False]
    [Protocols in frame: wpan]
IEEE 802.15.4 Ack, Sequence Number: 7
    Frame Control Field: 0x0002, Frame Type: Ack, Destination Addressing Mode: None, Frame Version: IEEE Std 802.15.4-2003, Source Addressing Mode: None
        .... .... .... .010 = Frame Type: Ack (0x2)
        .... .... .... 0... = Security Enabled: False
        .... .... ...0 .... = Frame Pending: False
        .... .... ..0. .... = Acknowledge Request: False
        .... .... .0.. .... = PAN ID Compression: False
        .... .... 0... .... = Reserved: False
        .... ...0 .... .... = Sequence Number Suppression: False
        .... ..0. .... .... = Information Elements Present: False
        .... 00.. .... .... = Destination Addressing Mode: None (0x0)
        ..00 .... .... .... = Frame Version: IEEE Std 802.15.4-2003 (0)
        00.. .... .... .... = Source Addressing Mode: None (0x0)
    Sequence Number: 7
    FCS: 0xc107 (Correct)
    [Ack To: 294]
    [Ack Time: 0.535 ms]

0000  02 00 07 07 c1                                    .....

No.     Time           Source                Destination           Protocol Length Info
    296 12.125655      0x0103                0x0203                IEEE 802.15.4 53     Data, Dst: 0x0203, Src: 0x0103

Frame 296: 53 bytes on wire (424 bits), 53 bytes captured (424 bits)
    Encapsulation type: IEEE 802.15.4 Wireless PAN (104)
    Arrival Time: Mar  3, 2023 16:19:08.177118000 CST
    [Time shift for this packet: 0.000000000 seconds]
    Epoch Time: 1677881948.177118000 seconds
    [Time delta from previous captured frame: 0.123982000 seconds]
    [Time delta from previous displayed frame: 0.123982000 seconds]
    [Time since reference or first frame: 12.125655000 seconds]
    Frame Number: 296
    Frame Length: 53 bytes (424 bits)
    Capture Length: 53 bytes (424 bits)
    [Frame is marked: False]
    [Frame is ignored: False]
    [Protocols in frame: wpan:data]
IEEE 802.15.4 Data, Dst: 0x0203, Src: 0x0103
    Frame Control Field: 0x8861, Frame Type: Data, Acknowledge Request, PAN ID Compression, Destination Addressing Mode: Short/16-bit, Frame Version: IEEE Std 802.15.4-2003, Source Addressing Mode: Short/16-bit
        .... .... .... .001 = Frame Type: Data (0x1)
        .... .... .... 0... = Security Enabled: False
        .... .... ...0 .... = Frame Pending: False
        .... .... ..1. .... = Acknowledge Request: True
        .... .... .1.. .... = PAN ID Compression: True
        .... .... 0... .... = Reserved: False
        .... ...0 .... .... = Sequence Number Suppression: False
        .... ..0. .... .... = Information Elements Present: False
        .... 10.. .... .... = Destination Addressing Mode: Short/16-bit (0x2)
        ..00 .... .... .... = Frame Version: IEEE Std 802.15.4-2003 (0)
        10.. .... .... .... = Source Addressing Mode: Short/16-bit (0x2)
    Sequence Number: 8
    Destination PAN: 0x3332
    Destination: 0x0203
    Source: 0x0103
    FCS: 0xed76 (Correct)
    [Ack In: 297]
Data (42 bytes)
    Data: 3a00fd1c0000a60301210000311810000000000000000000
    [Length: 42]

0000  61 88 08 32 33 03 02 03 01 3a 00 fd 1c 00 00 a6   a..23....:......
0010  03 01 21 00 00 31 18 10 00 00 00 00 00 00 00 00   ..!..1..........
0020  00 f0 00 00 00 f8 00 00 00 01 00 00 00 00 00 3e   ...............>
0030  7f f6 ea 76 ed                                    ...v.

No.     Time           Source                Destination           Protocol Length Info
    297 12.126219                                                  IEEE 802.15.4 5      Ack

Frame 297: 5 bytes on wire (40 bits), 5 bytes captured (40 bits)
    Encapsulation type: IEEE 802.15.4 Wireless PAN (104)
    Arrival Time: Mar  3, 2023 16:19:08.177682000 CST
    [Time shift for this packet: 0.000000000 seconds]
    Epoch Time: 1677881948.177682000 seconds
    [Time delta from previous captured frame: 0.000564000 seconds]
    [Time delta from previous displayed frame: 0.000564000 seconds]
    [Time since reference or first frame: 12.126219000 seconds]
    Frame Number: 297
    Frame Length: 5 bytes (40 bits)
    Capture Length: 5 bytes (40 bits)
    [Frame is marked: False]
    [Frame is ignored: False]
    [Protocols in frame: wpan]
IEEE 802.15.4 Ack, Sequence Number: 8
    Frame Control Field: 0x0002, Frame Type: Ack, Destination Addressing Mode: None, Frame Version: IEEE Std 802.15.4-2003, Source Addressing Mode: None
        .... .... .... .010 = Frame Type: Ack (0x2)
        .... .... .... 0... = Security Enabled: False
        .... .... ...0 .... = Frame Pending: False
        .... .... ..0. .... = Acknowledge Request: False
        .... .... .0.. .... = PAN ID Compression: False
        .... .... 0... .... = Reserved: False
        .... ...0 .... .... = Sequence Number Suppression: False
        .... ..0. .... .... = Information Elements Present: False
        .... 00.. .... .... = Destination Addressing Mode: None (0x0)
        ..00 .... .... .... = Frame Version: IEEE Std 802.15.4-2003 (0)
        00.. .... .... .... = Source Addressing Mode: None (0x0)
    Sequence Number: 8
    FCS: 0x39f0 (Correct)
    [Ack To: 296]
    [Ack Time: 0.564 ms]

0000  02 00 08 f0 39                                    ....9

No.     Time           Source                Destination           Protocol Length Info
    298 12.263408      0x0103                0x0203                IEEE 802.15.4 113    Data, Dst: 0x0203, Src: 0x0103

Frame 298: 113 bytes on wire (904 bits), 113 bytes captured (904 bits)
    Encapsulation type: IEEE 802.15.4 Wireless PAN (104)
    Arrival Time: Mar  3, 2023 16:19:08.314871000 CST
    [Time shift for this packet: 0.000000000 seconds]
    Epoch Time: 1677881948.314871000 seconds
    [Time delta from previous captured frame: 0.137189000 seconds]
    [Time delta from previous displayed frame: 0.137189000 seconds]
    [Time since reference or first frame: 12.263408000 seconds]
    Frame Number: 298
    Frame Length: 113 bytes (904 bits)
    Capture Length: 113 bytes (904 bits)
    [Frame is marked: False]
    [Frame is ignored: False]
    [Protocols in frame: wpan:data]
IEEE 802.15.4 Data, Dst: 0x0203, Src: 0x0103
    Frame Control Field: 0x8861, Frame Type: Data, Acknowledge Request, PAN ID Compression, Destination Addressing Mode: Short/16-bit, Frame Version: IEEE Std 802.15.4-2003, Source Addressing Mode: Short/16-bit
        .... .... .... .001 = Frame Type: Data (0x1)
        .... .... .... 0... = Security Enabled: False
        .... .... ...0 .... = Frame Pending: False
        .... .... ..1. .... = Acknowledge Request: True
        .... .... .1.. .... = PAN ID Compression: True
        .... .... 0... .... = Reserved: False
        .... ...0 .... .... = Sequence Number Suppression: False
        .... ..0. .... .... = Information Elements Present: False
        .... 10.. .... .... = Destination Addressing Mode: Short/16-bit (0x2)
        ..00 .... .... .... = Frame Version: IEEE Std 802.15.4-2003 (0)
        10.. .... .... .... = Source Addressing Mode: Short/16-bit (0x2)
    Sequence Number: 9
    Destination PAN: 0x3332
    Destination: 0x0203
    Source: 0x0103
    FCS: 0x0751 (Correct)
    [Ack In: 299]
Data (102 bytes)
    Data: 3b00fd1f0000a703010100000ffc60130f1c60100f9c5001
    [Length: 102]

0000  61 88 09 32 33 03 02 03 01 3b 00 fd 1f 00 00 a7   a..23....;......
0010  03 01 01 00 00 0f fc 60 13 0f 1c 60 10 0f 9c 50   .......`...`...P
0020  01 fe 01 00 00 ff ff 00 00 00 00 00 00 00 00 00   ................
0030  00 00 00 ff f4 3c fd 16 00 00 a8 03 01 c1 00 00   .....<..........
0040  00 00 00 00 a8 55 1a 3b a6 0e 9c 3b 15 e0 e6 3d   .....U.;...;...=
0050  00 00 00 00 a5 01 0c aa fd 1c 00 00 a9 03 01 1e   ................
0060  00 00 b6 18 10 00 24 f8 a2 3d ea 1e 03 3b b4 51   ......$..=...;.Q
0070  07                                                .

No.     Time           Source                Destination           Protocol Length Info
    299 12.263922                                                  IEEE 802.15.4 5      Ack

Frame 299: 5 bytes on wire (40 bits), 5 bytes captured (40 bits)
    Encapsulation type: IEEE 802.15.4 Wireless PAN (104)
    Arrival Time: Mar  3, 2023 16:19:08.315385000 CST
    [Time shift for this packet: 0.000000000 seconds]
    Epoch Time: 1677881948.315385000 seconds
    [Time delta from previous captured frame: 0.000514000 seconds]
    [Time delta from previous displayed frame: 0.000514000 seconds]
    [Time since reference or first frame: 12.263922000 seconds]
    Frame Number: 299
    Frame Length: 5 bytes (40 bits)
    Capture Length: 5 bytes (40 bits)
    [Frame is marked: False]
    [Frame is ignored: False]
    [Protocols in frame: wpan]
IEEE 802.15.4 Ack, Sequence Number: 9
    Frame Control Field: 0x0002, Frame Type: Ack, Destination Addressing Mode: None, Frame Version: IEEE Std 802.15.4-2003, Source Addressing Mode: None
        .... .... .... .010 = Frame Type: Ack (0x2)
        .... .... .... 0... = Security Enabled: False
        .... .... ...0 .... = Frame Pending: False
        .... .... ..0. .... = Acknowledge Request: False
        .... .... .0.. .... = PAN ID Compression: False
        .... .... 0... .... = Reserved: False
        .... ...0 .... .... = Sequence Number Suppression: False
        .... ..0. .... .... = Information Elements Present: False
        .... 00.. .... .... = Destination Addressing Mode: None (0x0)
        ..00 .... .... .... = Frame Version: IEEE Std 802.15.4-2003 (0)
        00.. .... .... .... = Source Addressing Mode: None (0x0)
    Sequence Number: 9
    FCS: 0x2879 (Correct)
    [Ack To: 298]
    [Ack Time: 0.514 ms]

0000  02 00 09 79 28                                    ...y(

No.     Time           Source                Destination           Protocol Length Info
    300 12.272457      0x0103                0x0203                IEEE 802.15.4 70     Data, Dst: 0x0203, Src: 0x0103

Frame 300: 70 bytes on wire (560 bits), 70 bytes captured (560 bits)
    Encapsulation type: IEEE 802.15.4 Wireless PAN (104)
    Arrival Time: Mar  3, 2023 16:19:08.323920000 CST
    [Time shift for this packet: 0.000000000 seconds]
    Epoch Time: 1677881948.323920000 seconds
    [Time delta from previous captured frame: 0.008535000 seconds]
    [Time delta from previous displayed frame: 0.008535000 seconds]
    [Time since reference or first frame: 12.272457000 seconds]
    Frame Number: 300
    Frame Length: 70 bytes (560 bits)
    Capture Length: 70 bytes (560 bits)
    [Frame is marked: False]
    [Frame is ignored: False]
    [Protocols in frame: wpan:data]
IEEE 802.15.4 Data, Dst: 0x0203, Src: 0x0103
    Frame Control Field: 0x8861, Frame Type: Data, Acknowledge Request, PAN ID Compression, Destination Addressing Mode: Short/16-bit, Frame Version: IEEE Std 802.15.4-2003, Source Addressing Mode: Short/16-bit
        .... .... .... .001 = Frame Type: Data (0x1)
        .... .... .... 0... = Security Enabled: False
        .... .... ...0 .... = Frame Pending: False
        .... .... ..1. .... = Acknowledge Request: True
        .... .... .1.. .... = PAN ID Compression: True
        .... .... 0... .... = Reserved: False
        .... ...0 .... .... = Sequence Number Suppression: False
        .... ..0. .... .... = Information Elements Present: False
        .... 10.. .... .... = Destination Addressing Mode: Short/16-bit (0x2)
        ..00 .... .... .... = Frame Version: IEEE Std 802.15.4-2003 (0)
        10.. .... .... .... = Source Addressing Mode: Short/16-bit (0x2)
    Sequence Number: 10
    Destination PAN: 0x3332
    Destination: 0x0203
    Source: 0x0103
    FCS: 0xaa91 (Correct)
    [Ack In: 301]
Data (59 bytes)
    Data: 3c002319bfe02c9637eedfdb39b1097e3b10ddfd1c0000aa
    [Length: 59]

0000  61 88 0a 32 33 03 02 03 01 3c 00 23 19 bf e0 2c   a..23....<.#...,
0010  96 37 ee df db 39 b1 09 7e 3b 10 dd fd 1c 00 00   .7...9..~;......
0020  aa 03 01 21 00 00 b6 18 10 00 00 00 00 00 00 00   ...!............
0030  00 00 36 01 00 00 3c 01 00 00 01 00 00 00 00 00   ..6...<.........
0040  3d 7f a8 7c 91 aa                                 =..|..

No.     Time           Source                Destination           Protocol Length Info
    301 12.272991                                                  IEEE 802.15.4 5      Ack

Frame 301: 5 bytes on wire (40 bits), 5 bytes captured (40 bits)
    Encapsulation type: IEEE 802.15.4 Wireless PAN (104)
    Arrival Time: Mar  3, 2023 16:19:08.324454000 CST
    [Time shift for this packet: 0.000000000 seconds]
    Epoch Time: 1677881948.324454000 seconds
    [Time delta from previous captured frame: 0.000534000 seconds]
    [Time delta from previous displayed frame: 0.000534000 seconds]
    [Time since reference or first frame: 12.272991000 seconds]
    Frame Number: 301
    Frame Length: 5 bytes (40 bits)
    Capture Length: 5 bytes (40 bits)
    [Frame is marked: False]
    [Frame is ignored: False]
    [Protocols in frame: wpan]
IEEE 802.15.4 Ack, Sequence Number: 10
    Frame Control Field: 0x0002, Frame Type: Ack, Destination Addressing Mode: None, Frame Version: IEEE Std 802.15.4-2003, Source Addressing Mode: None
        .... .... .... .010 = Frame Type: Ack (0x2)
        .... .... .... 0... = Security Enabled: False
        .... .... ...0 .... = Frame Pending: False
        .... .... ..0. .... = Acknowledge Request: False
        .... .... .0.. .... = PAN ID Compression: False
        .... .... 0... .... = Reserved: False
        .... ...0 .... .... = Sequence Number Suppression: False
        .... ..0. .... .... = Information Elements Present: False
        .... 00.. .... .... = Destination Addressing Mode: None (0x0)
        ..00 .... .... .... = Frame Version: IEEE Std 802.15.4-2003 (0)
        00.. .... .... .... = Source Addressing Mode: None (0x0)
    Sequence Number: 10
    FCS: 0x1ae2 (Correct)
    [Ack To: 300]
    [Ack Time: 0.534 ms]

0000  02 00 0a e2 1a                                    .....

No.     Time           Source                Destination           Protocol Length Info
    302 12.318573      0x0103                0x0203                IEEE 802.15.4 34     Data, Dst: 0x0203, Src: 0x0103

Frame 302: 34 bytes on wire (272 bits), 34 bytes captured (272 bits)
    Encapsulation type: IEEE 802.15.4 Wireless PAN (104)
    Arrival Time: Mar  3, 2023 16:19:08.370036000 CST
    [Time shift for this packet: 0.000000000 seconds]
    Epoch Time: 1677881948.370036000 seconds
    [Time delta from previous captured frame: 0.045582000 seconds]
    [Time delta from previous displayed frame: 0.045582000 seconds]
    [Time since reference or first frame: 12.318573000 seconds]
    Frame Number: 302
    Frame Length: 34 bytes (272 bits)
    Capture Length: 34 bytes (272 bits)
    [Frame is marked: False]
    [Frame is ignored: False]
    [Protocols in frame: wpan:data]
IEEE 802.15.4 Data, Dst: 0x0203, Src: 0x0103
    Frame Control Field: 0x8861, Frame Type: Data, Acknowledge Request, PAN ID Compression, Destination Addressing Mode: Short/16-bit, Frame Version: IEEE Std 802.15.4-2003, Source Addressing Mode: Short/16-bit
        .... .... .... .001 = Frame Type: Data (0x1)
        .... .... .... 0... = Security Enabled: False
        .... .... ...0 .... = Frame Pending: False
        .... .... ..1. .... = Acknowledge Request: True
        .... .... .1.. .... = PAN ID Compression: True
        .... .... 0... .... = Reserved: False
        .... ...0 .... .... = Sequence Number Suppression: False
        .... ..0. .... .... = Information Elements Present: False
        .... 10.. .... .... = Destination Addressing Mode: Short/16-bit (0x2)
        ..00 .... .... .... = Frame Version: IEEE Std 802.15.4-2003 (0)
        10.. .... .... .... = Source Addressing Mode: Short/16-bit (0x2)
    Sequence Number: 11
    Destination PAN: 0x3332
    Destination: 0x0203
    Source: 0x0103
    FCS: 0xeb81 (Correct)
    [Ack In: 303]
Data (23 bytes)
    Data: 3d00fd090000ab030100000000000000020351030347a7
    [Length: 23]

0000  61 88 0b 32 33 03 02 03 01 3d 00 fd 09 00 00 ab   a..23....=......
0010  03 01 00 00 00 00 00 00 00 02 03 51 03 03 47 a7   ...........Q..G.
0020  81 eb                                             ..

No.     Time           Source                Destination           Protocol Length Info
    303 12.319091                                                  IEEE 802.15.4 5      Ack

Frame 303: 5 bytes on wire (40 bits), 5 bytes captured (40 bits)
    Encapsulation type: IEEE 802.15.4 Wireless PAN (104)
    Arrival Time: Mar  3, 2023 16:19:08.370554000 CST
    [Time shift for this packet: 0.000000000 seconds]
    Epoch Time: 1677881948.370554000 seconds
    [Time delta from previous captured frame: 0.000518000 seconds]
    [Time delta from previous displayed frame: 0.000518000 seconds]
    [Time since reference or first frame: 12.319091000 seconds]
    Frame Number: 303
    Frame Length: 5 bytes (40 bits)
    Capture Length: 5 bytes (40 bits)
    [Frame is marked: False]
    [Frame is ignored: False]
    [Protocols in frame: wpan]
IEEE 802.15.4 Ack, Sequence Number: 11
    Frame Control Field: 0x0002, Frame Type: Ack, Destination Addressing Mode: None, Frame Version: IEEE Std 802.15.4-2003, Source Addressing Mode: None
        .... .... .... .010 = Frame Type: Ack (0x2)
        .... .... .... 0... = Security Enabled: False
        .... .... ...0 .... = Frame Pending: False
        .... .... ..0. .... = Acknowledge Request: False
        .... .... .0.. .... = PAN ID Compression: False
        .... .... 0... .... = Reserved: False
        .... ...0 .... .... = Sequence Number Suppression: False
        .... ..0. .... .... = Information Elements Present: False
        .... 00.. .... .... = Destination Addressing Mode: None (0x0)
        ..00 .... .... .... = Frame Version: IEEE Std 802.15.4-2003 (0)
        00.. .... .... .... = Source Addressing Mode: None (0x0)
    Sequence Number: 11
    FCS: 0x0b6b (Correct)
    [Ack To: 302]
    [Ack Time: 0.518 ms]

0000  02 00 0b 6b 0b                                    ...k.

No.     Time           Source                Destination           Protocol Length Info
    304 12.375386      0x0103                0x0203                IEEE 802.15.4 53     Data, Dst: 0x0203, Src: 0x0103

Frame 304: 53 bytes on wire (424 bits), 53 bytes captured (424 bits)
    Encapsulation type: IEEE 802.15.4 Wireless PAN (104)
    Arrival Time: Mar  3, 2023 16:19:08.426849000 CST
    [Time shift for this packet: 0.000000000 seconds]
    Epoch Time: 1677881948.426849000 seconds
    [Time delta from previous captured frame: 0.056295000 seconds]
    [Time delta from previous displayed frame: 0.056295000 seconds]
    [Time since reference or first frame: 12.375386000 seconds]
    Frame Number: 304
    Frame Length: 53 bytes (424 bits)
    Capture Length: 53 bytes (424 bits)
    [Frame is marked: False]
    [Frame is ignored: False]
    [Protocols in frame: wpan:data]
IEEE 802.15.4 Data, Dst: 0x0203, Src: 0x0103
    Frame Control Field: 0x8861, Frame Type: Data, Acknowledge Request, PAN ID Compression, Destination Addressing Mode: Short/16-bit, Frame Version: IEEE Std 802.15.4-2003, Source Addressing Mode: Short/16-bit
        .... .... .... .001 = Frame Type: Data (0x1)
        .... .... .... 0... = Security Enabled: False
        .... .... ...0 .... = Frame Pending: False
        .... .... ..1. .... = Acknowledge Request: True
        .... .... .1.. .... = PAN ID Compression: True
        .... .... 0... .... = Reserved: False
        .... ...0 .... .... = Sequence Number Suppression: False
        .... ..0. .... .... = Information Elements Present: False
        .... 10.. .... .... = Destination Addressing Mode: Short/16-bit (0x2)
        ..00 .... .... .... = Frame Version: IEEE Std 802.15.4-2003 (0)
        10.. .... .... .... = Source Addressing Mode: Short/16-bit (0x2)
    Sequence Number: 12
    Destination PAN: 0x3332
    Destination: 0x0203
    Source: 0x0103
    FCS: 0x3cb6 (Correct)
    [Ack In: 305]
Data (42 bytes)
    Data: 3e00fd1c0000ac03012100002b1910000000000000000000
    [Length: 42]

0000  61 88 0c 32 33 03 02 03 01 3e 00 fd 1c 00 00 ac   a..23....>......
0010  03 01 21 00 00 2b 19 10 00 00 00 00 00 00 00 00   ..!..+..........
0020  00 90 01 00 00 99 01 00 00 01 00 00 00 00 00 3c   ...............<
0030  7f d6 e8 b6 3c                                    ....<

No.     Time           Source                Destination           Protocol Length Info
    305 12.375890                                                  IEEE 802.15.4 5      Ack

Frame 305: 5 bytes on wire (40 bits), 5 bytes captured (40 bits)
    Encapsulation type: IEEE 802.15.4 Wireless PAN (104)
    Arrival Time: Mar  3, 2023 16:19:08.427353000 CST
    [Time shift for this packet: 0.000000000 seconds]
    Epoch Time: 1677881948.427353000 seconds
    [Time delta from previous captured frame: 0.000504000 seconds]
    [Time delta from previous displayed frame: 0.000504000 seconds]
    [Time since reference or first frame: 12.375890000 seconds]
    Frame Number: 305
    Frame Length: 5 bytes (40 bits)
    Capture Length: 5 bytes (40 bits)
    [Frame is marked: False]
    [Frame is ignored: False]
    [Protocols in frame: wpan]
IEEE 802.15.4 Ack, Sequence Number: 12
    Frame Control Field: 0x0002, Frame Type: Ack, Destination Addressing Mode: None, Frame Version: IEEE Std 802.15.4-2003, Source Addressing Mode: None
        .... .... .... .010 = Frame Type: Ack (0x2)
        .... .... .... 0... = Security Enabled: False
        .... .... ...0 .... = Frame Pending: False
        .... .... ..0. .... = Acknowledge Request: False
        .... .... .0.. .... = PAN ID Compression: False
        .... .... 0... .... = Reserved: False
        .... ...0 .... .... = Sequence Number Suppression: False
        .... ..0. .... .... = Information Elements Present: False
        .... 00.. .... .... = Destination Addressing Mode: None (0x0)
        ..00 .... .... .... = Frame Version: IEEE Std 802.15.4-2003 (0)
        00.. .... .... .... = Source Addressing Mode: None (0x0)
    Sequence Number: 12
    FCS: 0x7fd4 (Correct)
    [Ack To: 304]
    [Ack Time: 0.504 ms]

0000  02 00 0c d4 7f                                    .....

No.     Time           Source                Destination           Protocol Length Info
    306 12.497537      0x0103                0x0203                IEEE 802.15.4 53     Data, Dst: 0x0203, Src: 0x0103

Frame 306: 53 bytes on wire (424 bits), 53 bytes captured (424 bits)
    Encapsulation type: IEEE 802.15.4 Wireless PAN (104)
    Arrival Time: Mar  3, 2023 16:19:08.549000000 CST
    [Time shift for this packet: 0.000000000 seconds]
    Epoch Time: 1677881948.549000000 seconds
    [Time delta from previous captured frame: 0.121647000 seconds]
    [Time delta from previous displayed frame: 0.121647000 seconds]
    [Time since reference or first frame: 12.497537000 seconds]
    Frame Number: 306
    Frame Length: 53 bytes (424 bits)
    Capture Length: 53 bytes (424 bits)
    [Frame is marked: False]
    [Frame is ignored: False]
    [Protocols in frame: wpan:data]
IEEE 802.15.4 Data, Dst: 0x0203, Src: 0x0103
    Frame Control Field: 0x8861, Frame Type: Data, Acknowledge Request, PAN ID Compression, Destination Addressing Mode: Short/16-bit, Frame Version: IEEE Std 802.15.4-2003, Source Addressing Mode: Short/16-bit
        .... .... .... .001 = Frame Type: Data (0x1)
        .... .... .... 0... = Security Enabled: False
        .... .... ...0 .... = Frame Pending: False
        .... .... ..1. .... = Acknowledge Request: True
        .... .... .1.. .... = PAN ID Compression: True
        .... .... 0... .... = Reserved: False
        .... ...0 .... .... = Sequence Number Suppression: False
        .... ..0. .... .... = Information Elements Present: False
        .... 10.. .... .... = Destination Addressing Mode: Short/16-bit (0x2)
        ..00 .... .... .... = Frame Version: IEEE Std 802.15.4-2003 (0)
        10.. .... .... .... = Source Addressing Mode: Short/16-bit (0x2)
    Sequence Number: 13
    Destination PAN: 0x3332
    Destination: 0x0203
    Source: 0x0103
    FCS: 0xb2fb (Correct)
    [Ack In: 307]
Data (42 bytes)
    Data: 3f00fd1c0000ad0301210000a61910000000000000000000
    [Length: 42]

0000  61 88 0d 32 33 03 02 03 01 3f 00 fd 1c 00 00 ad   a..23....?......
0010  03 01 21 00 00 a6 19 10 00 00 00 00 00 00 00 00   ..!.............
0020  00 a4 01 00 00 aa 01 00 00 01 00 00 00 00 00 3c   ...............<
0030  7f 41 ce fb b2                                    .A...

No.     Time           Source                Destination           Protocol Length Info
    307 12.498051                                                  IEEE 802.15.4 5      Ack

Frame 307: 5 bytes on wire (40 bits), 5 bytes captured (40 bits)
    Encapsulation type: IEEE 802.15.4 Wireless PAN (104)
    Arrival Time: Mar  3, 2023 16:19:08.549514000 CST
    [Time shift for this packet: 0.000000000 seconds]
    Epoch Time: 1677881948.549514000 seconds
    [Time delta from previous captured frame: 0.000514000 seconds]
    [Time delta from previous displayed frame: 0.000514000 seconds]
    [Time since reference or first frame: 12.498051000 seconds]
    Frame Number: 307
    Frame Length: 5 bytes (40 bits)
    Capture Length: 5 bytes (40 bits)
    [Frame is marked: False]
    [Frame is ignored: False]
    [Protocols in frame: wpan]
IEEE 802.15.4 Ack, Sequence Number: 13
    Frame Control Field: 0x0002, Frame Type: Ack, Destination Addressing Mode: None, Frame Version: IEEE Std 802.15.4-2003, Source Addressing Mode: None
        .... .... .... .010 = Frame Type: Ack (0x2)
        .... .... .... 0... = Security Enabled: False
        .... .... ...0 .... = Frame Pending: False
        .... .... ..0. .... = Acknowledge Request: False
        .... .... .0.. .... = PAN ID Compression: False
        .... .... 0... .... = Reserved: False
        .... ...0 .... .... = Sequence Number Suppression: False
        .... ..0. .... .... = Information Elements Present: False
        .... 00.. .... .... = Destination Addressing Mode: None (0x0)
        ..00 .... .... .... = Frame Version: IEEE Std 802.15.4-2003 (0)
        00.. .... .... .... = Source Addressing Mode: None (0x0)
    Sequence Number: 13
    FCS: 0x6e5d (Correct)
    [Ack To: 306]
    [Ack Time: 0.514 ms]

0000  02 00 0d 5d 6e                                    ...]n

No.     Time           Source                Destination           Protocol Length Info
    308 12.625501      0x0103                0x0203                IEEE 802.15.4 53     Data, Dst: 0x0203, Src: 0x0103

Frame 308: 53 bytes on wire (424 bits), 53 bytes captured (424 bits)
    Encapsulation type: IEEE 802.15.4 Wireless PAN (104)
    Arrival Time: Mar  3, 2023 16:19:08.676964000 CST
    [Time shift for this packet: 0.000000000 seconds]
    Epoch Time: 1677881948.676964000 seconds
    [Time delta from previous captured frame: 0.127450000 seconds]
    [Time delta from previous displayed frame: 0.127450000 seconds]
    [Time since reference or first frame: 12.625501000 seconds]
    Frame Number: 308
    Frame Length: 53 bytes (424 bits)
    Capture Length: 53 bytes (424 bits)
    [Frame is marked: False]
    [Frame is ignored: False]
    [Protocols in frame: wpan:data]
IEEE 802.15.4 Data, Dst: 0x0203, Src: 0x0103
    Frame Control Field: 0x8861, Frame Type: Data, Acknowledge Request, PAN ID Compression, Destination Addressing Mode: Short/16-bit, Frame Version: IEEE Std 802.15.4-2003, Source Addressing Mode: Short/16-bit
        .... .... .... .001 = Frame Type: Data (0x1)
        .... .... .... 0... = Security Enabled: False
        .... .... ...0 .... = Frame Pending: False
        .... .... ..1. .... = Acknowledge Request: True
        .... .... .1.. .... = PAN ID Compression: True
        .... .... 0... .... = Reserved: False
        .... ...0 .... .... = Sequence Number Suppression: False
        .... ..0. .... .... = Information Elements Present: False
        .... 10.. .... .... = Destination Addressing Mode: Short/16-bit (0x2)
        ..00 .... .... .... = Frame Version: IEEE Std 802.15.4-2003 (0)
        10.. .... .... .... = Source Addressing Mode: Short/16-bit (0x2)
    Sequence Number: 14
    Destination PAN: 0x3332
    Destination: 0x0203
    Source: 0x0103
    FCS: 0x454a (Correct)
    [Ack In: 309]
Data (42 bytes)
    Data: 4000fd1c0000ae0301210000251a10000000000000000000
    [Length: 42]

0000  61 88 0e 32 33 03 02 03 01 40 00 fd 1c 00 00 ae   a..23....@......
0010  03 01 21 00 00 25 1a 10 00 00 00 00 00 00 00 00   ..!..%..........
0020  00 90 01 00 00 96 01 00 00 01 00 00 00 00 00 3b   ...............;
0030  7f c2 e6 4a 45                                    ...JE

No.     Time           Source                Destination           Protocol Length Info
    309 12.626016                                                  IEEE 802.15.4 5      Ack

Frame 309: 5 bytes on wire (40 bits), 5 bytes captured (40 bits)
    Encapsulation type: IEEE 802.15.4 Wireless PAN (104)
    Arrival Time: Mar  3, 2023 16:19:08.677479000 CST
    [Time shift for this packet: 0.000000000 seconds]
    Epoch Time: 1677881948.677479000 seconds
    [Time delta from previous captured frame: 0.000515000 seconds]
    [Time delta from previous displayed frame: 0.000515000 seconds]
    [Time since reference or first frame: 12.626016000 seconds]
    Frame Number: 309
    Frame Length: 5 bytes (40 bits)
    Capture Length: 5 bytes (40 bits)
    [Frame is marked: False]
    [Frame is ignored: False]
    [Protocols in frame: wpan]
IEEE 802.15.4 Ack, Sequence Number: 14
    Frame Control Field: 0x0002, Frame Type: Ack, Destination Addressing Mode: None, Frame Version: IEEE Std 802.15.4-2003, Source Addressing Mode: None
        .... .... .... .010 = Frame Type: Ack (0x2)
        .... .... .... 0... = Security Enabled: False
        .... .... ...0 .... = Frame Pending: False
        .... .... ..0. .... = Acknowledge Request: False
        .... .... .0.. .... = PAN ID Compression: False
        .... .... 0... .... = Reserved: False
        .... ...0 .... .... = Sequence Number Suppression: False
        .... ..0. .... .... = Information Elements Present: False
        .... 00.. .... .... = Destination Addressing Mode: None (0x0)
        ..00 .... .... .... = Frame Version: IEEE Std 802.15.4-2003 (0)
        00.. .... .... .... = Source Addressing Mode: None (0x0)
    Sequence Number: 14
    FCS: 0x5cc6 (Correct)
    [Ack To: 308]
    [Ack Time: 0.515 ms]

0000  02 00 0e c6 5c                                    ....\

No.     Time           Source                Destination           Protocol Length Info
    310 12.763797      0x0103                0x0203                IPv6     93     Bogus IPv6 version (0, must be 6)

Frame 310: 93 bytes on wire (744 bits), 93 bytes captured (744 bits)
    Encapsulation type: IEEE 802.15.4 Wireless PAN (104)
    Arrival Time: Mar  3, 2023 16:19:08.815260000 CST
    [Time shift for this packet: 0.000000000 seconds]
    Epoch Time: 1677881948.815260000 seconds
    [Time delta from previous captured frame: 0.137781000 seconds]
    [Time delta from previous displayed frame: 0.137781000 seconds]
    [Time since reference or first frame: 12.763797000 seconds]
    Frame Number: 310
    Frame Length: 93 bytes (744 bits)
    Capture Length: 93 bytes (744 bits)
    [Frame is marked: False]
    [Frame is ignored: False]
    [Protocols in frame: wpan:6lowpan:data]
IEEE 802.15.4 Data, Dst: 0x0203, Src: 0x0103
    Frame Control Field: 0x8861, Frame Type: Data, Acknowledge Request, PAN ID Compression, Destination Addressing Mode: Short/16-bit, Frame Version: IEEE Std 802.15.4-2003, Source Addressing Mode: Short/16-bit
        .... .... .... .001 = Frame Type: Data (0x1)
        .... .... .... 0... = Security Enabled: False
        .... .... ...0 .... = Frame Pending: False
        .... .... ..1. .... = Acknowledge Request: True
        .... .... .1.. .... = PAN ID Compression: True
        .... .... 0... .... = Reserved: False
        .... ...0 .... .... = Sequence Number Suppression: False
        .... ..0. .... .... = Information Elements Present: False
        .... 10.. .... .... = Destination Addressing Mode: Short/16-bit (0x2)
        ..00 .... .... .... = Frame Version: IEEE Std 802.15.4-2003 (0)
        10.. .... .... .... = Source Addressing Mode: Short/16-bit (0x2)
    Sequence Number: 15
    Destination PAN: 0x3332
    Destination: 0x0203
    Source: 0x0103
    FCS: 0xbafa (Correct)
    [Ack In: 311]
6LoWPAN
    0100 0001 = Pattern: Uncompressed IPv6 (0x41)
Internet Protocol Version 6
    0000 .... = Version: 0
        [Expert Info (Error/Malformed): Bogus IPv6 version]
            [Bogus IPv6 version]
            [Severity level: Error]
            [Group: Malformed]
Data (81 bytes)
    Data: 00fd1c0000af03011e0000a71a10005603a33ddb4b013bb0
    [Length: 81]

0000  61 88 0f 32 33 03 02 03 01 41 00 fd 1c 00 00 af   a..23....A......
0010  03 01 1e 00 00 a7 1a 10 00 56 03 a3 3d db 4b 01   .........V..=.K.
0020  3b b0 41 19 bf 06 a6 87 3a d2 bb 15 b9 dc 6b 78   ;.A.....:.....kx
0030  3b b6 fd fd 1c 00 00 b0 03 01 21 00 00 a7 1a 10   ;.........!.....
0040  00 00 00 00 00 00 00 00 00 4a 01 00 00 50 01 00   .........J...P..
0050  00 01 00 00 00 00 00 3a 7f ba c1 fa ba            .......:.....

No.     Time           Source                Destination           Protocol Length Info
    311 12.764352                                                  IEEE 802.15.4 5      Ack

Frame 311: 5 bytes on wire (40 bits), 5 bytes captured (40 bits)
    Encapsulation type: IEEE 802.15.4 Wireless PAN (104)
    Arrival Time: Mar  3, 2023 16:19:08.815815000 CST
    [Time shift for this packet: 0.000000000 seconds]
    Epoch Time: 1677881948.815815000 seconds
    [Time delta from previous captured frame: 0.000555000 seconds]
    [Time delta from previous displayed frame: 0.000555000 seconds]
    [Time since reference or first frame: 12.764352000 seconds]
    Frame Number: 311
    Frame Length: 5 bytes (40 bits)
    Capture Length: 5 bytes (40 bits)
    [Frame is marked: False]
    [Frame is ignored: False]
    [Protocols in frame: wpan]
IEEE 802.15.4 Ack, Sequence Number: 15
    Frame Control Field: 0x0002, Frame Type: Ack, Destination Addressing Mode: None, Frame Version: IEEE Std 802.15.4-2003, Source Addressing Mode: None
        .... .... .... .010 = Frame Type: Ack (0x2)
        .... .... .... 0... = Security Enabled: False
        .... .... ...0 .... = Frame Pending: False
        .... .... ..0. .... = Acknowledge Request: False
        .... .... .0.. .... = PAN ID Compression: False
        .... .... 0... .... = Reserved: False
        .... ...0 .... .... = Sequence Number Suppression: False
        .... ..0. .... .... = Information Elements Present: False
        .... 00.. .... .... = Destination Addressing Mode: None (0x0)
        ..00 .... .... .... = Frame Version: IEEE Std 802.15.4-2003 (0)
        00.. .... .... .... = Source Addressing Mode: None (0x0)
    Sequence Number: 15
    FCS: 0x4d4f (Correct)
    [Ack To: 310]
    [Ack Time: 0.555 ms]

0000  02 00 0f 4f 4d                                    ...OM

No.     Time           Source                Destination           Protocol Length Info
    312 12.823518      0x0203                0x0103                IEEE 802.15.4 34     Data, Dst: 0x0103, Src: 0x0203

Frame 312: 34 bytes on wire (272 bits), 34 bytes captured (272 bits)
    Encapsulation type: IEEE 802.15.4 Wireless PAN (104)
    Arrival Time: Mar  3, 2023 16:19:08.874981000 CST
    [Time shift for this packet: 0.000000000 seconds]
    Epoch Time: 1677881948.874981000 seconds
    [Time delta from previous captured frame: 0.059166000 seconds]
    [Time delta from previous displayed frame: 0.059166000 seconds]
    [Time since reference or first frame: 12.823518000 seconds]
    Frame Number: 312
    Frame Length: 34 bytes (272 bits)
    Capture Length: 34 bytes (272 bits)
    [Frame is marked: False]
    [Frame is ignored: False]
    [Protocols in frame: wpan:data]
IEEE 802.15.4 Data, Dst: 0x0103, Src: 0x0203
    Frame Control Field: 0x8861, Frame Type: Data, Acknowledge Request, PAN ID Compression, Destination Addressing Mode: Short/16-bit, Frame Version: IEEE Std 802.15.4-2003, Source Addressing Mode: Short/16-bit
        .... .... .... .001 = Frame Type: Data (0x1)
        .... .... .... 0... = Security Enabled: False
        .... .... ...0 .... = Frame Pending: False
        .... .... ..1. .... = Acknowledge Request: True
        .... .... .1.. .... = PAN ID Compression: True
        .... .... 0... .... = Reserved: False
        .... ...0 .... .... = Sequence Number Suppression: False
        .... ..0. .... .... = Information Elements Present: False
        .... 10.. .... .... = Destination Addressing Mode: Short/16-bit (0x2)
        ..00 .... .... .... = Frame Version: IEEE Std 802.15.4-2003 (0)
        10.. .... .... .... = Source Addressing Mode: Short/16-bit (0x2)
    Sequence Number: 221
    Destination PAN: 0x3332
    Destination: 0x0103
    Source: 0x0203
    FCS: 0x4750 (Correct)
    [Ack In: 313]
Data (23 bytes)
    Data: 1100fd0900000dffbe000000000000000608c004035285
    [Length: 23]

0000  61 88 dd 32 33 03 01 03 02 11 00 fd 09 00 00 0d   a..23...........
0010  ff be 00 00 00 00 00 00 00 06 08 c0 04 03 52 85   ..............R.
0020  50 47                                             PG

No.     Time           Source                Destination           Protocol Length Info
    313 12.824028                                                  IEEE 802.15.4 5      Ack

Frame 313: 5 bytes on wire (40 bits), 5 bytes captured (40 bits)
    Encapsulation type: IEEE 802.15.4 Wireless PAN (104)
    Arrival Time: Mar  3, 2023 16:19:08.875491000 CST
    [Time shift for this packet: 0.000000000 seconds]
    Epoch Time: 1677881948.875491000 seconds
    [Time delta from previous captured frame: 0.000510000 seconds]
    [Time delta from previous displayed frame: 0.000510000 seconds]
    [Time since reference or first frame: 12.824028000 seconds]
    Frame Number: 313
    Frame Length: 5 bytes (40 bits)
    Capture Length: 5 bytes (40 bits)
    [Frame is marked: False]
    [Frame is ignored: False]
    [Protocols in frame: wpan]
IEEE 802.15.4 Ack, Sequence Number: 221
    Frame Control Field: 0x0002, Frame Type: Ack, Destination Addressing Mode: None, Frame Version: IEEE Std 802.15.4-2003, Source Addressing Mode: None
        .... .... .... .010 = Frame Type: Ack (0x2)
        .... .... .... 0... = Security Enabled: False
        .... .... ...0 .... = Frame Pending: False
        .... .... ..0. .... = Acknowledge Request: False
        .... .... .0.. .... = PAN ID Compression: False
        .... .... 0... .... = Reserved: False
        .... ...0 .... .... = Sequence Number Suppression: False
        .... ..0. .... .... = Information Elements Present: False
        .... 00.. .... .... = Destination Addressing Mode: None (0x0)
        ..00 .... .... .... = Frame Version: IEEE Std 802.15.4-2003 (0)
        00.. .... .... .... = Source Addressing Mode: None (0x0)
    Sequence Number: 221
    FCS: 0xb8d0 (Correct)
    [Ack To: 312]
    [Ack Time: 0.510 ms]

0000  02 00 dd d0 b8                                    .....

No.     Time           Source                Destination           Protocol Length Info
    314 12.872696      1c00:b1:301:2100:1d:1b10:: ::68:100:6f:100:1:0   IPv6     53     Unknown IP Protocol: Unassigned (167)

Frame 314: 53 bytes on wire (424 bits), 53 bytes captured (424 bits)
    Encapsulation type: IEEE 802.15.4 Wireless PAN (104)
    Arrival Time: Mar  3, 2023 16:19:08.924159000 CST
    [Time shift for this packet: 0.000000000 seconds]
    Epoch Time: 1677881948.924159000 seconds
    [Time delta from previous captured frame: 0.048668000 seconds]
    [Time delta from previous displayed frame: 0.048668000 seconds]
    [Time since reference or first frame: 12.872696000 seconds]
    Frame Number: 314
    Frame Length: 53 bytes (424 bits)
    Capture Length: 53 bytes (424 bits)
    [Frame is marked: False]
    [Frame is ignored: False]
    [Protocols in frame: wpan:6lowpan:ipv6:data]
IEEE 802.15.4 Data, Dst: 0x0203, Src: 0x0103
    Frame Control Field: 0x8861, Frame Type: Data, Acknowledge Request, PAN ID Compression, Destination Addressing Mode: Short/16-bit, Frame Version: IEEE Std 802.15.4-2003, Source Addressing Mode: Short/16-bit
        .... .... .... .001 = Frame Type: Data (0x1)
        .... .... .... 0... = Security Enabled: False
        .... .... ...0 .... = Frame Pending: False
        .... .... ..1. .... = Acknowledge Request: True
        .... .... .1.. .... = PAN ID Compression: True
        .... .... 0... .... = Reserved: False
        .... ...0 .... .... = Sequence Number Suppression: False
        .... ..0. .... .... = Information Elements Present: False
        .... 10.. .... .... = Destination Addressing Mode: Short/16-bit (0x2)
        ..00 .... .... .... = Frame Version: IEEE Std 802.15.4-2003 (0)
        10.. .... .... .... = Source Addressing Mode: Short/16-bit (0x2)
    Sequence Number: 16
    Destination PAN: 0x3332
    Destination: 0x0203
    Source: 0x0103
    FCS: 0x592f (Correct)
    [Ack In: 315]
6LoWPAN
    HC1 Encoding
        0100 0010 = Pattern: Header compression (0x42)
        HC1 Encoding: 0x00, Next header: Inline
            0... .... = Source prefix: Inline
            .0.. .... = Source interface: Inline
            ..0. .... = Destination prefix: Inline
            ...0 .... = Destination interface: Inline
            .... 0... = Traffic class and flow label: Inline
            .... .00. = Next header: Inline (0x0)
            .... ...0 = More HC bits: False
    Hop limit: 253
    Source: 1c00:b1:301:2100:1d:1b10:: (1c00:b1:301:2100:1d:1b10::)
    Destination: ::68:100:6f:100:1:0 (::68:100:6f:100:1:0)
    Traffic class: 0x00
    Flow label: 0x000003
    Next header: Unassigned (0xa7)
Internet Protocol Version 6, Src: 1c00:b1:301:2100:1d:1b10:: (1c00:b1:301:2100:1d:1b10::), Dst: ::68:100:6f:100:1:0 (::68:100:6f:100:1:0)
    0110 .... = Version: 6
    .... 0000 0000 .... .... .... .... .... = Traffic Class: 0x00 (DSCP: CS0, ECN: Not-ECT)
        .... 0000 00.. .... .... .... .... .... = Differentiated Services Codepoint: Default (0)
        .... .... ..00 .... .... .... .... .... = Explicit Congestion Notification: Not ECN-Capable Transport (0)
    .... .... .... 0000 0000 0000 0000 0011 = Flow Label: 0x00003
    Payload Length: 2
    Next Header: Unassigned (167)
    Hop Limit: 253
    Source: 1c00:b1:301:2100:1d:1b10:: (1c00:b1:301:2100:1d:1b10::)
    Destination: ::68:100:6f:100:1:0 (::68:100:6f:100:1:0)
Data (2 bytes)
    Data: b9b1
    [Length: 2]

Frame (53 bytes):
0000  61 88 10 32 33 03 02 03 01 42 00 fd 1c 00 00 b1   a..23....B......
0010  03 01 21 00 00 1d 1b 10 00 00 00 00 00 00 00 00   ..!.............
0020  00 68 01 00 00 6f 01 00 00 01 00 00 00 00 00 3a   .h...o.........:
0030  7f b9 b1 2f 59                                    .../Y
Decompressed 6LoWPAN HC1 (42 bytes):
0000  60 00 00 03 00 02 a7 fd 1c 00 00 b1 03 01 21 00   `.............!.
0010  00 1d 1b 10 00 00 00 00 00 00 00 00 00 68 01 00   .............h..
0020  00 6f 01 00 00 01 00 00 b9 b1                     .o........

No.     Time           Source                Destination           Protocol Length Info
    315 12.873217                                                  IEEE 802.15.4 5      Ack

Frame 315: 5 bytes on wire (40 bits), 5 bytes captured (40 bits)
    Encapsulation type: IEEE 802.15.4 Wireless PAN (104)
    Arrival Time: Mar  3, 2023 16:19:08.924680000 CST
    [Time shift for this packet: 0.000000000 seconds]
    Epoch Time: 1677881948.924680000 seconds
    [Time delta from previous captured frame: 0.000521000 seconds]
    [Time delta from previous displayed frame: 0.000521000 seconds]
    [Time since reference or first frame: 12.873217000 seconds]
    Frame Number: 315
    Frame Length: 5 bytes (40 bits)
    Capture Length: 5 bytes (40 bits)
    [Frame is marked: False]
    [Frame is ignored: False]
    [Protocols in frame: wpan]
IEEE 802.15.4 Ack, Sequence Number: 16
    Frame Control Field: 0x0002, Frame Type: Ack, Destination Addressing Mode: None, Frame Version: IEEE Std 802.15.4-2003, Source Addressing Mode: None
        .... .... .... .010 = Frame Type: Ack (0x2)
        .... .... .... 0... = Security Enabled: False
        .... .... ...0 .... = Frame Pending: False
        .... .... ..0. .... = Acknowledge Request: False
        .... .... .0.. .... = PAN ID Compression: False
        .... .... 0... .... = Reserved: False
        .... ...0 .... .... = Sequence Number Suppression: False
        .... ..0. .... .... = Information Elements Present: False
        .... 00.. .... .... = Destination Addressing Mode: None (0x0)
        ..00 .... .... .... = Frame Version: IEEE Std 802.15.4-2003 (0)
        00.. .... .... .... = Source Addressing Mode: None (0x0)
    Sequence Number: 16
    FCS: 0xa539 (Correct)
    [Ack To: 314]
    [Ack Time: 0.521 ms]

0000  02 00 10 39 a5                                    ...9.

No.     Time           Source                Destination           Protocol Length Info
    316 13.001020      0x0103                0x0203                IEEE 802.15.4 53     Data, Dst: 0x0203, Src: 0x0103

Frame 316: 53 bytes on wire (424 bits), 53 bytes captured (424 bits)
    Encapsulation type: IEEE 802.15.4 Wireless PAN (104)
    Arrival Time: Mar  3, 2023 16:19:09.052483000 CST
    [Time shift for this packet: 0.000000000 seconds]
    Epoch Time: 1677881949.052483000 seconds
    [Time delta from previous captured frame: 0.127803000 seconds]
    [Time delta from previous displayed frame: 0.127803000 seconds]
    [Time since reference or first frame: 13.001020000 seconds]
    Frame Number: 316
    Frame Length: 53 bytes (424 bits)
    Capture Length: 53 bytes (424 bits)
    [Frame is marked: False]
    [Frame is ignored: False]
    [Protocols in frame: wpan:data]
IEEE 802.15.4 Data, Dst: 0x0203, Src: 0x0103
    Frame Control Field: 0x8861, Frame Type: Data, Acknowledge Request, PAN ID Compression, Destination Addressing Mode: Short/16-bit, Frame Version: IEEE Std 802.15.4-2003, Source Addressing Mode: Short/16-bit
        .... .... .... .001 = Frame Type: Data (0x1)
        .... .... .... 0... = Security Enabled: False
        .... .... ...0 .... = Frame Pending: False
        .... .... ..1. .... = Acknowledge Request: True
        .... .... .1.. .... = PAN ID Compression: True
        .... .... 0... .... = Reserved: False
        .... ...0 .... .... = Sequence Number Suppression: False
        .... ..0. .... .... = Information Elements Present: False
        .... 10.. .... .... = Destination Addressing Mode: Short/16-bit (0x2)
        ..00 .... .... .... = Frame Version: IEEE Std 802.15.4-2003 (0)
        10.. .... .... .... = Source Addressing Mode: Short/16-bit (0x2)
    Sequence Number: 17
    Destination PAN: 0x3332
    Destination: 0x0203
    Source: 0x0103
    FCS: 0xf02c (Correct)
    [Ack In: 317]
Data (42 bytes)
    Data: 4300fd1c0000b203012100009d1b10000000000000000000
    [Length: 42]

0000  61 88 11 32 33 03 02 03 01 43 00 fd 1c 00 00 b2   a..23....C......
0010  03 01 21 00 00 9d 1b 10 00 00 00 00 00 00 00 00   ..!.............
0020  00 cc 01 00 00 d2 01 00 00 01 00 00 00 00 00 39   ...............9
0030  7f cc 2f 2c f0                                    ../,.

No.     Time           Source                Destination           Protocol Length Info
    317 13.001544                                                  IEEE 802.15.4 5      Ack

Frame 317: 5 bytes on wire (40 bits), 5 bytes captured (40 bits)
    Encapsulation type: IEEE 802.15.4 Wireless PAN (104)
    Arrival Time: Mar  3, 2023 16:19:09.053007000 CST
    [Time shift for this packet: 0.000000000 seconds]
    Epoch Time: 1677881949.053007000 seconds
    [Time delta from previous captured frame: 0.000524000 seconds]
    [Time delta from previous displayed frame: 0.000524000 seconds]
    [Time since reference or first frame: 13.001544000 seconds]
    Frame Number: 317
    Frame Length: 5 bytes (40 bits)
    Capture Length: 5 bytes (40 bits)
    [Frame is marked: False]
    [Frame is ignored: False]
    [Protocols in frame: wpan]
IEEE 802.15.4 Ack, Sequence Number: 17
    Frame Control Field: 0x0002, Frame Type: Ack, Destination Addressing Mode: None, Frame Version: IEEE Std 802.15.4-2003, Source Addressing Mode: None
        .... .... .... .010 = Frame Type: Ack (0x2)
        .... .... .... 0... = Security Enabled: False
        .... .... ...0 .... = Frame Pending: False
        .... .... ..0. .... = Acknowledge Request: False
        .... .... .0.. .... = PAN ID Compression: False
        .... .... 0... .... = Reserved: False
        .... ...0 .... .... = Sequence Number Suppression: False
        .... ..0. .... .... = Information Elements Present: False
        .... 00.. .... .... = Destination Addressing Mode: None (0x0)
        ..00 .... .... .... = Frame Version: IEEE Std 802.15.4-2003 (0)
        00.. .... .... .... = Source Addressing Mode: None (0x0)
    Sequence Number: 17
    FCS: 0xb4b0 (Correct)
    [Ack To: 316]
    [Ack Time: 0.524 ms]

0000  02 00 11 b0 b4                                    .....

No.     Time           Source                Destination           Protocol Length Info
    318 13.125404      0x0000                0x1cfd                ZigBee   53     Unknown Command

Frame 318: 53 bytes on wire (424 bits), 53 bytes captured (424 bits)
    Encapsulation type: IEEE 802.15.4 Wireless PAN (104)
    Arrival Time: Mar  3, 2023 16:19:09.176867000 CST
    [Time shift for this packet: 0.000000000 seconds]
    Epoch Time: 1677881949.176867000 seconds
    [Time delta from previous captured frame: 0.123860000 seconds]
    [Time delta from previous displayed frame: 0.123860000 seconds]
    [Time since reference or first frame: 13.125404000 seconds]
    Frame Number: 318
    Frame Length: 53 bytes (424 bits)
    Capture Length: 53 bytes (424 bits)
    [Frame is marked: False]
    [Frame is ignored: False]
    [Protocols in frame: wpan:zbee_nwk:zbee_aps:data]
IEEE 802.15.4 Data, Dst: 0x0203, Src: 0x0103
    Frame Control Field: 0x8861, Frame Type: Data, Acknowledge Request, PAN ID Compression, Destination Addressing Mode: Short/16-bit, Frame Version: IEEE Std 802.15.4-2003, Source Addressing Mode: Short/16-bit
        .... .... .... .001 = Frame Type: Data (0x1)
        .... .... .... 0... = Security Enabled: False
        .... .... ...0 .... = Frame Pending: False
        .... .... ..1. .... = Acknowledge Request: True
        .... .... .1.. .... = PAN ID Compression: True
        .... .... 0... .... = Reserved: False
        .... ...0 .... .... = Sequence Number Suppression: False
        .... ..0. .... .... = Information Elements Present: False
        .... 10.. .... .... = Destination Addressing Mode: Short/16-bit (0x2)
        ..00 .... .... .... = Frame Version: IEEE Std 802.15.4-2003 (0)
        10.. .... .... .... = Source Addressing Mode: Short/16-bit (0x2)
    Sequence Number: 18
    Destination PAN: 0x3332
    Destination: 0x0203
    Source: 0x0103
    FCS: 0xe2e7 (Correct)
    [Ack In: 319]
ZigBee Network Layer Data, Dst: 0x1cfd, Src: 0x0000
    Frame Control Field: 0x0044, Frame Type: Data, Discover Route: Enable Data
        .... .... .... ..00 = Frame Type: Data (0x0)
        .... .... ..00 01.. = Protocol Version: 1
        .... .... 01.. .... = Discover Route: Enable (0x1)
        .... ..0. .... .... = Security: False
    Destination: 0x1cfd
    Source: 0x0000
    Radius: 179
    Sequence Number: 3
ZigBee Application Support Layer Command
    Frame Control Field: Command (0x01)
        .... ..01 = Frame Type: Command (0x1)
        .... 00.. = Delivery Mode: Unicast (0x0)
        ..0. .... = Security: False
        .0.. .... = Acknowledgement Request: False
        0... .... = Extended Header: False
    Command Frame: Unknown
        Command Identifier: Unknown (0x21)
Data (32 bytes)
    Data: 0000191c10000000000000000000680100006c0100000100
    [Length: 32]

0000  61 88 12 32 33 03 02 03 01 44 00 fd 1c 00 00 b3   a..23....D......
0010  03 01 21 00 00 19 1c 10 00 00 00 00 00 00 00 00   ..!.............
0020  00 68 01 00 00 6c 01 00 00 01 00 00 00 00 00 39   .h...l.........9
0030  7f d7 cc e7 e2                                    .....

No.     Time           Source                Destination           Protocol Length Info
    319 13.125873                                                  IEEE 802.15.4 5      Ack

Frame 319: 5 bytes on wire (40 bits), 5 bytes captured (40 bits)
    Encapsulation type: IEEE 802.15.4 Wireless PAN (104)
    Arrival Time: Mar  3, 2023 16:19:09.177336000 CST
    [Time shift for this packet: 0.000000000 seconds]
    Epoch Time: 1677881949.177336000 seconds
    [Time delta from previous captured frame: 0.000469000 seconds]
    [Time delta from previous displayed frame: 0.000469000 seconds]
    [Time since reference or first frame: 13.125873000 seconds]
    Frame Number: 319
    Frame Length: 5 bytes (40 bits)
    Capture Length: 5 bytes (40 bits)
    [Frame is marked: False]
    [Frame is ignored: False]
    [Protocols in frame: wpan]
IEEE 802.15.4 Ack, Sequence Number: 18
    Frame Control Field: 0x0002, Frame Type: Ack, Destination Addressing Mode: None, Frame Version: IEEE Std 802.15.4-2003, Source Addressing Mode: None
        .... .... .... .010 = Frame Type: Ack (0x2)
        .... .... .... 0... = Security Enabled: False
        .... .... ...0 .... = Frame Pending: False
        .... .... ..0. .... = Acknowledge Request: False
        .... .... .0.. .... = PAN ID Compression: False
        .... .... 0... .... = Reserved: False
        .... ...0 .... .... = Sequence Number Suppression: False
        .... ..0. .... .... = Information Elements Present: False
        .... 00.. .... .... = Destination Addressing Mode: None (0x0)
        ..00 .... .... .... = Frame Version: IEEE Std 802.15.4-2003 (0)
        00.. .... .... .... = Source Addressing Mode: None (0x0)
    Sequence Number: 18
    FCS: 0x862b (Correct)
    [Ack To: 318]
    [Ack Time: 0.469 ms]

0000  02 00 12 2b 86                                    ...+.

No.     Time           Source                Destination           Protocol Length Info
    320 13.255977      0x0000                0x1ffd                ZigBee   77     Route Request, Dst: 0x0f00, Src: 0x0000

Frame 320: 77 bytes on wire (616 bits), 77 bytes captured (616 bits)
    Encapsulation type: IEEE 802.15.4 Wireless PAN (104)
    Arrival Time: Mar  3, 2023 16:19:09.307440000 CST
    [Time shift for this packet: 0.000000000 seconds]
    Epoch Time: 1677881949.307440000 seconds
    [Time delta from previous captured frame: 0.130104000 seconds]
    [Time delta from previous displayed frame: 0.130104000 seconds]
    [Time since reference or first frame: 13.255977000 seconds]
    Frame Number: 320
    Frame Length: 77 bytes (616 bits)
    Capture Length: 77 bytes (616 bits)
    [Frame is marked: False]
    [Frame is ignored: False]
    [Protocols in frame: wpan:zbee_nwk:data]
IEEE 802.15.4 Data, Dst: 0x0203, Src: 0x0103
    Frame Control Field: 0x8861, Frame Type: Data, Acknowledge Request, PAN ID Compression, Destination Addressing Mode: Short/16-bit, Frame Version: IEEE Std 802.15.4-2003, Source Addressing Mode: Short/16-bit
        .... .... .... .001 = Frame Type: Data (0x1)
        .... .... .... 0... = Security Enabled: False
        .... .... ...0 .... = Frame Pending: False
        .... .... ..1. .... = Acknowledge Request: True
        .... .... .1.. .... = PAN ID Compression: True
        .... .... 0... .... = Reserved: False
        .... ...0 .... .... = Sequence Number Suppression: False
        .... ..0. .... .... = Information Elements Present: False
        .... 10.. .... .... = Destination Addressing Mode: Short/16-bit (0x2)
        ..00 .... .... .... = Frame Version: IEEE Std 802.15.4-2003 (0)
        10.. .... .... .... = Source Addressing Mode: Short/16-bit (0x2)
    Sequence Number: 19
    Destination PAN: 0x3332
    Destination: 0x0203
    Source: 0x0103
    FCS: 0xf29d (Correct)
    [Ack In: 321]
ZigBee Network Layer Command, Dst: 0x1ffd, Src: 0x0000
    Frame Control Field: 0x0045, Frame Type: Command, Discover Route: Enable Command
        .... .... .... ..01 = Frame Type: Command (0x1)
        .... .... ..00 01.. = Protocol Version: 1
        .... .... 01.. .... = Discover Route: Enable (0x1)
        .... ..0. .... .... = Security: False
    Destination: 0x1ffd
    Source: 0x0000
    Radius: 180
    Sequence Number: 3
    Command Frame: Route Request
        Command Identifier: Route Request (0x01)
        Command Options: 0x01
            0... .... = Route Repair: False
        Route ID: 0
        Destination: 0x0f00
        Path Cost: 252
Data (52 bytes)
    Data: 60130f1c60100f9c500108020000ffff0000000000000000
    [Length: 52]

0000  61 88 13 32 33 03 02 03 01 45 00 fd 1f 00 00 b4   a..23....E......
0010  03 01 01 00 00 0f fc 60 13 0f 1c 60 10 0f 9c 50   .......`...`...P
0020  01 08 02 00 00 ff ff 00 00 00 00 00 00 00 00 00   ................
0030  00 00 00 ff 27 5c fd 16 00 00 b5 03 01 c1 00 00   ....'\..........
0040  00 00 00 00 d1 1b 25 3b b1 66 d6 9d f2            ......%;.f...

No.     Time           Source                Destination           Protocol Length Info
    321 13.256382                                                  IEEE 802.15.4 5      Ack

Frame 321: 5 bytes on wire (40 bits), 5 bytes captured (40 bits)
    Encapsulation type: IEEE 802.15.4 Wireless PAN (104)
    Arrival Time: Mar  3, 2023 16:19:09.307845000 CST
    [Time shift for this packet: 0.000000000 seconds]
    Epoch Time: 1677881949.307845000 seconds
    [Time delta from previous captured frame: 0.000405000 seconds]
    [Time delta from previous displayed frame: 0.000405000 seconds]
    [Time since reference or first frame: 13.256382000 seconds]
    Frame Number: 321
    Frame Length: 5 bytes (40 bits)
    Capture Length: 5 bytes (40 bits)
    [Frame is marked: False]
    [Frame is ignored: False]
    [Protocols in frame: wpan]
IEEE 802.15.4 Ack, Sequence Number: 19
    Frame Control Field: 0x0002, Frame Type: Ack, Destination Addressing Mode: None, Frame Version: IEEE Std 802.15.4-2003, Source Addressing Mode: None
        .... .... .... .010 = Frame Type: Ack (0x2)
        .... .... .... 0... = Security Enabled: False
        .... .... ...0 .... = Frame Pending: False
        .... .... ..0. .... = Acknowledge Request: False
        .... .... .0.. .... = PAN ID Compression: False
        .... .... 0... .... = Reserved: False
        .... ...0 .... .... = Sequence Number Suppression: False
        .... ..0. .... .... = Information Elements Present: False
        .... 00.. .... .... = Destination Addressing Mode: None (0x0)
        ..00 .... .... .... = Frame Version: IEEE Std 802.15.4-2003 (0)
        00.. .... .... .... = Source Addressing Mode: None (0x0)
    Sequence Number: 19
    FCS: 0x97a2 (Correct)
    [Ack To: 320]
    [Ack Time: 0.405 ms]

0000  02 00 13 a2 97                                    .....

No.     Time           Source                Destination           Protocol Length Info
    322 13.267629      0x0103                0x0203                IEEE 802.15.4 77     Data, Dst: 0x0203, Src: 0x0103

Frame 322: 77 bytes on wire (616 bits), 77 bytes captured (616 bits)
    Encapsulation type: IEEE 802.15.4 Wireless PAN (104)
    Arrival Time: Mar  3, 2023 16:19:09.319092000 CST
    [Time shift for this packet: 0.000000000 seconds]
    Epoch Time: 1677881949.319092000 seconds
    [Time delta from previous captured frame: 0.011247000 seconds]
    [Time delta from previous displayed frame: 0.011247000 seconds]
    [Time since reference or first frame: 13.267629000 seconds]
    Frame Number: 322
    Frame Length: 77 bytes (616 bits)
    Capture Length: 77 bytes (616 bits)
    [Frame is marked: False]
    [Frame is ignored: False]
    [Protocols in frame: wpan:data]
IEEE 802.15.4 Data, Dst: 0x0203, Src: 0x0103
    Frame Control Field: 0x8861, Frame Type: Data, Acknowledge Request, PAN ID Compression, Destination Addressing Mode: Short/16-bit, Frame Version: IEEE Std 802.15.4-2003, Source Addressing Mode: Short/16-bit
        .... .... .... .001 = Frame Type: Data (0x1)
        .... .... .... 0... = Security Enabled: False
        .... .... ...0 .... = Frame Pending: False
        .... .... ..1. .... = Acknowledge Request: True
        .... .... .1.. .... = PAN ID Compression: True
        .... .... 0... .... = Reserved: False
        .... ...0 .... .... = Sequence Number Suppression: False
        .... ..0. .... .... = Information Elements Present: False
        .... 10.. .... .... = Destination Addressing Mode: Short/16-bit (0x2)
        ..00 .... .... .... = Frame Version: IEEE Std 802.15.4-2003 (0)
        10.. .... .... .... = Source Addressing Mode: Short/16-bit (0x2)
    Sequence Number: 20
    Destination PAN: 0x3332
    Destination: 0x0203
    Source: 0x0103
    FCS: 0xee8e (Correct)
    [Ack In: 323]
Data (66 bytes)
    Data: 46003a7a99e93d00000000a5012862fd1c0000b603011e00
    [Length: 66]

0000  61 88 14 32 33 03 02 03 01 46 00 3a 7a 99 e9 3d   a..23....F.:z..=
0010  00 00 00 00 a5 01 28 62 fd 1c 00 00 b6 03 01 1e   ......(b........
0020  00 00 96 1c 10 00 4a e9 a2 3d cc 5c f7 3a 79 5f   ......J..=.\.:y_
0030  19 bf 10 b9 46 3a 37 20 6f 39 24 0b 5a 3b f9 39   ....F:7 o9$.Z;.9
0040  fd 1c 00 00 b7 03 01 21 00 00 9c 8e ee            .......!.....

No.     Time           Source                Destination           Protocol Length Info
    323 13.268188                                                  IEEE 802.15.4 5      Ack

Frame 323: 5 bytes on wire (40 bits), 5 bytes captured (40 bits)
    Encapsulation type: IEEE 802.15.4 Wireless PAN (104)
    Arrival Time: Mar  3, 2023 16:19:09.319651000 CST
    [Time shift for this packet: 0.000000000 seconds]
    Epoch Time: 1677881949.319651000 seconds
    [Time delta from previous captured frame: 0.000559000 seconds]
    [Time delta from previous displayed frame: 0.000559000 seconds]
    [Time since reference or first frame: 13.268188000 seconds]
    Frame Number: 323
    Frame Length: 5 bytes (40 bits)
    Capture Length: 5 bytes (40 bits)
    [Frame is marked: False]
    [Frame is ignored: False]
    [Protocols in frame: wpan]
IEEE 802.15.4 Ack, Sequence Number: 20
    Frame Control Field: 0x0002, Frame Type: Ack, Destination Addressing Mode: None, Frame Version: IEEE Std 802.15.4-2003, Source Addressing Mode: None
        .... .... .... .010 = Frame Type: Ack (0x2)
        .... .... .... 0... = Security Enabled: False
        .... .... ...0 .... = Frame Pending: False
        .... .... ..0. .... = Acknowledge Request: False
        .... .... .0.. .... = PAN ID Compression: False
        .... .... 0... .... = Reserved: False
        .... ...0 .... .... = Sequence Number Suppression: False
        .... ..0. .... .... = Information Elements Present: False
        .... 00.. .... .... = Destination Addressing Mode: None (0x0)
        ..00 .... .... .... = Frame Version: IEEE Std 802.15.4-2003 (0)
        00.. .... .... .... = Source Addressing Mode: None (0x0)
    Sequence Number: 20
    FCS: 0xe31d (Correct)
    [Ack To: 322]
    [Ack Time: 0.559 ms]

0000  02 00 14 1d e3                                    .....

No.     Time           Source                Destination           Protocol Length Info
    324 13.272757      0x0103                0x0203                IEEE 802.15.4 42     Data, Dst: 0x0203, Src: 0x0103

Frame 324: 42 bytes on wire (336 bits), 42 bytes captured (336 bits)
    Encapsulation type: IEEE 802.15.4 Wireless PAN (104)
    Arrival Time: Mar  3, 2023 16:19:09.324220000 CST
    [Time shift for this packet: 0.000000000 seconds]
    Epoch Time: 1677881949.324220000 seconds
    [Time delta from previous captured frame: 0.004569000 seconds]
    [Time delta from previous displayed frame: 0.004569000 seconds]
    [Time since reference or first frame: 13.272757000 seconds]
    Frame Number: 324
    Frame Length: 42 bytes (336 bits)
    Capture Length: 42 bytes (336 bits)
    [Frame is marked: False]
    [Frame is ignored: False]
    [Protocols in frame: wpan:data]
IEEE 802.15.4 Data, Dst: 0x0203, Src: 0x0103
    Frame Control Field: 0x8861, Frame Type: Data, Acknowledge Request, PAN ID Compression, Destination Addressing Mode: Short/16-bit, Frame Version: IEEE Std 802.15.4-2003, Source Addressing Mode: Short/16-bit
        .... .... .... .001 = Frame Type: Data (0x1)
        .... .... .... 0... = Security Enabled: False
        .... .... ...0 .... = Frame Pending: False
        .... .... ..1. .... = Acknowledge Request: True
        .... .... .1.. .... = PAN ID Compression: True
        .... .... 0... .... = Reserved: False
        .... ...0 .... .... = Sequence Number Suppression: False
        .... ..0. .... .... = Information Elements Present: False
        .... 10.. .... .... = Destination Addressing Mode: Short/16-bit (0x2)
        ..00 .... .... .... = Frame Version: IEEE Std 802.15.4-2003 (0)
        10.. .... .... .... = Source Addressing Mode: Short/16-bit (0x2)
    Sequence Number: 21
    Destination PAN: 0x3332
    Destination: 0x0203
    Source: 0x0103
    FCS: 0xeae6 (Correct)
    [Ack In: 325]
Data (31 bytes)
    Data: 47001c10000000000000000000b8010000bb010000010000
    [Length: 31]

0000  61 88 15 32 33 03 02 03 01 47 00 1c 10 00 00 00   a..23....G......
0010  00 00 00 00 00 00 b8 01 00 00 bb 01 00 00 01 00   ................
0020  00 00 00 00 38 7f 2b 4b e6 ea                     ....8.+K..

No.     Time           Source                Destination           Protocol Length Info
    325 13.273259                                                  IEEE 802.15.4 5      Ack

Frame 325: 5 bytes on wire (40 bits), 5 bytes captured (40 bits)
    Encapsulation type: IEEE 802.15.4 Wireless PAN (104)
    Arrival Time: Mar  3, 2023 16:19:09.324722000 CST
    [Time shift for this packet: 0.000000000 seconds]
    Epoch Time: 1677881949.324722000 seconds
    [Time delta from previous captured frame: 0.000502000 seconds]
    [Time delta from previous displayed frame: 0.000502000 seconds]
    [Time since reference or first frame: 13.273259000 seconds]
    Frame Number: 325
    Frame Length: 5 bytes (40 bits)
    Capture Length: 5 bytes (40 bits)
    [Frame is marked: False]
    [Frame is ignored: False]
    [Protocols in frame: wpan]
IEEE 802.15.4 Ack, Sequence Number: 21
    Frame Control Field: 0x0002, Frame Type: Ack, Destination Addressing Mode: None, Frame Version: IEEE Std 802.15.4-2003, Source Addressing Mode: None
        .... .... .... .010 = Frame Type: Ack (0x2)
        .... .... .... 0... = Security Enabled: False
        .... .... ...0 .... = Frame Pending: False
        .... .... ..0. .... = Acknowledge Request: False
        .... .... .0.. .... = PAN ID Compression: False
        .... .... 0... .... = Reserved: False
        .... ...0 .... .... = Sequence Number Suppression: False
        .... ..0. .... .... = Information Elements Present: False
        .... 00.. .... .... = Destination Addressing Mode: None (0x0)
        ..00 .... .... .... = Frame Version: IEEE Std 802.15.4-2003 (0)
        00.. .... .... .... = Source Addressing Mode: None (0x0)
    Sequence Number: 21
    FCS: 0xf294 (Correct)
    [Ack To: 324]
    [Ack Time: 0.502 ms]

0000  02 00 15 94 f2                                    .....

No.     Time           Source                Destination           Protocol Length Info
    326 13.311590      0x0000                0x19fd                ZigBee   50     Unknown Command

Frame 326: 50 bytes on wire (400 bits), 50 bytes captured (400 bits)
    Encapsulation type: IEEE 802.15.4 Wireless PAN (104)
    Arrival Time: Mar  3, 2023 16:19:09.363053000 CST
    [Time shift for this packet: 0.000000000 seconds]
    Epoch Time: 1677881949.363053000 seconds
    [Time delta from previous captured frame: 0.038331000 seconds]
    [Time delta from previous displayed frame: 0.038331000 seconds]
    [Time since reference or first frame: 13.311590000 seconds]
    Frame Number: 326
    Frame Length: 50 bytes (400 bits)
    Capture Length: 50 bytes (400 bits)
    [Frame is marked: False]
    [Frame is ignored: False]
    [Protocols in frame: wpan:zbee_nwk:zbee_aps:data]
IEEE 802.15.4 Data, Dst: 0x0203, Src: 0x0103
    Frame Control Field: 0x8861, Frame Type: Data, Acknowledge Request, PAN ID Compression, Destination Addressing Mode: Short/16-bit, Frame Version: IEEE Std 802.15.4-2003, Source Addressing Mode: Short/16-bit
        .... .... .... .001 = Frame Type: Data (0x1)
        .... .... .... 0... = Security Enabled: False
        .... .... ...0 .... = Frame Pending: False
        .... .... ..1. .... = Acknowledge Request: True
        .... .... .1.. .... = PAN ID Compression: True
        .... .... 0... .... = Reserved: False
        .... ...0 .... .... = Sequence Number Suppression: False
        .... ..0. .... .... = Information Elements Present: False
        .... 10.. .... .... = Destination Addressing Mode: Short/16-bit (0x2)
        ..00 .... .... .... = Frame Version: IEEE Std 802.15.4-2003 (0)
        10.. .... .... .... = Source Addressing Mode: Short/16-bit (0x2)
    Sequence Number: 22
    Destination PAN: 0x3332
    Destination: 0x0203
    Source: 0x0103
    FCS: 0x3199 (Correct)
    [Ack In: 327]
ZigBee Network Layer Data, Dst: 0x19fd, Src: 0x0000
    Frame Control Field: 0x0048, Frame Type: Data, Discover Route: Enable Data
        .... .... .... ..00 = Frame Type: Data (0x0)
        .... .... ..00 10.. = Protocol Version: 2
        .... .... 01.. .... = Discover Route: Enable (0x1)
        .... ...0 .... .... = Multicast: False
        .... ..0. .... .... = Security: False
        .... .0.. .... .... = Source Route: False
        .... 0... .... .... = Destination: False
        ...0 .... .... .... = Extended Source: False
        ..0. .... .... .... = End Device Initiator: False
    Destination: 0x19fd
    Source: 0x0000
    Radius: 184
    Sequence Number: 3
ZigBee Application Support Layer Command
    Frame Control Field: Command (0x01)
        .... ..01 = Frame Type: Command (0x1)
        .... 00.. = Delivery Mode: Unicast (0x0)
        ..0. .... = Security: False
        .0.. .... = Acknowledgement Request: False
        0... .... = Extended Header: False
    Counter: 22
    Command Frame: Unknown
        Command Identifier: Unknown (0x00)
Data (28 bytes)
    Data: 000033e2470504ffff535441545f52554e54494d45000000
    [Length: 28]

0000  61 88 16 32 33 03 02 03 01 48 00 fd 19 00 00 b8   a..23....H......
0010  03 01 16 00 00 00 33 e2 47 05 04 ff ff 53 54 41   ......3.G....STA
0020  54 5f 52 55 4e 54 49 4d 45 00 00 00 00 06 f3 70   T_RUNTIME......p
0030  99 31                                             .1

No.     Time           Source                Destination           Protocol Length Info
    327 13.312116                                                  IEEE 802.15.4 5      Ack

Frame 327: 5 bytes on wire (40 bits), 5 bytes captured (40 bits)
    Encapsulation type: IEEE 802.15.4 Wireless PAN (104)
    Arrival Time: Mar  3, 2023 16:19:09.363579000 CST
    [Time shift for this packet: 0.000000000 seconds]
    Epoch Time: 1677881949.363579000 seconds
    [Time delta from previous captured frame: 0.000526000 seconds]
    [Time delta from previous displayed frame: 0.000526000 seconds]
    [Time since reference or first frame: 13.312116000 seconds]
    Frame Number: 327
    Frame Length: 5 bytes (40 bits)
    Capture Length: 5 bytes (40 bits)
    [Frame is marked: False]
    [Frame is ignored: False]
    [Protocols in frame: wpan]
IEEE 802.15.4 Ack, Sequence Number: 22
    Frame Control Field: 0x0002, Frame Type: Ack, Destination Addressing Mode: None, Frame Version: IEEE Std 802.15.4-2003, Source Addressing Mode: None
        .... .... .... .010 = Frame Type: Ack (0x2)
        .... .... .... 0... = Security Enabled: False
        .... .... ...0 .... = Frame Pending: False
        .... .... ..0. .... = Acknowledge Request: False
        .... .... .0.. .... = PAN ID Compression: False
        .... .... 0... .... = Reserved: False
        .... ...0 .... .... = Sequence Number Suppression: False
        .... ..0. .... .... = Information Elements Present: False
        .... 00.. .... .... = Destination Addressing Mode: None (0x0)
        ..00 .... .... .... = Frame Version: IEEE Std 802.15.4-2003 (0)
        00.. .... .... .... = Source Addressing Mode: None (0x0)
    Sequence Number: 22
    FCS: 0xc00f (Correct)
    [Ack To: 326]
    [Ack Time: 0.526 ms]

0000  02 00 16 0f c0                                    .....

No.     Time           Source                Destination           Protocol Length Info
    328 13.318566      0x0000                0x09fd                ZigBee   34     Route Request, Dst: 0x0000, Src: 0x0000

Frame 328: 34 bytes on wire (272 bits), 34 bytes captured (272 bits)
    Encapsulation type: IEEE 802.15.4 Wireless PAN (104)
    Arrival Time: Mar  3, 2023 16:19:09.370029000 CST
    [Time shift for this packet: 0.000000000 seconds]
    Epoch Time: 1677881949.370029000 seconds
    [Time delta from previous captured frame: 0.006450000 seconds]
    [Time delta from previous displayed frame: 0.006450000 seconds]
    [Time since reference or first frame: 13.318566000 seconds]
    Frame Number: 328
    Frame Length: 34 bytes (272 bits)
    Capture Length: 34 bytes (272 bits)
    [Frame is marked: False]
    [Frame is ignored: False]
    [Protocols in frame: wpan:zbee_nwk:data]
IEEE 802.15.4 Data, Dst: 0x0203, Src: 0x0103
    Frame Control Field: 0x8861, Frame Type: Data, Acknowledge Request, PAN ID Compression, Destination Addressing Mode: Short/16-bit, Frame Version: IEEE Std 802.15.4-2003, Source Addressing Mode: Short/16-bit
        .... .... .... .001 = Frame Type: Data (0x1)
        .... .... .... 0... = Security Enabled: False
        .... .... ...0 .... = Frame Pending: False
        .... .... ..1. .... = Acknowledge Request: True
        .... .... .1.. .... = PAN ID Compression: True
        .... .... 0... .... = Reserved: False
        .... ...0 .... .... = Sequence Number Suppression: False
        .... ..0. .... .... = Information Elements Present: False
        .... 10.. .... .... = Destination Addressing Mode: Short/16-bit (0x2)
        ..00 .... .... .... = Frame Version: IEEE Std 802.15.4-2003 (0)
        10.. .... .... .... = Source Addressing Mode: Short/16-bit (0x2)
    Sequence Number: 23
    Destination PAN: 0x3332
    Destination: 0x0203
    Source: 0x0103
    FCS: 0x6c15 (Correct)
    [Ack In: 329]
ZigBee Network Layer Command, Dst: 0x09fd, Src: 0x0000
    Frame Control Field: 0x0049, Frame Type: Command, Discover Route: Enable Command
        .... .... .... ..01 = Frame Type: Command (0x1)
        .... .... ..00 10.. = Protocol Version: 2
        .... .... 01.. .... = Discover Route: Enable (0x1)
        .... ...0 .... .... = Multicast: False
        .... ..0. .... .... = Security: False
        .... .0.. .... .... = Source Route: False
        .... 0... .... .... = Destination: False
        ...0 .... .... .... = Extended Source: False
        ..0. .... .... .... = End Device Initiator: False
    Destination: 0x09fd
    Source: 0x0000
    Radius: 185
    Sequence Number: 3
    Command Frame: Route Request
        Command Identifier: Route Request (0x01)
        Command Options: 0x00, Many-to-One Discovery: Not Many-to-One
            .0.. .... = Multicast: False
            ..0. .... = Extended Destination: False
            ...0 0... = Many-to-One Discovery: Not Many-to-One (0x0)
        Route ID: 0
        Destination: 0x0000
        Path Cost: 0
Data (9 bytes)
    Data: 00000203510303fe12
    [Length: 9]

0000  61 88 17 32 33 03 02 03 01 49 00 fd 09 00 00 b9   a..23....I......
0010  03 01 00 00 00 00 00 00 00 02 03 51 03 03 fe 12   ...........Q....
0020  15 6c                                             .l

No.     Time           Source                Destination           Protocol Length Info
    329 13.318997                                                  IEEE 802.15.4 5      Ack

Frame 329: 5 bytes on wire (40 bits), 5 bytes captured (40 bits)
    Encapsulation type: IEEE 802.15.4 Wireless PAN (104)
    Arrival Time: Mar  3, 2023 16:19:09.370460000 CST
    [Time shift for this packet: 0.000000000 seconds]
    Epoch Time: 1677881949.370460000 seconds
    [Time delta from previous captured frame: 0.000431000 seconds]
    [Time delta from previous displayed frame: 0.000431000 seconds]
    [Time since reference or first frame: 13.318997000 seconds]
    Frame Number: 329
    Frame Length: 5 bytes (40 bits)
    Capture Length: 5 bytes (40 bits)
    [Frame is marked: False]
    [Frame is ignored: False]
    [Protocols in frame: wpan]
IEEE 802.15.4 Ack, Sequence Number: 23
    Frame Control Field: 0x0002, Frame Type: Ack, Destination Addressing Mode: None, Frame Version: IEEE Std 802.15.4-2003, Source Addressing Mode: None
        .... .... .... .010 = Frame Type: Ack (0x2)
        .... .... .... 0... = Security Enabled: False
        .... .... ...0 .... = Frame Pending: False
        .... .... ..0. .... = Acknowledge Request: False
        .... .... .0.. .... = PAN ID Compression: False
        .... .... 0... .... = Reserved: False
        .... ...0 .... .... = Sequence Number Suppression: False
        .... ..0. .... .... = Information Elements Present: False
        .... 00.. .... .... = Destination Addressing Mode: None (0x0)
        ..00 .... .... .... = Frame Version: IEEE Std 802.15.4-2003 (0)
        00.. .... .... .... = Source Addressing Mode: None (0x0)
    Sequence Number: 23
    FCS: 0xd186 (Correct)
    [Ack To: 328]
    [Ack Time: 0.431 ms]

0000  02 00 17 86 d1                                    .....

No.     Time           Source                Destination           Protocol Length Info
    330 13.341507      0x0103                0x0203                IEEE 802.15.4 48     Data, Dst: 0x0203, Src: 0x0103

Frame 330: 48 bytes on wire (384 bits), 48 bytes captured (384 bits)
    Encapsulation type: IEEE 802.15.4 Wireless PAN (104)
    Arrival Time: Mar  3, 2023 16:19:09.392970000 CST
    [Time shift for this packet: 0.000000000 seconds]
    Epoch Time: 1677881949.392970000 seconds
    [Time delta from previous captured frame: 0.022510000 seconds]
    [Time delta from previous displayed frame: 0.022510000 seconds]
    [Time since reference or first frame: 13.341507000 seconds]
    Frame Number: 330
    Frame Length: 48 bytes (384 bits)
    Capture Length: 48 bytes (384 bits)
    [Frame is marked: False]
    [Frame is ignored: False]
    [Protocols in frame: wpan:data]
IEEE 802.15.4 Data, Dst: 0x0203, Src: 0x0103
    Frame Control Field: 0x8861, Frame Type: Data, Acknowledge Request, PAN ID Compression, Destination Addressing Mode: Short/16-bit, Frame Version: IEEE Std 802.15.4-2003, Source Addressing Mode: Short/16-bit
        .... .... .... .001 = Frame Type: Data (0x1)
        .... .... .... 0... = Security Enabled: False
        .... .... ...0 .... = Frame Pending: False
        .... .... ..1. .... = Acknowledge Request: True
        .... .... .1.. .... = PAN ID Compression: True
        .... .... 0... .... = Reserved: False
        .... ...0 .... .... = Sequence Number Suppression: False
        .... ..0. .... .... = Information Elements Present: False
        .... 10.. .... .... = Destination Addressing Mode: Short/16-bit (0x2)
        ..00 .... .... .... = Frame Version: IEEE Std 802.15.4-2003 (0)
        10.. .... .... .... = Source Addressing Mode: Short/16-bit (0x2)
    Sequence Number: 24
    Destination PAN: 0x3332
    Destination: 0x0203
    Source: 0x0103
    FCS: 0x169b (Correct)
    [Ack In: 331]
Data (37 bytes)
    Data: 4a00fd170000ba0301fd0000074c75613a204e6f20736372
    [Length: 37]

0000  61 88 18 32 33 03 02 03 01 4a 00 fd 17 00 00 ba   a..23....J......
0010  03 01 fd 00 00 07 4c 75 61 3a 20 4e 6f 20 73 63   ......Lua: No sc
0020  72 69 70 74 73 20 74 6f 20 72 75 6e ed 21 9b 16   ripts to run.!..

No.     Time           Source                Destination           Protocol Length Info
    331 13.342039                                                  IEEE 802.15.4 5      Ack

Frame 331: 5 bytes on wire (40 bits), 5 bytes captured (40 bits)
    Encapsulation type: IEEE 802.15.4 Wireless PAN (104)
    Arrival Time: Mar  3, 2023 16:19:09.393502000 CST
    [Time shift for this packet: 0.000000000 seconds]
    Epoch Time: 1677881949.393502000 seconds
    [Time delta from previous captured frame: 0.000532000 seconds]
    [Time delta from previous displayed frame: 0.000532000 seconds]
    [Time since reference or first frame: 13.342039000 seconds]
    Frame Number: 331
    Frame Length: 5 bytes (40 bits)
    Capture Length: 5 bytes (40 bits)
    [Frame is marked: False]
    [Frame is ignored: False]
    [Protocols in frame: wpan]
IEEE 802.15.4 Ack, Sequence Number: 24
    Frame Control Field: 0x0002, Frame Type: Ack, Destination Addressing Mode: None, Frame Version: IEEE Std 802.15.4-2003, Source Addressing Mode: None
        .... .... .... .010 = Frame Type: Ack (0x2)
        .... .... .... 0... = Security Enabled: False
        .... .... ...0 .... = Frame Pending: False
        .... .... ..0. .... = Acknowledge Request: False
        .... .... .0.. .... = PAN ID Compression: False
        .... .... 0... .... = Reserved: False
        .... ...0 .... .... = Sequence Number Suppression: False
        .... ..0. .... .... = Information Elements Present: False
        .... 00.. .... .... = Destination Addressing Mode: None (0x0)
        ..00 .... .... .... = Frame Version: IEEE Std 802.15.4-2003 (0)
        00.. .... .... .... = Source Addressing Mode: None (0x0)
    Sequence Number: 24
    FCS: 0x2971 (Correct)
    [Ack To: 330]
    [Ack Time: 0.532 ms]

0000  02 00 18 71 29                                    ...q)

No.     Time           Source                Destination           Protocol Length Info
    332 13.375439      0x0103                0x0203                IEEE 802.15.4 53     Data, Dst: 0x0203, Src: 0x0103

Frame 332: 53 bytes on wire (424 bits), 53 bytes captured (424 bits)
    Encapsulation type: IEEE 802.15.4 Wireless PAN (104)
    Arrival Time: Mar  3, 2023 16:19:09.426902000 CST
    [Time shift for this packet: 0.000000000 seconds]
    Epoch Time: 1677881949.426902000 seconds
    [Time delta from previous captured frame: 0.033400000 seconds]
    [Time delta from previous displayed frame: 0.033400000 seconds]
    [Time since reference or first frame: 13.375439000 seconds]
    Frame Number: 332
    Frame Length: 53 bytes (424 bits)
    Capture Length: 53 bytes (424 bits)
    [Frame is marked: False]
    [Frame is ignored: False]
    [Protocols in frame: wpan:data]
IEEE 802.15.4 Data, Dst: 0x0203, Src: 0x0103
    Frame Control Field: 0x8861, Frame Type: Data, Acknowledge Request, PAN ID Compression, Destination Addressing Mode: Short/16-bit, Frame Version: IEEE Std 802.15.4-2003, Source Addressing Mode: Short/16-bit
        .... .... .... .001 = Frame Type: Data (0x1)
        .... .... .... 0... = Security Enabled: False
        .... .... ...0 .... = Frame Pending: False
        .... .... ..1. .... = Acknowledge Request: True
        .... .... .1.. .... = PAN ID Compression: True
        .... .... 0... .... = Reserved: False
        .... ...0 .... .... = Sequence Number Suppression: False
        .... ..0. .... .... = Information Elements Present: False
        .... 10.. .... .... = Destination Addressing Mode: Short/16-bit (0x2)
        ..00 .... .... .... = Frame Version: IEEE Std 802.15.4-2003 (0)
        10.. .... .... .... = Source Addressing Mode: Short/16-bit (0x2)
    Sequence Number: 25
    Destination PAN: 0x3332
    Destination: 0x0203
    Source: 0x0103
    FCS: 0x3147 (Correct)
    [Ack In: 333]
Data (42 bytes)
    Data: 4b00fd1c0000bb0301210000131d10000000000000000000
    [Length: 42]

0000  61 88 19 32 33 03 02 03 01 4b 00 fd 1c 00 00 bb   a..23....K......
0010  03 01 21 00 00 13 1d 10 00 00 00 00 00 00 00 00   ..!.............
0020  00 b8 01 00 00 bb 01 00 00 01 00 00 00 00 00 37   ...............7
0030  7f 9b fb 47 31                                    ...G1

No.     Time           Source                Destination           Protocol Length Info
    333 13.375987                                                  IEEE 802.15.4 5      Ack

Frame 333: 5 bytes on wire (40 bits), 5 bytes captured (40 bits)
    Encapsulation type: IEEE 802.15.4 Wireless PAN (104)
    Arrival Time: Mar  3, 2023 16:19:09.427450000 CST
    [Time shift for this packet: 0.000000000 seconds]
    Epoch Time: 1677881949.427450000 seconds
    [Time delta from previous captured frame: 0.000548000 seconds]
    [Time delta from previous displayed frame: 0.000548000 seconds]
    [Time since reference or first frame: 13.375987000 seconds]
    Frame Number: 333
    Frame Length: 5 bytes (40 bits)
    Capture Length: 5 bytes (40 bits)
    [Frame is marked: False]
    [Frame is ignored: False]
    [Protocols in frame: wpan]
IEEE 802.15.4 Ack, Sequence Number: 25
    Frame Control Field: 0x0002, Frame Type: Ack, Destination Addressing Mode: None, Frame Version: IEEE Std 802.15.4-2003, Source Addressing Mode: None
        .... .... .... .010 = Frame Type: Ack (0x2)
        .... .... .... 0... = Security Enabled: False
        .... .... ...0 .... = Frame Pending: False
        .... .... ..0. .... = Acknowledge Request: False
        .... .... .0.. .... = PAN ID Compression: False
        .... .... 0... .... = Reserved: False
        .... ...0 .... .... = Sequence Number Suppression: False
        .... ..0. .... .... = Information Elements Present: False
        .... 00.. .... .... = Destination Addressing Mode: None (0x0)
        ..00 .... .... .... = Frame Version: IEEE Std 802.15.4-2003 (0)
        00.. .... .... .... = Source Addressing Mode: None (0x0)
    Sequence Number: 25
    FCS: 0x38f8 (Correct)
    [Ack To: 332]
    [Ack Time: 0.548 ms]

0000  02 00 19 f8 38                                    ....8

No.     Time           Source                Destination           Protocol Length Info
    334 13.497659      0x0103                0x0203                IEEE 802.15.4 53     Data, Dst: 0x0203, Src: 0x0103

Frame 334: 53 bytes on wire (424 bits), 53 bytes captured (424 bits)
    Encapsulation type: IEEE 802.15.4 Wireless PAN (104)
    Arrival Time: Mar  3, 2023 16:19:09.549122000 CST
    [Time shift for this packet: 0.000000000 seconds]
    Epoch Time: 1677881949.549122000 seconds
    [Time delta from previous captured frame: 0.121672000 seconds]
    [Time delta from previous displayed frame: 0.121672000 seconds]
    [Time since reference or first frame: 13.497659000 seconds]
    Frame Number: 334
    Frame Length: 53 bytes (424 bits)
    Capture Length: 53 bytes (424 bits)
    [Frame is marked: False]
    [Frame is ignored: False]
    [Protocols in frame: wpan:data]
IEEE 802.15.4 Data, Dst: 0x0203, Src: 0x0103
    Frame Control Field: 0x8861, Frame Type: Data, Acknowledge Request, PAN ID Compression, Destination Addressing Mode: Short/16-bit, Frame Version: IEEE Std 802.15.4-2003, Source Addressing Mode: Short/16-bit
        .... .... .... .001 = Frame Type: Data (0x1)
        .... .... .... 0... = Security Enabled: False
        .... .... ...0 .... = Frame Pending: False
        .... .... ..1. .... = Acknowledge Request: True
        .... .... .1.. .... = PAN ID Compression: True
        .... .... 0... .... = Reserved: False
        .... ...0 .... .... = Sequence Number Suppression: False
        .... ..0. .... .... = Information Elements Present: False
        .... 10.. .... .... = Destination Addressing Mode: Short/16-bit (0x2)
        ..00 .... .... .... = Frame Version: IEEE Std 802.15.4-2003 (0)
        10.. .... .... .... = Source Addressing Mode: Short/16-bit (0x2)
    Sequence Number: 26
    Destination PAN: 0x3332
    Destination: 0x0203
    Source: 0x0103
    FCS: 0x253b (Correct)
    [Ack In: 335]
Data (42 bytes)
    Data: 4c00fd1c0000bc03012100008e1d10000000000000000000
    [Length: 42]

0000  61 88 1a 32 33 03 02 03 01 4c 00 fd 1c 00 00 bc   a..23....L......
0010  03 01 21 00 00 8e 1d 10 00 00 00 00 00 00 00 00   ..!.............
0020  00 d2 00 00 00 d6 00 00 00 01 00 00 00 00 00 36   ...............6
0030  7f d4 8b 3b 25                                    ...;%

No.     Time           Source                Destination           Protocol Length Info
    335 13.498136                                                  IEEE 802.15.4 5      Ack

Frame 335: 5 bytes on wire (40 bits), 5 bytes captured (40 bits)
    Encapsulation type: IEEE 802.15.4 Wireless PAN (104)
    Arrival Time: Mar  3, 2023 16:19:09.549599000 CST
    [Time shift for this packet: 0.000000000 seconds]
    Epoch Time: 1677881949.549599000 seconds
    [Time delta from previous captured frame: 0.000477000 seconds]
    [Time delta from previous displayed frame: 0.000477000 seconds]
    [Time since reference or first frame: 13.498136000 seconds]
    Frame Number: 335
    Frame Length: 5 bytes (40 bits)
    Capture Length: 5 bytes (40 bits)
    [Frame is marked: False]
    [Frame is ignored: False]
    [Protocols in frame: wpan]
IEEE 802.15.4 Ack, Sequence Number: 26
    Frame Control Field: 0x0002, Frame Type: Ack, Destination Addressing Mode: None, Frame Version: IEEE Std 802.15.4-2003, Source Addressing Mode: None
        .... .... .... .010 = Frame Type: Ack (0x2)
        .... .... .... 0... = Security Enabled: False
        .... .... ...0 .... = Frame Pending: False
        .... .... ..0. .... = Acknowledge Request: False
        .... .... .0.. .... = PAN ID Compression: False
        .... .... 0... .... = Reserved: False
        .... ...0 .... .... = Sequence Number Suppression: False
        .... ..0. .... .... = Information Elements Present: False
        .... 00.. .... .... = Destination Addressing Mode: None (0x0)
        ..00 .... .... .... = Frame Version: IEEE Std 802.15.4-2003 (0)
        00.. .... .... .... = Source Addressing Mode: None (0x0)
    Sequence Number: 26
    FCS: 0x0a63 (Correct)
    [Ack To: 334]
    [Ack Time: 0.477 ms]

0000  02 00 1a 63 0a                                    ...c.

No.     Time           Source                Destination           Protocol Length Info
    336 13.622710      0x0103                0x0203                IEEE 802.15.4 53     Data, Dst: 0x0203, Src: 0x0103

Frame 336: 53 bytes on wire (424 bits), 53 bytes captured (424 bits)
    Encapsulation type: IEEE 802.15.4 Wireless PAN (104)
    Arrival Time: Mar  3, 2023 16:19:09.674173000 CST
    [Time shift for this packet: 0.000000000 seconds]
    Epoch Time: 1677881949.674173000 seconds
    [Time delta from previous captured frame: 0.124574000 seconds]
    [Time delta from previous displayed frame: 0.124574000 seconds]
    [Time since reference or first frame: 13.622710000 seconds]
    Frame Number: 336
    Frame Length: 53 bytes (424 bits)
    Capture Length: 53 bytes (424 bits)
    [Frame is marked: False]
    [Frame is ignored: False]
    [Protocols in frame: wpan:data]
IEEE 802.15.4 Data, Dst: 0x0203, Src: 0x0103
    Frame Control Field: 0x8861, Frame Type: Data, Acknowledge Request, PAN ID Compression, Destination Addressing Mode: Short/16-bit, Frame Version: IEEE Std 802.15.4-2003, Source Addressing Mode: Short/16-bit
        .... .... .... .001 = Frame Type: Data (0x1)
        .... .... .... 0... = Security Enabled: False
        .... .... ...0 .... = Frame Pending: False
        .... .... ..1. .... = Acknowledge Request: True
        .... .... .1.. .... = PAN ID Compression: True
        .... .... 0... .... = Reserved: False
        .... ...0 .... .... = Sequence Number Suppression: False
        .... ..0. .... .... = Information Elements Present: False
        .... 10.. .... .... = Destination Addressing Mode: Short/16-bit (0x2)
        ..00 .... .... .... = Frame Version: IEEE Std 802.15.4-2003 (0)
        10.. .... .... .... = Source Addressing Mode: Short/16-bit (0x2)
    Sequence Number: 27
    Destination PAN: 0x3332
    Destination: 0x0203
    Source: 0x0103
    FCS: 0x3e68 (Correct)
    [Ack In: 337]
Data (42 bytes)
    Data: 4d00fd1c0000bd03012100000b1e10000000000000000000
    [Length: 42]

0000  61 88 1b 32 33 03 02 03 01 4d 00 fd 1c 00 00 bd   a..23....M......
0010  03 01 21 00 00 0b 1e 10 00 00 00 00 00 00 00 00   ..!.............
0020  00 f4 01 00 00 f6 01 00 00 01 00 00 00 00 00 36   ...............6
0030  7f 12 71 68 3e                                    ..qh>

No.     Time           Source                Destination           Protocol Length Info
    337 13.623192                                                  IEEE 802.15.4 5      Ack

Frame 337: 5 bytes on wire (40 bits), 5 bytes captured (40 bits)
    Encapsulation type: IEEE 802.15.4 Wireless PAN (104)
    Arrival Time: Mar  3, 2023 16:19:09.674655000 CST
    [Time shift for this packet: 0.000000000 seconds]
    Epoch Time: 1677881949.674655000 seconds
    [Time delta from previous captured frame: 0.000482000 seconds]
    [Time delta from previous displayed frame: 0.000482000 seconds]
    [Time since reference or first frame: 13.623192000 seconds]
    Frame Number: 337
    Frame Length: 5 bytes (40 bits)
    Capture Length: 5 bytes (40 bits)
    [Frame is marked: False]
    [Frame is ignored: False]
    [Protocols in frame: wpan]
IEEE 802.15.4 Ack, Sequence Number: 27
    Frame Control Field: 0x0002, Frame Type: Ack, Destination Addressing Mode: None, Frame Version: IEEE Std 802.15.4-2003, Source Addressing Mode: None
        .... .... .... .010 = Frame Type: Ack (0x2)
        .... .... .... 0... = Security Enabled: False
        .... .... ...0 .... = Frame Pending: False
        .... .... ..0. .... = Acknowledge Request: False
        .... .... .0.. .... = PAN ID Compression: False
        .... .... 0... .... = Reserved: False
        .... ...0 .... .... = Sequence Number Suppression: False
        .... ..0. .... .... = Information Elements Present: False
        .... 00.. .... .... = Destination Addressing Mode: None (0x0)
        ..00 .... .... .... = Frame Version: IEEE Std 802.15.4-2003 (0)
        00.. .... .... .... = Source Addressing Mode: None (0x0)
    Sequence Number: 27
    FCS: 0x1bea (Correct)
    [Ack To: 336]
    [Ack Time: 0.482 ms]

0000  02 00 1b ea 1b                                    .....

No.     Time           Source                Destination           Protocol Length Info
    338 13.757734      0x0103                0x0203                IEEE 802.15.4 77     Data, Dst: 0x0203, Src: 0x0103

Frame 338: 77 bytes on wire (616 bits), 77 bytes captured (616 bits)
    Encapsulation type: IEEE 802.15.4 Wireless PAN (104)
    Arrival Time: Mar  3, 2023 16:19:09.809197000 CST
    [Time shift for this packet: 0.000000000 seconds]
    Epoch Time: 1677881949.809197000 seconds
    [Time delta from previous captured frame: 0.134542000 seconds]
    [Time delta from previous displayed frame: 0.134542000 seconds]
    [Time since reference or first frame: 13.757734000 seconds]
    Frame Number: 338
    Frame Length: 77 bytes (616 bits)
    Capture Length: 77 bytes (616 bits)
    [Frame is marked: False]
    [Frame is ignored: False]
    [Protocols in frame: wpan:data]
IEEE 802.15.4 Data, Dst: 0x0203, Src: 0x0103
    Frame Control Field: 0x8861, Frame Type: Data, Acknowledge Request, PAN ID Compression, Destination Addressing Mode: Short/16-bit, Frame Version: IEEE Std 802.15.4-2003, Source Addressing Mode: Short/16-bit
        .... .... .... .001 = Frame Type: Data (0x1)
        .... .... .... 0... = Security Enabled: False
        .... .... ...0 .... = Frame Pending: False
        .... .... ..1. .... = Acknowledge Request: True
        .... .... .1.. .... = PAN ID Compression: True
        .... .... 0... .... = Reserved: False
        .... ...0 .... .... = Sequence Number Suppression: False
        .... ..0. .... .... = Information Elements Present: False
        .... 10.. .... .... = Destination Addressing Mode: Short/16-bit (0x2)
        ..00 .... .... .... = Frame Version: IEEE Std 802.15.4-2003 (0)
        10.. .... .... .... = Source Addressing Mode: Short/16-bit (0x2)
    Sequence Number: 28
    Destination PAN: 0x3332
    Destination: 0x0203
    Source: 0x0103
    FCS: 0xe65a (Correct)
    [Ack In: 339]
Data (66 bytes)
    Data: 4e00fd1c0000be03011e00008c1e1000bcf2a23d8b31f03a
    [Length: 66]

0000  61 88 1c 32 33 03 02 03 01 4e 00 fd 1c 00 00 be   a..23....N......
0010  03 01 1e 00 00 8c 1e 10 00 bc f2 a2 3d 8b 31 f0   ............=.1.
0020  3a cc 80 19 bf 9c a5 f5 b9 81 78 0d 3a 64 cb 86   :.........x.:d..
0030  3b de 82 fd 1c 00 00 bf 03 01 21 00 00 8d 1e 10   ;.........!.....
0040  00 00 00 00 00 00 00 00 00 a4 01 5a e6            ...........Z.

No.     Time           Source                Destination           Protocol Length Info
    339 13.758232                                                  IEEE 802.15.4 5      Ack

Frame 339: 5 bytes on wire (40 bits), 5 bytes captured (40 bits)
    Encapsulation type: IEEE 802.15.4 Wireless PAN (104)
    Arrival Time: Mar  3, 2023 16:19:09.809695000 CST
    [Time shift for this packet: 0.000000000 seconds]
    Epoch Time: 1677881949.809695000 seconds
    [Time delta from previous captured frame: 0.000498000 seconds]
    [Time delta from previous displayed frame: 0.000498000 seconds]
    [Time since reference or first frame: 13.758232000 seconds]
    Frame Number: 339
    Frame Length: 5 bytes (40 bits)
    Capture Length: 5 bytes (40 bits)
    [Frame is marked: False]
    [Frame is ignored: False]
    [Protocols in frame: wpan]
IEEE 802.15.4 Ack, Sequence Number: 28
    Frame Control Field: 0x0002, Frame Type: Ack, Destination Addressing Mode: None, Frame Version: IEEE Std 802.15.4-2003, Source Addressing Mode: None
        .... .... .... .010 = Frame Type: Ack (0x2)
        .... .... .... 0... = Security Enabled: False
        .... .... ...0 .... = Frame Pending: False
        .... .... ..0. .... = Acknowledge Request: False
        .... .... .0.. .... = PAN ID Compression: False
        .... .... 0... .... = Reserved: False
        .... ...0 .... .... = Sequence Number Suppression: False
        .... ..0. .... .... = Information Elements Present: False
        .... 00.. .... .... = Destination Addressing Mode: None (0x0)
        ..00 .... .... .... = Frame Version: IEEE Std 802.15.4-2003 (0)
        00.. .... .... .... = Source Addressing Mode: None (0x0)
    Sequence Number: 28
    FCS: 0x6f55 (Correct)
    [Ack To: 338]
    [Ack Time: 0.498 ms]

0000  02 00 1c 55 6f                                    ...Uo

No.     Time           Source                Destination           Protocol Length Info
    340 13.761833      0x0103                0x0203                IEEE 802.15.4 29     Data, Dst: 0x0203, Src: 0x0103

Frame 340: 29 bytes on wire (232 bits), 29 bytes captured (232 bits)
    Encapsulation type: IEEE 802.15.4 Wireless PAN (104)
    Arrival Time: Mar  3, 2023 16:19:09.813296000 CST
    [Time shift for this packet: 0.000000000 seconds]
    Epoch Time: 1677881949.813296000 seconds
    [Time delta from previous captured frame: 0.003601000 seconds]
    [Time delta from previous displayed frame: 0.003601000 seconds]
    [Time since reference or first frame: 13.761833000 seconds]
    Frame Number: 340
    Frame Length: 29 bytes (232 bits)
    Capture Length: 29 bytes (232 bits)
    [Frame is marked: False]
    [Frame is ignored: False]
    [Protocols in frame: wpan:data]
IEEE 802.15.4 Data, Dst: 0x0203, Src: 0x0103
    Frame Control Field: 0x8861, Frame Type: Data, Acknowledge Request, PAN ID Compression, Destination Addressing Mode: Short/16-bit, Frame Version: IEEE Std 802.15.4-2003, Source Addressing Mode: Short/16-bit
        .... .... .... .001 = Frame Type: Data (0x1)
        .... .... .... 0... = Security Enabled: False
        .... .... ...0 .... = Frame Pending: False
        .... .... ..1. .... = Acknowledge Request: True
        .... .... .1.. .... = PAN ID Compression: True
        .... .... 0... .... = Reserved: False
        .... ...0 .... .... = Sequence Number Suppression: False
        .... ..0. .... .... = Information Elements Present: False
        .... 10.. .... .... = Destination Addressing Mode: Short/16-bit (0x2)
        ..00 .... .... .... = Frame Version: IEEE Std 802.15.4-2003 (0)
        10.. .... .... .... = Source Addressing Mode: Short/16-bit (0x2)
    Sequence Number: 29
    Destination PAN: 0x3332
    Destination: 0x0203
    Source: 0x0103
    FCS: 0x24a5 (Correct)
    [Ack In: 341]
Data (18 bytes)
    Data: 4f000000a5010000010000000000357f9cf9
    [Length: 18]

0000  61 88 1d 32 33 03 02 03 01 4f 00 00 00 a5 01 00   a..23....O......
0010  00 01 00 00 00 00 00 35 7f 9c f9 a5 24            .......5....$

No.     Time           Source                Destination           Protocol Length Info
    341 13.762374                                                  IEEE 802.15.4 5      Ack

Frame 341: 5 bytes on wire (40 bits), 5 bytes captured (40 bits)
    Encapsulation type: IEEE 802.15.4 Wireless PAN (104)
    Arrival Time: Mar  3, 2023 16:19:09.813837000 CST
    [Time shift for this packet: 0.000000000 seconds]
    Epoch Time: 1677881949.813837000 seconds
    [Time delta from previous captured frame: 0.000541000 seconds]
    [Time delta from previous displayed frame: 0.000541000 seconds]
    [Time since reference or first frame: 13.762374000 seconds]
    Frame Number: 341
    Frame Length: 5 bytes (40 bits)
    Capture Length: 5 bytes (40 bits)
    [Frame is marked: False]
    [Frame is ignored: False]
    [Protocols in frame: wpan]
IEEE 802.15.4 Ack, Sequence Number: 29
    Frame Control Field: 0x0002, Frame Type: Ack, Destination Addressing Mode: None, Frame Version: IEEE Std 802.15.4-2003, Source Addressing Mode: None
        .... .... .... .010 = Frame Type: Ack (0x2)
        .... .... .... 0... = Security Enabled: False
        .... .... ...0 .... = Frame Pending: False
        .... .... ..0. .... = Acknowledge Request: False
        .... .... .0.. .... = PAN ID Compression: False
        .... .... 0... .... = Reserved: False
        .... ...0 .... .... = Sequence Number Suppression: False
        .... ..0. .... .... = Information Elements Present: False
        .... 00.. .... .... = Destination Addressing Mode: None (0x0)
        ..00 .... .... .... = Frame Version: IEEE Std 802.15.4-2003 (0)
        00.. .... .... .... = Source Addressing Mode: None (0x0)
    Sequence Number: 29
    FCS: 0x7edc (Correct)
    [Ack To: 340]
    [Ack Time: 0.541 ms]

0000  02 00 1d dc 7e                                    ....~

No.     Time           Source                Destination           Protocol Length Info
    342 13.821419      0x0203                0x0103                IEEE 802.15.4 34     Data, Dst: 0x0103, Src: 0x0203

Frame 342: 34 bytes on wire (272 bits), 34 bytes captured (272 bits)
    Encapsulation type: IEEE 802.15.4 Wireless PAN (104)
    Arrival Time: Mar  3, 2023 16:19:09.872882000 CST
    [Time shift for this packet: 0.000000000 seconds]
    Epoch Time: 1677881949.872882000 seconds
    [Time delta from previous captured frame: 0.059045000 seconds]
    [Time delta from previous displayed frame: 0.059045000 seconds]
    [Time since reference or first frame: 13.821419000 seconds]
    Frame Number: 342
    Frame Length: 34 bytes (272 bits)
    Capture Length: 34 bytes (272 bits)
    [Frame is marked: False]
    [Frame is ignored: False]
    [Protocols in frame: wpan:data]
IEEE 802.15.4 Data, Dst: 0x0103, Src: 0x0203
    Frame Control Field: 0x8861, Frame Type: Data, Acknowledge Request, PAN ID Compression, Destination Addressing Mode: Short/16-bit, Frame Version: IEEE Std 802.15.4-2003, Source Addressing Mode: Short/16-bit
        .... .... .... .001 = Frame Type: Data (0x1)
        .... .... .... 0... = Security Enabled: False
        .... .... ...0 .... = Frame Pending: False
        .... .... ..1. .... = Acknowledge Request: True
        .... .... .1.. .... = PAN ID Compression: True
        .... .... 0... .... = Reserved: False
        .... ...0 .... .... = Sequence Number Suppression: False
        .... ..0. .... .... = Information Elements Present: False
        .... 10.. .... .... = Destination Addressing Mode: Short/16-bit (0x2)
        ..00 .... .... .... = Frame Version: IEEE Std 802.15.4-2003 (0)
        10.. .... .... .... = Source Addressing Mode: Short/16-bit (0x2)
    Sequence Number: 222
    Destination PAN: 0x3332
    Destination: 0x0103
    Source: 0x0203
    FCS: 0x8526 (Correct)
    [Ack In: 343]
Data (23 bytes)
    Data: 1200fd0900000effbe000000000000000608c00403731f
    [Length: 23]

0000  61 88 de 32 33 03 01 03 02 12 00 fd 09 00 00 0e   a..23...........
0010  ff be 00 00 00 00 00 00 00 06 08 c0 04 03 73 1f   ..............s.
0020  26 85                                             &.

No.     Time           Source                Destination           Protocol Length Info
    343 13.821950                                                  IEEE 802.15.4 5      Ack

Frame 343: 5 bytes on wire (40 bits), 5 bytes captured (40 bits)
    Encapsulation type: IEEE 802.15.4 Wireless PAN (104)
    Arrival Time: Mar  3, 2023 16:19:09.873413000 CST
    [Time shift for this packet: 0.000000000 seconds]
    Epoch Time: 1677881949.873413000 seconds
    [Time delta from previous captured frame: 0.000531000 seconds]
    [Time delta from previous displayed frame: 0.000531000 seconds]
    [Time since reference or first frame: 13.821950000 seconds]
    Frame Number: 343
    Frame Length: 5 bytes (40 bits)
    Capture Length: 5 bytes (40 bits)
    [Frame is marked: False]
    [Frame is ignored: False]
    [Protocols in frame: wpan]
IEEE 802.15.4 Ack, Sequence Number: 222
    Frame Control Field: 0x0002, Frame Type: Ack, Destination Addressing Mode: None, Frame Version: IEEE Std 802.15.4-2003, Source Addressing Mode: None
        .... .... .... .010 = Frame Type: Ack (0x2)
        .... .... .... 0... = Security Enabled: False
        .... .... ...0 .... = Frame Pending: False
        .... .... ..0. .... = Acknowledge Request: False
        .... .... .0.. .... = PAN ID Compression: False
        .... .... 0... .... = Reserved: False
        .... ...0 .... .... = Sequence Number Suppression: False
        .... ..0. .... .... = Information Elements Present: False
        .... 00.. .... .... = Destination Addressing Mode: None (0x0)
        ..00 .... .... .... = Frame Version: IEEE Std 802.15.4-2003 (0)
        00.. .... .... .... = Source Addressing Mode: None (0x0)
    Sequence Number: 222
    FCS: 0x8a4b (Correct)
    [Ack To: 342]
    [Ack Time: 0.531 ms]

0000  02 00 de 4b 8a                                    ...K.

No.     Time           Source                Destination           Protocol Length Info
    344 13.875325      0x0103                0x0203                IEEE 802.15.4 53     Data, Dst: 0x0203, Src: 0x0103

Frame 344: 53 bytes on wire (424 bits), 53 bytes captured (424 bits)
    Encapsulation type: IEEE 802.15.4 Wireless PAN (104)
    Arrival Time: Mar  3, 2023 16:19:09.926788000 CST
    [Time shift for this packet: 0.000000000 seconds]
    Epoch Time: 1677881949.926788000 seconds
    [Time delta from previous captured frame: 0.053375000 seconds]
    [Time delta from previous displayed frame: 0.053375000 seconds]
    [Time since reference or first frame: 13.875325000 seconds]
    Frame Number: 344
    Frame Length: 53 bytes (424 bits)
    Capture Length: 53 bytes (424 bits)
    [Frame is marked: False]
    [Frame is ignored: False]
    [Protocols in frame: wpan:data]
IEEE 802.15.4 Data, Dst: 0x0203, Src: 0x0103
    Frame Control Field: 0x8861, Frame Type: Data, Acknowledge Request, PAN ID Compression, Destination Addressing Mode: Short/16-bit, Frame Version: IEEE Std 802.15.4-2003, Source Addressing Mode: Short/16-bit
        .... .... .... .001 = Frame Type: Data (0x1)
        .... .... .... 0... = Security Enabled: False
        .... .... ...0 .... = Frame Pending: False
        .... .... ..1. .... = Acknowledge Request: True
        .... .... .1.. .... = PAN ID Compression: True
        .... .... 0... .... = Reserved: False
        .... ...0 .... .... = Sequence Number Suppression: False
        .... ..0. .... .... = Information Elements Present: False
        .... 10.. .... .... = Destination Addressing Mode: Short/16-bit (0x2)
        ..00 .... .... .... = Frame Version: IEEE Std 802.15.4-2003 (0)
        10.. .... .... .... = Source Addressing Mode: Short/16-bit (0x2)
    Sequence Number: 30
    Destination PAN: 0x3332
    Destination: 0x0203
    Source: 0x0103
    FCS: 0x291c (Correct)
    [Ack In: 345]
Data (42 bytes)
    Data: 5000fd1c0000c00301210000071f10000000000000000000
    [Length: 42]

0000  61 88 1e 32 33 03 02 03 01 50 00 fd 1c 00 00 c0   a..23....P......
0010  03 01 21 00 00 07 1f 10 00 00 00 00 00 00 00 00   ..!.............
0020  00 e0 01 00 00 e6 01 00 00 01 00 00 00 00 00 34   ...............4
0030  7f 76 6f 1c 29                                    .vo.)

No.     Time           Source                Destination           Protocol Length Info
    345 13.875839                                                  IEEE 802.15.4 5      Ack

Frame 345: 5 bytes on wire (40 bits), 5 bytes captured (40 bits)
    Encapsulation type: IEEE 802.15.4 Wireless PAN (104)
    Arrival Time: Mar  3, 2023 16:19:09.927302000 CST
    [Time shift for this packet: 0.000000000 seconds]
    Epoch Time: 1677881949.927302000 seconds
    [Time delta from previous captured frame: 0.000514000 seconds]
    [Time delta from previous displayed frame: 0.000514000 seconds]
    [Time since reference or first frame: 13.875839000 seconds]
    Frame Number: 345
    Frame Length: 5 bytes (40 bits)
    Capture Length: 5 bytes (40 bits)
    [Frame is marked: False]
    [Frame is ignored: False]
    [Protocols in frame: wpan]
IEEE 802.15.4 Ack, Sequence Number: 30
    Frame Control Field: 0x0002, Frame Type: Ack, Destination Addressing Mode: None, Frame Version: IEEE Std 802.15.4-2003, Source Addressing Mode: None
        .... .... .... .010 = Frame Type: Ack (0x2)
        .... .... .... 0... = Security Enabled: False
        .... .... ...0 .... = Frame Pending: False
        .... .... ..0. .... = Acknowledge Request: False
        .... .... .0.. .... = PAN ID Compression: False
        .... .... 0... .... = Reserved: False
        .... ...0 .... .... = Sequence Number Suppression: False
        .... ..0. .... .... = Information Elements Present: False
        .... 00.. .... .... = Destination Addressing Mode: None (0x0)
        ..00 .... .... .... = Frame Version: IEEE Std 802.15.4-2003 (0)
        00.. .... .... .... = Source Addressing Mode: None (0x0)
    Sequence Number: 30
    FCS: 0x4c47 (Correct)
    [Ack To: 344]
    [Ack Time: 0.514 ms]

0000  02 00 1e 47 4c                                    ...GL

No.     Time           Source                Destination           Protocol Length Info
    346 14.001091      0x0103                0x0203                IEEE 802.15.4 53     Data, Dst: 0x0203, Src: 0x0103

Frame 346: 53 bytes on wire (424 bits), 53 bytes captured (424 bits)
    Encapsulation type: IEEE 802.15.4 Wireless PAN (104)
    Arrival Time: Mar  3, 2023 16:19:10.052554000 CST
    [Time shift for this packet: 0.000000000 seconds]
    Epoch Time: 1677881950.052554000 seconds
    [Time delta from previous captured frame: 0.125252000 seconds]
    [Time delta from previous displayed frame: 0.125252000 seconds]
    [Time since reference or first frame: 14.001091000 seconds]
    Frame Number: 346
    Frame Length: 53 bytes (424 bits)
    Capture Length: 53 bytes (424 bits)
    [Frame is marked: False]
    [Frame is ignored: False]
    [Protocols in frame: wpan:data]
IEEE 802.15.4 Data, Dst: 0x0203, Src: 0x0103
    Frame Control Field: 0x8861, Frame Type: Data, Acknowledge Request, PAN ID Compression, Destination Addressing Mode: Short/16-bit, Frame Version: IEEE Std 802.15.4-2003, Source Addressing Mode: Short/16-bit
        .... .... .... .001 = Frame Type: Data (0x1)
        .... .... .... 0... = Security Enabled: False
        .... .... ...0 .... = Frame Pending: False
        .... .... ..1. .... = Acknowledge Request: True
        .... .... .1.. .... = PAN ID Compression: True
        .... .... 0... .... = Reserved: False
        .... ...0 .... .... = Sequence Number Suppression: False
        .... ..0. .... .... = Information Elements Present: False
        .... 10.. .... .... = Destination Addressing Mode: Short/16-bit (0x2)
        ..00 .... .... .... = Frame Version: IEEE Std 802.15.4-2003 (0)
        10.. .... .... .... = Source Addressing Mode: Short/16-bit (0x2)
    Sequence Number: 31
    Destination PAN: 0x3332
    Destination: 0x0203
    Source: 0x0103
    FCS: 0x2114 (Correct)
    [Ack In: 347]
Data (42 bytes)
    Data: 5100fd1c0000c10301210000851f10000000000000000000
    [Length: 42]

0000  61 88 1f 32 33 03 02 03 01 51 00 fd 1c 00 00 c1   a..23....Q......
0010  03 01 21 00 00 85 1f 10 00 00 00 00 00 00 00 00   ..!.............
0020  00 9a 01 00 00 9c 01 00 00 01 00 00 00 00 00 33   ...............3
0030  7f e4 43 14 21                                    ..C.!

No.     Time           Source                Destination           Protocol Length Info
    347 14.001596                                                  IEEE 802.15.4 5      Ack

Frame 347: 5 bytes on wire (40 bits), 5 bytes captured (40 bits)
    Encapsulation type: IEEE 802.15.4 Wireless PAN (104)
    Arrival Time: Mar  3, 2023 16:19:10.053059000 CST
    [Time shift for this packet: 0.000000000 seconds]
    Epoch Time: 1677881950.053059000 seconds
    [Time delta from previous captured frame: 0.000505000 seconds]
    [Time delta from previous displayed frame: 0.000505000 seconds]
    [Time since reference or first frame: 14.001596000 seconds]
    Frame Number: 347
    Frame Length: 5 bytes (40 bits)
    Capture Length: 5 bytes (40 bits)
    [Frame is marked: False]
    [Frame is ignored: False]
    [Protocols in frame: wpan]
IEEE 802.15.4 Ack, Sequence Number: 31
    Frame Control Field: 0x0002, Frame Type: Ack, Destination Addressing Mode: None, Frame Version: IEEE Std 802.15.4-2003, Source Addressing Mode: None
        .... .... .... .010 = Frame Type: Ack (0x2)
        .... .... .... 0... = Security Enabled: False
        .... .... ...0 .... = Frame Pending: False
        .... .... ..0. .... = Acknowledge Request: False
        .... .... .0.. .... = PAN ID Compression: False
        .... .... 0... .... = Reserved: False
        .... ...0 .... .... = Sequence Number Suppression: False
        .... ..0. .... .... = Information Elements Present: False
        .... 00.. .... .... = Destination Addressing Mode: None (0x0)
        ..00 .... .... .... = Frame Version: IEEE Std 802.15.4-2003 (0)
        00.. .... .... .... = Source Addressing Mode: None (0x0)
    Sequence Number: 31
    FCS: 0x5dce (Correct)
    [Ack To: 346]
    [Ack Time: 0.505 ms]

0000  02 00 1f ce 5d                                    ....]

No.     Time           Source                Destination           Protocol Length Info
    348 14.125131      0x0103                0x0203                IEEE 802.15.4 53     Data, Dst: 0x0203, Src: 0x0103

Frame 348: 53 bytes on wire (424 bits), 53 bytes captured (424 bits)
    Encapsulation type: IEEE 802.15.4 Wireless PAN (104)
    Arrival Time: Mar  3, 2023 16:19:10.176594000 CST
    [Time shift for this packet: 0.000000000 seconds]
    Epoch Time: 1677881950.176594000 seconds
    [Time delta from previous captured frame: 0.123535000 seconds]
    [Time delta from previous displayed frame: 0.123535000 seconds]
    [Time since reference or first frame: 14.125131000 seconds]
    Frame Number: 348
    Frame Length: 53 bytes (424 bits)
    Capture Length: 53 bytes (424 bits)
    [Frame is marked: False]
    [Frame is ignored: False]
    [Protocols in frame: wpan:data]
IEEE 802.15.4 Data, Dst: 0x0203, Src: 0x0103
    Frame Control Field: 0x8861, Frame Type: Data, Acknowledge Request, PAN ID Compression, Destination Addressing Mode: Short/16-bit, Frame Version: IEEE Std 802.15.4-2003, Source Addressing Mode: Short/16-bit
        .... .... .... .001 = Frame Type: Data (0x1)
        .... .... .... 0... = Security Enabled: False
        .... .... ...0 .... = Frame Pending: False
        .... .... ..1. .... = Acknowledge Request: True
        .... .... .1.. .... = PAN ID Compression: True
        .... .... 0... .... = Reserved: False
        .... ...0 .... .... = Sequence Number Suppression: False
        .... ..0. .... .... = Information Elements Present: False
        .... 10.. .... .... = Destination Addressing Mode: Short/16-bit (0x2)
        ..00 .... .... .... = Frame Version: IEEE Std 802.15.4-2003 (0)
        10.. .... .... .... = Source Addressing Mode: Short/16-bit (0x2)
    Sequence Number: 32
    Destination PAN: 0x3332
    Destination: 0x0203
    Source: 0x0103
    FCS: 0x18ee (Correct)
    [Ack In: 349]
Data (42 bytes)
    Data: 5200fd1c0000c20301210000012010000000000000000000
    [Length: 42]

0000  61 88 20 32 33 03 02 03 01 52 00 fd 1c 00 00 c2   a. 23....R......
0010  03 01 21 00 00 01 20 10 00 00 00 00 00 00 00 00   ..!... .........
0020  00 4a 01 00 00 50 01 00 00 01 00 00 00 00 00 33   .J...P.........3
0030  7f 9e 8c ee 18                                    .....

No.     Time           Source                Destination           Protocol Length Info
    349 14.125574                                                  IEEE 802.15.4 5      Ack

Frame 349: 5 bytes on wire (40 bits), 5 bytes captured (40 bits)
    Encapsulation type: IEEE 802.15.4 Wireless PAN (104)
    Arrival Time: Mar  3, 2023 16:19:10.177037000 CST
    [Time shift for this packet: 0.000000000 seconds]
    Epoch Time: 1677881950.177037000 seconds
    [Time delta from previous captured frame: 0.000443000 seconds]
    [Time delta from previous displayed frame: 0.000443000 seconds]
    [Time since reference or first frame: 14.125574000 seconds]
    Frame Number: 349
    Frame Length: 5 bytes (40 bits)
    Capture Length: 5 bytes (40 bits)
    [Frame is marked: False]
    [Frame is ignored: False]
    [Protocols in frame: wpan]
IEEE 802.15.4 Ack, Sequence Number: 32
    Frame Control Field: 0x0002, Frame Type: Ack, Destination Addressing Mode: None, Frame Version: IEEE Std 802.15.4-2003, Source Addressing Mode: None
        .... .... .... .010 = Frame Type: Ack (0x2)
        .... .... .... 0... = Security Enabled: False
        .... .... ...0 .... = Frame Pending: False
        .... .... ..0. .... = Acknowledge Request: False
        .... .... .0.. .... = PAN ID Compression: False
        .... .... 0... .... = Reserved: False
        .... ...0 .... .... = Sequence Number Suppression: False
        .... ..0. .... .... = Information Elements Present: False
        .... 00.. .... .... = Destination Addressing Mode: None (0x0)
        ..00 .... .... .... = Frame Version: IEEE Std 802.15.4-2003 (0)
        00.. .... .... .... = Source Addressing Mode: None (0x0)
    Sequence Number: 32
    FCS: 0x94ba (Correct)
    [Ack To: 348]
    [Ack Time: 0.443 ms]

0000  02 00 20 ba 94                                    .. ..

No.     Time           Source                Destination           Protocol Length Info
    350 14.265095      0x0103                0x0203                IEEE 802.15.4 113    Data, Dst: 0x0203, Src: 0x0103

Frame 350: 113 bytes on wire (904 bits), 113 bytes captured (904 bits)
    Encapsulation type: IEEE 802.15.4 Wireless PAN (104)
    Arrival Time: Mar  3, 2023 16:19:10.316558000 CST
    [Time shift for this packet: 0.000000000 seconds]
    Epoch Time: 1677881950.316558000 seconds
    [Time delta from previous captured frame: 0.139521000 seconds]
    [Time delta from previous displayed frame: 0.139521000 seconds]
    [Time since reference or first frame: 14.265095000 seconds]
    Frame Number: 350
    Frame Length: 113 bytes (904 bits)
    Capture Length: 113 bytes (904 bits)
    [Frame is marked: False]
    [Frame is ignored: False]
    [Protocols in frame: wpan:data]
IEEE 802.15.4 Data, Dst: 0x0203, Src: 0x0103
    Frame Control Field: 0x8861, Frame Type: Data, Acknowledge Request, PAN ID Compression, Destination Addressing Mode: Short/16-bit, Frame Version: IEEE Std 802.15.4-2003, Source Addressing Mode: Short/16-bit
        .... .... .... .001 = Frame Type: Data (0x1)
        .... .... .... 0... = Security Enabled: False
        .... .... ...0 .... = Frame Pending: False
        .... .... ..1. .... = Acknowledge Request: True
        .... .... .1.. .... = PAN ID Compression: True
        .... .... 0... .... = Reserved: False
        .... ...0 .... .... = Sequence Number Suppression: False
        .... ..0. .... .... = Information Elements Present: False
        .... 10.. .... .... = Destination Addressing Mode: Short/16-bit (0x2)
        ..00 .... .... .... = Frame Version: IEEE Std 802.15.4-2003 (0)
        10.. .... .... .... = Source Addressing Mode: Short/16-bit (0x2)
    Sequence Number: 33
    Destination PAN: 0x3332
    Destination: 0x0203
    Source: 0x0103
    FCS: 0x87c8 (Correct)
    [Ack In: 351]
Data (102 bytes)
    Data: 5300fd1f0000c303010100000ffc60130f1c60100f9c5001
    [Length: 102]

0000  61 88 21 32 33 03 02 03 01 53 00 fd 1f 00 00 c3   a.!23....S......
0010  03 01 01 00 00 0f fc 60 13 0f 1c 60 10 0f 9c 50   .......`...`...P
0020  01 05 02 00 00 ff ff 00 00 00 00 00 00 00 00 00   ................
0030  00 00 00 ff 73 84 fd 16 00 00 c4 03 01 c1 00 00   ....s...........
0040  00 00 00 00 b1 c8 3e 3b d1 8d 18 3a fe 40 e1 3d   ......>;...:.@.=
0050  00 00 00 00 a5 01 b6 81 fd 1c 00 00 c5 03 01 1e   ................
0060  00 00 86 20 10 00 1a 13 a3 3d c7 38 f6 3a fd c8   ... .....=.8.:..
0070  87                                                .

No.     Time           Source                Destination           Protocol Length Info
    351 14.265498                                                  IEEE 802.15.4 5      Ack

Frame 351: 5 bytes on wire (40 bits), 5 bytes captured (40 bits)
    Encapsulation type: IEEE 802.15.4 Wireless PAN (104)
    Arrival Time: Mar  3, 2023 16:19:10.316961000 CST
    [Time shift for this packet: 0.000000000 seconds]
    Epoch Time: 1677881950.316961000 seconds
    [Time delta from previous captured frame: 0.000403000 seconds]
    [Time delta from previous displayed frame: 0.000403000 seconds]
    [Time since reference or first frame: 14.265498000 seconds]
    Frame Number: 351
    Frame Length: 5 bytes (40 bits)
    Capture Length: 5 bytes (40 bits)
    [Frame is marked: False]
    [Frame is ignored: False]
    [Protocols in frame: wpan]
IEEE 802.15.4 Ack, Sequence Number: 33
    Frame Control Field: 0x0002, Frame Type: Ack, Destination Addressing Mode: None, Frame Version: IEEE Std 802.15.4-2003, Source Addressing Mode: None
        .... .... .... .010 = Frame Type: Ack (0x2)
        .... .... .... 0... = Security Enabled: False
        .... .... ...0 .... = Frame Pending: False
        .... .... ..0. .... = Acknowledge Request: False
        .... .... .0.. .... = PAN ID Compression: False
        .... .... 0... .... = Reserved: False
        .... ...0 .... .... = Sequence Number Suppression: False
        .... ..0. .... .... = Information Elements Present: False
        .... 00.. .... .... = Destination Addressing Mode: None (0x0)
        ..00 .... .... .... = Frame Version: IEEE Std 802.15.4-2003 (0)
        00.. .... .... .... = Source Addressing Mode: None (0x0)
    Sequence Number: 33
    FCS: 0x8533 (Correct)
    [Ack To: 350]
    [Ack Time: 0.403 ms]

0000  02 00 21 33 85                                    ..!3.

No.     Time           Source                Destination           Protocol Length Info
    352 14.268839      0x0103                0x0203                IEEE 802.15.4 20     Data, Dst: 0x0203, Src: 0x0103

Frame 352: 20 bytes on wire (160 bits), 20 bytes captured (160 bits)
    Encapsulation type: IEEE 802.15.4 Wireless PAN (104)
    Arrival Time: Mar  3, 2023 16:19:10.320302000 CST
    [Time shift for this packet: 0.000000000 seconds]
    Epoch Time: 1677881950.320302000 seconds
    [Time delta from previous captured frame: 0.003341000 seconds]
    [Time delta from previous displayed frame: 0.003341000 seconds]
    [Time since reference or first frame: 14.268839000 seconds]
    Frame Number: 352
    Frame Length: 20 bytes (160 bits)
    Capture Length: 20 bytes (160 bits)
    [Frame is marked: False]
    [Frame is ignored: False]
    [Protocols in frame: wpan:data]
IEEE 802.15.4 Data, Dst: 0x0203, Src: 0x0103
    Frame Control Field: 0x8861, Frame Type: Data, Acknowledge Request, PAN ID Compression, Destination Addressing Mode: Short/16-bit, Frame Version: IEEE Std 802.15.4-2003, Source Addressing Mode: Short/16-bit
        .... .... .... .001 = Frame Type: Data (0x1)
        .... .... .... 0... = Security Enabled: False
        .... .... ...0 .... = Frame Pending: False
        .... .... ..1. .... = Acknowledge Request: True
        .... .... .1.. .... = PAN ID Compression: True
        .... .... 0... .... = Reserved: False
        .... ...0 .... .... = Sequence Number Suppression: False
        .... ..0. .... .... = Information Elements Present: False
        .... 10.. .... .... = Destination Addressing Mode: Short/16-bit (0x2)
        ..00 .... .... .... = Frame Version: IEEE Std 802.15.4-2003 (0)
        10.. .... .... .... = Source Addressing Mode: Short/16-bit (0x2)
    Sequence Number: 34
    Destination PAN: 0x3332
    Destination: 0x0203
    Source: 0x0103
    FCS: 0x4386 (Correct)
    [Ack In: 353]
Data (9 bytes)
    Data: 5400a619bf4824da39
    [Length: 9]

0000  61 88 22 32 33 03 02 03 01 54 00 a6 19 bf 48 24   a."23....T....H$
0010  da 39 86 43                                       .9.C

No.     Time           Source                Destination           Protocol Length Info
    353 14.269327                                                  IEEE 802.15.4 5      Ack

Frame 353: 5 bytes on wire (40 bits), 5 bytes captured (40 bits)
    Encapsulation type: IEEE 802.15.4 Wireless PAN (104)
    Arrival Time: Mar  3, 2023 16:19:10.320790000 CST
    [Time shift for this packet: 0.000000000 seconds]
    Epoch Time: 1677881950.320790000 seconds
    [Time delta from previous captured frame: 0.000488000 seconds]
    [Time delta from previous displayed frame: 0.000488000 seconds]
    [Time since reference or first frame: 14.269327000 seconds]
    Frame Number: 353
    Frame Length: 5 bytes (40 bits)
    Capture Length: 5 bytes (40 bits)
    [Frame is marked: False]
    [Frame is ignored: False]
    [Protocols in frame: wpan]
IEEE 802.15.4 Ack, Sequence Number: 34
    Frame Control Field: 0x0002, Frame Type: Ack, Destination Addressing Mode: None, Frame Version: IEEE Std 802.15.4-2003, Source Addressing Mode: None
        .... .... .... .010 = Frame Type: Ack (0x2)
        .... .... .... 0... = Security Enabled: False
        .... .... ...0 .... = Frame Pending: False
        .... .... ..0. .... = Acknowledge Request: False
        .... .... .0.. .... = PAN ID Compression: False
        .... .... 0... .... = Reserved: False
        .... ...0 .... .... = Sequence Number Suppression: False
        .... ..0. .... .... = Information Elements Present: False
        .... 00.. .... .... = Destination Addressing Mode: None (0x0)
        ..00 .... .... .... = Frame Version: IEEE Std 802.15.4-2003 (0)
        00.. .... .... .... = Source Addressing Mode: None (0x0)
    Sequence Number: 34
    FCS: 0xb7a8 (Correct)
    [Ack To: 352]
    [Ack Time: 0.488 ms]

0000  02 00 22 a8 b7                                    .."..

No.     Time           Source                Destination           Protocol Length Info
    354 14.274230      0x0103                0x0203                IEEE 802.15.4 63     Data, Dst: 0x0203, Src: 0x0103

Frame 354: 63 bytes on wire (504 bits), 63 bytes captured (504 bits)
    Encapsulation type: IEEE 802.15.4 Wireless PAN (104)
    Arrival Time: Mar  3, 2023 16:19:10.325693000 CST
    [Time shift for this packet: 0.000000000 seconds]
    Epoch Time: 1677881950.325693000 seconds
    [Time delta from previous captured frame: 0.004903000 seconds]
    [Time delta from previous displayed frame: 0.004903000 seconds]
    [Time since reference or first frame: 14.274230000 seconds]
    Frame Number: 354
    Frame Length: 63 bytes (504 bits)
    Capture Length: 63 bytes (504 bits)
    [Frame is marked: False]
    [Frame is ignored: False]
    [Protocols in frame: wpan:data]
IEEE 802.15.4 Data, Dst: 0x0203, Src: 0x0103
    Frame Control Field: 0x8861, Frame Type: Data, Acknowledge Request, PAN ID Compression, Destination Addressing Mode: Short/16-bit, Frame Version: IEEE Std 802.15.4-2003, Source Addressing Mode: Short/16-bit
        .... .... .... .001 = Frame Type: Data (0x1)
        .... .... .... 0... = Security Enabled: False
        .... .... ...0 .... = Frame Pending: False
        .... .... ..1. .... = Acknowledge Request: True
        .... .... .1.. .... = PAN ID Compression: True
        .... .... 0... .... = Reserved: False
        .... ...0 .... .... = Sequence Number Suppression: False
        .... ..0. .... .... = Information Elements Present: False
        .... 10.. .... .... = Destination Addressing Mode: Short/16-bit (0x2)
        ..00 .... .... .... = Frame Version: IEEE Std 802.15.4-2003 (0)
        10.. .... .... .... = Source Addressing Mode: Short/16-bit (0x2)
    Sequence Number: 35
    Destination PAN: 0x3332
    Destination: 0x0203
    Source: 0x0103
    FCS: 0x7af5 (Correct)
    [Ack In: 355]
Data (52 bytes)
    Data: 55000552a839079f5d3b4acffd1c0000c603012100008820
    [Length: 52]

0000  61 88 23 32 33 03 02 03 01 55 00 05 52 a8 39 07   a.#23....U..R.9.
0010  9f 5d 3b 4a cf fd 1c 00 00 c6 03 01 21 00 00 88   .];J........!...
0020  20 10 00 00 00 00 00 00 00 00 00 fe 01 00 00 05    ...............
0030  02 00 00 01 00 00 00 00 00 32 7f 06 3e f5 7a      .........2..>.z

No.     Time           Source                Destination           Protocol Length Info
    355 14.274771                                                  IEEE 802.15.4 5      Ack

Frame 355: 5 bytes on wire (40 bits), 5 bytes captured (40 bits)
    Encapsulation type: IEEE 802.15.4 Wireless PAN (104)
    Arrival Time: Mar  3, 2023 16:19:10.326234000 CST
    [Time shift for this packet: 0.000000000 seconds]
    Epoch Time: 1677881950.326234000 seconds
    [Time delta from previous captured frame: 0.000541000 seconds]
    [Time delta from previous displayed frame: 0.000541000 seconds]
    [Time since reference or first frame: 14.274771000 seconds]
    Frame Number: 355
    Frame Length: 5 bytes (40 bits)
    Capture Length: 5 bytes (40 bits)
    [Frame is marked: False]
    [Frame is ignored: False]
    [Protocols in frame: wpan]
IEEE 802.15.4 Ack, Sequence Number: 35
    Frame Control Field: 0x0002, Frame Type: Ack, Destination Addressing Mode: None, Frame Version: IEEE Std 802.15.4-2003, Source Addressing Mode: None
        .... .... .... .010 = Frame Type: Ack (0x2)
        .... .... .... 0... = Security Enabled: False
        .... .... ...0 .... = Frame Pending: False
        .... .... ..0. .... = Acknowledge Request: False
        .... .... .0.. .... = PAN ID Compression: False
        .... .... 0... .... = Reserved: False
        .... ...0 .... .... = Sequence Number Suppression: False
        .... ..0. .... .... = Information Elements Present: False
        .... 00.. .... .... = Destination Addressing Mode: None (0x0)
        ..00 .... .... .... = Frame Version: IEEE Std 802.15.4-2003 (0)
        00.. .... .... .... = Source Addressing Mode: None (0x0)
    Sequence Number: 35
    FCS: 0xa621 (Correct)
    [Ack To: 354]
    [Ack Time: 0.541 ms]

0000  02 00 23 21 a6                                    ..#!.

No.     Time           Source                Destination           Protocol Length Info
    356 14.320898      0x0103                0x0203                IEEE 802.15.4 34     Data, Dst: 0x0203, Src: 0x0103

Frame 356: 34 bytes on wire (272 bits), 34 bytes captured (272 bits)
    Encapsulation type: IEEE 802.15.4 Wireless PAN (104)
    Arrival Time: Mar  3, 2023 16:19:10.372361000 CST
    [Time shift for this packet: 0.000000000 seconds]
    Epoch Time: 1677881950.372361000 seconds
    [Time delta from previous captured frame: 0.046127000 seconds]
    [Time delta from previous displayed frame: 0.046127000 seconds]
    [Time since reference or first frame: 14.320898000 seconds]
    Frame Number: 356
    Frame Length: 34 bytes (272 bits)
    Capture Length: 34 bytes (272 bits)
    [Frame is marked: False]
    [Frame is ignored: False]
    [Protocols in frame: wpan:data]
IEEE 802.15.4 Data, Dst: 0x0203, Src: 0x0103
    Frame Control Field: 0x8861, Frame Type: Data, Acknowledge Request, PAN ID Compression, Destination Addressing Mode: Short/16-bit, Frame Version: IEEE Std 802.15.4-2003, Source Addressing Mode: Short/16-bit
        .... .... .... .001 = Frame Type: Data (0x1)
        .... .... .... 0... = Security Enabled: False
        .... .... ...0 .... = Frame Pending: False
        .... .... ..1. .... = Acknowledge Request: True
        .... .... .1.. .... = PAN ID Compression: True
        .... .... 0... .... = Reserved: False
        .... ...0 .... .... = Sequence Number Suppression: False
        .... ..0. .... .... = Information Elements Present: False
        .... 10.. .... .... = Destination Addressing Mode: Short/16-bit (0x2)
        ..00 .... .... .... = Frame Version: IEEE Std 802.15.4-2003 (0)
        10.. .... .... .... = Source Addressing Mode: Short/16-bit (0x2)
    Sequence Number: 36
    Destination PAN: 0x3332
    Destination: 0x0203
    Source: 0x0103
    FCS: 0xcd23 (Correct)
    [Ack In: 357]
Data (23 bytes)
    Data: 5600fd090000c70301000000000000000203510303e202
    [Length: 23]

0000  61 88 24 32 33 03 02 03 01 56 00 fd 09 00 00 c7   a.$23....V......
0010  03 01 00 00 00 00 00 00 00 02 03 51 03 03 e2 02   ...........Q....
0020  23 cd                                             #.

No.     Time           Source                Destination           Protocol Length Info
    357 14.321421                                                  IEEE 802.15.4 5      Ack

Frame 357: 5 bytes on wire (40 bits), 5 bytes captured (40 bits)
    Encapsulation type: IEEE 802.15.4 Wireless PAN (104)
    Arrival Time: Mar  3, 2023 16:19:10.372884000 CST
    [Time shift for this packet: 0.000000000 seconds]
    Epoch Time: 1677881950.372884000 seconds
    [Time delta from previous captured frame: 0.000523000 seconds]
    [Time delta from previous displayed frame: 0.000523000 seconds]
    [Time since reference or first frame: 14.321421000 seconds]
    Frame Number: 357
    Frame Length: 5 bytes (40 bits)
    Capture Length: 5 bytes (40 bits)
    [Frame is marked: False]
    [Frame is ignored: False]
    [Protocols in frame: wpan]
IEEE 802.15.4 Ack, Sequence Number: 36
    Frame Control Field: 0x0002, Frame Type: Ack, Destination Addressing Mode: None, Frame Version: IEEE Std 802.15.4-2003, Source Addressing Mode: None
        .... .... .... .010 = Frame Type: Ack (0x2)
        .... .... .... 0... = Security Enabled: False
        .... .... ...0 .... = Frame Pending: False
        .... .... ..0. .... = Acknowledge Request: False
        .... .... .0.. .... = PAN ID Compression: False
        .... .... 0... .... = Reserved: False
        .... ...0 .... .... = Sequence Number Suppression: False
        .... ..0. .... .... = Information Elements Present: False
        .... 00.. .... .... = Destination Addressing Mode: None (0x0)
        ..00 .... .... .... = Frame Version: IEEE Std 802.15.4-2003 (0)
        00.. .... .... .... = Source Addressing Mode: None (0x0)
    Sequence Number: 36
    FCS: 0xd29e (Correct)
    [Ack To: 356]
    [Ack Time: 0.523 ms]

0000  02 00 24 9e d2                                    ..$..

No.     Time           Source                Destination           Protocol Length Info
    358 14.380990                                                  IEEE 802.15.4 5      Ack

Frame 358: 5 bytes on wire (40 bits), 5 bytes captured (40 bits)
    Encapsulation type: IEEE 802.15.4 Wireless PAN (104)
    Arrival Time: Mar  3, 2023 16:19:10.432453000 CST
    [Time shift for this packet: 0.000000000 seconds]
    Epoch Time: 1677881950.432453000 seconds
    [Time delta from previous captured frame: 0.059569000 seconds]
    [Time delta from previous displayed frame: 0.059569000 seconds]
    [Time since reference or first frame: 14.380990000 seconds]
    Frame Number: 358
    Frame Length: 5 bytes (40 bits)
    Capture Length: 5 bytes (40 bits)
    [Frame is marked: False]
    [Frame is ignored: False]
    [Protocols in frame: wpan]
IEEE 802.15.4 Ack, Sequence Number: 37
    Frame Control Field: 0x0002, Frame Type: Ack, Destination Addressing Mode: None, Frame Version: IEEE Std 802.15.4-2003, Source Addressing Mode: None
        .... .... .... .010 = Frame Type: Ack (0x2)
        .... .... .... 0... = Security Enabled: False
        .... .... ...0 .... = Frame Pending: False
        .... .... ..0. .... = Acknowledge Request: False
        .... .... .0.. .... = PAN ID Compression: False
        .... .... 0... .... = Reserved: False
        .... ...0 .... .... = Sequence Number Suppression: False
        .... ..0. .... .... = Information Elements Present: False
        .... 00.. .... .... = Destination Addressing Mode: None (0x0)
        ..00 .... .... .... = Frame Version: IEEE Std 802.15.4-2003 (0)
        00.. .... .... .... = Source Addressing Mode: None (0x0)
    Sequence Number: 37
    FCS: 0xc317 (Correct)
    [No ack request found]
        [Expert Info (Note/Sequence): No ack request found to ack in frame 358]
            [No ack request found to ack in frame 358]
            [Severity level: Note]
            [Group: Sequence]

0000  02 00 25 17 c3                                    ..%..

No.     Time           Source                Destination           Protocol Length Info
    359 14.502462      0x0103                0x0203                IEEE 802.15.4 53     Data, Dst: 0x0203, Src: 0x0103

Frame 359: 53 bytes on wire (424 bits), 53 bytes captured (424 bits)
    Encapsulation type: IEEE 802.15.4 Wireless PAN (104)
    Arrival Time: Mar  3, 2023 16:19:10.553925000 CST
    [Time shift for this packet: 0.000000000 seconds]
    Epoch Time: 1677881950.553925000 seconds
    [Time delta from previous captured frame: 0.121472000 seconds]
    [Time delta from previous displayed frame: 0.121472000 seconds]
    [Time since reference or first frame: 14.502462000 seconds]
    Frame Number: 359
    Frame Length: 53 bytes (424 bits)
    Capture Length: 53 bytes (424 bits)
    [Frame is marked: False]
    [Frame is ignored: False]
    [Protocols in frame: wpan:data]
IEEE 802.15.4 Data, Dst: 0x0203, Src: 0x0103
    Frame Control Field: 0x8861, Frame Type: Data, Acknowledge Request, PAN ID Compression, Destination Addressing Mode: Short/16-bit, Frame Version: IEEE Std 802.15.4-2003, Source Addressing Mode: Short/16-bit
        .... .... .... .001 = Frame Type: Data (0x1)
        .... .... .... 0... = Security Enabled: False
        .... .... ...0 .... = Frame Pending: False
        .... .... ..1. .... = Acknowledge Request: True
        .... .... .1.. .... = PAN ID Compression: True
        .... .... 0... .... = Reserved: False
        .... ...0 .... .... = Sequence Number Suppression: False
        .... ..0. .... .... = Information Elements Present: False
        .... 10.. .... .... = Destination Addressing Mode: Short/16-bit (0x2)
        ..00 .... .... .... = Frame Version: IEEE Std 802.15.4-2003 (0)
        10.. .... .... .... = Source Addressing Mode: Short/16-bit (0x2)
    Sequence Number: 38
    Destination PAN: 0x3332
    Destination: 0x0203
    Source: 0x0103
    FCS: 0xcdbc (Correct)
    [Ack In: 360]
Data (42 bytes)
    Data: 5800fd1c0000c903012100007a2110000000000000000000
    [Length: 42]

0000  61 88 26 32 33 03 02 03 01 58 00 fd 1c 00 00 c9   a.&23....X......
0010  03 01 21 00 00 7a 21 10 00 00 00 00 00 00 00 00   ..!..z!.........
0020  00 e0 01 00 00 e6 01 00 00 02 00 00 00 00 00 30   ...............0
0030  7f e2 b6 bc cd                                    .....

No.     Time           Source                Destination           Protocol Length Info
    360 14.502912                                                  IEEE 802.15.4 5      Ack

Frame 360: 5 bytes on wire (40 bits), 5 bytes captured (40 bits)
    Encapsulation type: IEEE 802.15.4 Wireless PAN (104)
    Arrival Time: Mar  3, 2023 16:19:10.554375000 CST
    [Time shift for this packet: 0.000000000 seconds]
    Epoch Time: 1677881950.554375000 seconds
    [Time delta from previous captured frame: 0.000450000 seconds]
    [Time delta from previous displayed frame: 0.000450000 seconds]
    [Time since reference or first frame: 14.502912000 seconds]
    Frame Number: 360
    Frame Length: 5 bytes (40 bits)
    Capture Length: 5 bytes (40 bits)
    [Frame is marked: False]
    [Frame is ignored: False]
    [Protocols in frame: wpan]
IEEE 802.15.4 Ack, Sequence Number: 38
    Frame Control Field: 0x0002, Frame Type: Ack, Destination Addressing Mode: None, Frame Version: IEEE Std 802.15.4-2003, Source Addressing Mode: None
        .... .... .... .010 = Frame Type: Ack (0x2)
        .... .... .... 0... = Security Enabled: False
        .... .... ...0 .... = Frame Pending: False
        .... .... ..0. .... = Acknowledge Request: False
        .... .... .0.. .... = PAN ID Compression: False
        .... .... 0... .... = Reserved: False
        .... ...0 .... .... = Sequence Number Suppression: False
        .... ..0. .... .... = Information Elements Present: False
        .... 00.. .... .... = Destination Addressing Mode: None (0x0)
        ..00 .... .... .... = Frame Version: IEEE Std 802.15.4-2003 (0)
        00.. .... .... .... = Source Addressing Mode: None (0x0)
    Sequence Number: 38
    FCS: 0xf18c (Correct)
    [Ack To: 359]
    [Ack Time: 0.450 ms]

0000  02 00 26 8c f1                                    ..&..

No.     Time           Source                Destination           Protocol Length Info
    361 14.624914      0x0103                0x0203                IEEE 802.15.4 53     Data, Dst: 0x0203, Src: 0x0103

Frame 361: 53 bytes on wire (424 bits), 53 bytes captured (424 bits)
    Encapsulation type: IEEE 802.15.4 Wireless PAN (104)
    Arrival Time: Mar  3, 2023 16:19:10.676377000 CST
    [Time shift for this packet: 0.000000000 seconds]
    Epoch Time: 1677881950.676377000 seconds
    [Time delta from previous captured frame: 0.122002000 seconds]
    [Time delta from previous displayed frame: 0.122002000 seconds]
    [Time since reference or first frame: 14.624914000 seconds]
    Frame Number: 361
    Frame Length: 53 bytes (424 bits)
    Capture Length: 53 bytes (424 bits)
    [Frame is marked: False]
    [Frame is ignored: False]
    [Protocols in frame: wpan:data]
IEEE 802.15.4 Data, Dst: 0x0203, Src: 0x0103
    Frame Control Field: 0x8861, Frame Type: Data, Acknowledge Request, PAN ID Compression, Destination Addressing Mode: Short/16-bit, Frame Version: IEEE Std 802.15.4-2003, Source Addressing Mode: Short/16-bit
        .... .... .... .001 = Frame Type: Data (0x1)
        .... .... .... 0... = Security Enabled: False
        .... .... ...0 .... = Frame Pending: False
        .... .... ..1. .... = Acknowledge Request: True
        .... .... .1.. .... = PAN ID Compression: True
        .... .... 0... .... = Reserved: False
        .... ...0 .... .... = Sequence Number Suppression: False
        .... ..0. .... .... = Information Elements Present: False
        .... 10.. .... .... = Destination Addressing Mode: Short/16-bit (0x2)
        ..00 .... .... .... = Frame Version: IEEE Std 802.15.4-2003 (0)
        10.. .... .... .... = Source Addressing Mode: Short/16-bit (0x2)
    Sequence Number: 39
    Destination PAN: 0x3332
    Destination: 0x0203
    Source: 0x0103
    FCS: 0x4567 (Correct)
    [Ack In: 362]
Data (42 bytes)
    Data: 5900fd1c0000ca0301210000f52110000000000000000000
    [Length: 42]

0000  61 88 27 32 33 03 02 03 01 59 00 fd 1c 00 00 ca   a.'23....Y......
0010  03 01 21 00 00 f5 21 10 00 00 00 00 00 00 00 00   ..!...!.........
0020  00 a4 01 00 00 a5 01 00 00 02 00 00 00 00 00 30   ...............0
0030  7f f2 c6 67 45                                    ...gE

No.     Time           Source                Destination           Protocol Length Info
    362 14.625430                                                  IEEE 802.15.4 5      Ack

Frame 362: 5 bytes on wire (40 bits), 5 bytes captured (40 bits)
    Encapsulation type: IEEE 802.15.4 Wireless PAN (104)
    Arrival Time: Mar  3, 2023 16:19:10.676893000 CST
    [Time shift for this packet: 0.000000000 seconds]
    Epoch Time: 1677881950.676893000 seconds
    [Time delta from previous captured frame: 0.000516000 seconds]
    [Time delta from previous displayed frame: 0.000516000 seconds]
    [Time since reference or first frame: 14.625430000 seconds]
    Frame Number: 362
    Frame Length: 5 bytes (40 bits)
    Capture Length: 5 bytes (40 bits)
    [Frame is marked: False]
    [Frame is ignored: False]
    [Protocols in frame: wpan]
IEEE 802.15.4 Ack, Sequence Number: 39
    Frame Control Field: 0x0002, Frame Type: Ack, Destination Addressing Mode: None, Frame Version: IEEE Std 802.15.4-2003, Source Addressing Mode: None
        .... .... .... .010 = Frame Type: Ack (0x2)
        .... .... .... 0... = Security Enabled: False
        .... .... ...0 .... = Frame Pending: False
        .... .... ..0. .... = Acknowledge Request: False
        .... .... .0.. .... = PAN ID Compression: False
        .... .... 0... .... = Reserved: False
        .... ...0 .... .... = Sequence Number Suppression: False
        .... ..0. .... .... = Information Elements Present: False
        .... 00.. .... .... = Destination Addressing Mode: None (0x0)
        ..00 .... .... .... = Frame Version: IEEE Std 802.15.4-2003 (0)
        00.. .... .... .... = Source Addressing Mode: None (0x0)
    Sequence Number: 39
    FCS: 0xe005 (Correct)
    [Ack To: 361]
    [Ack Time: 0.516 ms]

0000  02 00 27 05 e0                                    ..'..

No.     Time           Source                Destination           Protocol Length Info
    363 14.758856      0x0103                0x0203                IEEE 802.15.4 93     Data, Dst: 0x0203, Src: 0x0103

Frame 363: 93 bytes on wire (744 bits), 93 bytes captured (744 bits)
    Encapsulation type: IEEE 802.15.4 Wireless PAN (104)
    Arrival Time: Mar  3, 2023 16:19:10.810319000 CST
    [Time shift for this packet: 0.000000000 seconds]
    Epoch Time: 1677881950.810319000 seconds
    [Time delta from previous captured frame: 0.133426000 seconds]
    [Time delta from previous displayed frame: 0.133426000 seconds]
    [Time since reference or first frame: 14.758856000 seconds]
    Frame Number: 363
    Frame Length: 93 bytes (744 bits)
    Capture Length: 93 bytes (744 bits)
    [Frame is marked: False]
    [Frame is ignored: False]
    [Protocols in frame: wpan:data]
IEEE 802.15.4 Data, Dst: 0x0203, Src: 0x0103
    Frame Control Field: 0x8861, Frame Type: Data, Acknowledge Request, PAN ID Compression, Destination Addressing Mode: Short/16-bit, Frame Version: IEEE Std 802.15.4-2003, Source Addressing Mode: Short/16-bit
        .... .... .... .001 = Frame Type: Data (0x1)
        .... .... .... 0... = Security Enabled: False
        .... .... ...0 .... = Frame Pending: False
        .... .... ..1. .... = Acknowledge Request: True
        .... .... .1.. .... = PAN ID Compression: True
        .... .... 0... .... = Reserved: False
        .... ...0 .... .... = Sequence Number Suppression: False
        .... ..0. .... .... = Information Elements Present: False
        .... 10.. .... .... = Destination Addressing Mode: Short/16-bit (0x2)
        ..00 .... .... .... = Frame Version: IEEE Std 802.15.4-2003 (0)
        10.. .... .... .... = Source Addressing Mode: Short/16-bit (0x2)
    Sequence Number: 40
    Destination PAN: 0x3332
    Destination: 0x0203
    Source: 0x0103
    FCS: 0x7768 (Correct)
    [Ack In: 364]
Data (82 bytes)
    Data: 5a00fd1c0000cb03011e0000722210001501a33dd2adf93a
    [Length: 82]

0000  61 88 28 32 33 03 02 03 01 5a 00 fd 1c 00 00 cb   a.(23....Z......
0010  03 01 1e 00 00 72 22 10 00 15 01 a3 3d d2 ad f9   .....r".....=...
0020  3a da c4 19 bf 88 70 f4 38 44 07 76 38 d0 3d 57   :.....p.8D.v8.=W
0030  3b 6d ba fd 1c 00 00 cc 03 01 21 00 00 72 22 10   ;m........!..r".
0040  00 00 00 00 00 00 00 00 00 40 01 00 00 44 01 00   .........@...D..
0050  00 02 00 00 00 00 00 2f 7f 33 c5 68 77            ......./.3.hw

No.     Time           Source                Destination           Protocol Length Info
    364 14.759357                                                  IEEE 802.15.4 5      Ack

Frame 364: 5 bytes on wire (40 bits), 5 bytes captured (40 bits)
    Encapsulation type: IEEE 802.15.4 Wireless PAN (104)
    Arrival Time: Mar  3, 2023 16:19:10.810820000 CST
    [Time shift for this packet: 0.000000000 seconds]
    Epoch Time: 1677881950.810820000 seconds
    [Time delta from previous captured frame: 0.000501000 seconds]
    [Time delta from previous displayed frame: 0.000501000 seconds]
    [Time since reference or first frame: 14.759357000 seconds]
    Frame Number: 364
    Frame Length: 5 bytes (40 bits)
    Capture Length: 5 bytes (40 bits)
    [Frame is marked: False]
    [Frame is ignored: False]
    [Protocols in frame: wpan]
IEEE 802.15.4 Ack, Sequence Number: 40
    Frame Control Field: 0x0002, Frame Type: Ack, Destination Addressing Mode: None, Frame Version: IEEE Std 802.15.4-2003, Source Addressing Mode: None
        .... .... .... .010 = Frame Type: Ack (0x2)
        .... .... .... 0... = Security Enabled: False
        .... .... ...0 .... = Frame Pending: False
        .... .... ..0. .... = Acknowledge Request: False
        .... .... .0.. .... = PAN ID Compression: False
        .... .... 0... .... = Reserved: False
        .... ...0 .... .... = Sequence Number Suppression: False
        .... ..0. .... .... = Information Elements Present: False
        .... 00.. .... .... = Destination Addressing Mode: None (0x0)
        ..00 .... .... .... = Frame Version: IEEE Std 802.15.4-2003 (0)
        00.. .... .... .... = Source Addressing Mode: None (0x0)
    Sequence Number: 40
    FCS: 0x18f2 (Correct)
    [Ack To: 363]
    [Ack Time: 0.501 ms]

0000  02 00 28 f2 18                                    ..(..

No.     Time           Source                Destination           Protocol Length Info
    365 14.822588      0x0203                0x0103                IEEE 802.15.4 34     Data, Dst: 0x0103, Src: 0x0203

Frame 365: 34 bytes on wire (272 bits), 34 bytes captured (272 bits)
    Encapsulation type: IEEE 802.15.4 Wireless PAN (104)
    Arrival Time: Mar  3, 2023 16:19:10.874051000 CST
    [Time shift for this packet: 0.000000000 seconds]
    Epoch Time: 1677881950.874051000 seconds
    [Time delta from previous captured frame: 0.063231000 seconds]
    [Time delta from previous displayed frame: 0.063231000 seconds]
    [Time since reference or first frame: 14.822588000 seconds]
    Frame Number: 365
    Frame Length: 34 bytes (272 bits)
    Capture Length: 34 bytes (272 bits)
    [Frame is marked: False]
    [Frame is ignored: False]
    [Protocols in frame: wpan:data]
IEEE 802.15.4 Data, Dst: 0x0103, Src: 0x0203
    Frame Control Field: 0x8861, Frame Type: Data, Acknowledge Request, PAN ID Compression, Destination Addressing Mode: Short/16-bit, Frame Version: IEEE Std 802.15.4-2003, Source Addressing Mode: Short/16-bit
        .... .... .... .001 = Frame Type: Data (0x1)
        .... .... .... 0... = Security Enabled: False
        .... .... ...0 .... = Frame Pending: False
        .... .... ..1. .... = Acknowledge Request: True
        .... .... .1.. .... = PAN ID Compression: True
        .... .... 0... .... = Reserved: False
        .... ...0 .... .... = Sequence Number Suppression: False
        .... ..0. .... .... = Information Elements Present: False
        .... 10.. .... .... = Destination Addressing Mode: Short/16-bit (0x2)
        ..00 .... .... .... = Frame Version: IEEE Std 802.15.4-2003 (0)
        10.. .... .... .... = Source Addressing Mode: Short/16-bit (0x2)
    Sequence Number: 223
    Destination PAN: 0x3332
    Destination: 0x0103
    Source: 0x0203
    FCS: 0xc4f4 (Correct)
    [Ack In: 366]
Data (23 bytes)
    Data: 1300fd0900000fffbe000000000000000608c004036391
    [Length: 23]

0000  61 88 df 32 33 03 01 03 02 13 00 fd 09 00 00 0f   a..23...........
0010  ff be 00 00 00 00 00 00 00 06 08 c0 04 03 63 91   ..............c.
0020  f4 c4                                             ..

No.     Time           Source                Destination           Protocol Length Info
    366 14.823084                                                  IEEE 802.15.4 5      Ack

Frame 366: 5 bytes on wire (40 bits), 5 bytes captured (40 bits)
    Encapsulation type: IEEE 802.15.4 Wireless PAN (104)
    Arrival Time: Mar  3, 2023 16:19:10.874547000 CST
    [Time shift for this packet: 0.000000000 seconds]
    Epoch Time: 1677881950.874547000 seconds
    [Time delta from previous captured frame: 0.000496000 seconds]
    [Time delta from previous displayed frame: 0.000496000 seconds]
    [Time since reference or first frame: 14.823084000 seconds]
    Frame Number: 366
    Frame Length: 5 bytes (40 bits)
    Capture Length: 5 bytes (40 bits)
    [Frame is marked: False]
    [Frame is ignored: False]
    [Protocols in frame: wpan]
IEEE 802.15.4 Ack, Sequence Number: 223
    Frame Control Field: 0x0002, Frame Type: Ack, Destination Addressing Mode: None, Frame Version: IEEE Std 802.15.4-2003, Source Addressing Mode: None
        .... .... .... .010 = Frame Type: Ack (0x2)
        .... .... .... 0... = Security Enabled: False
        .... .... ...0 .... = Frame Pending: False
        .... .... ..0. .... = Acknowledge Request: False
        .... .... .0.. .... = PAN ID Compression: False
        .... .... 0... .... = Reserved: False
        .... ...0 .... .... = Sequence Number Suppression: False
        .... ..0. .... .... = Information Elements Present: False
        .... 00.. .... .... = Destination Addressing Mode: None (0x0)
        ..00 .... .... .... = Frame Version: IEEE Std 802.15.4-2003 (0)
        00.. .... .... .... = Source Addressing Mode: None (0x0)
    Sequence Number: 223
    FCS: 0x9bc2 (Correct)
    [Ack To: 365]
    [Ack Time: 0.496 ms]

0000  02 00 df c2 9b                                    .....

No.     Time           Source                Destination           Protocol Length Info
    367 14.875212      0x0103                0x0203                IEEE 802.15.4 53     Data, Dst: 0x0203, Src: 0x0103

Frame 367: 53 bytes on wire (424 bits), 53 bytes captured (424 bits)
    Encapsulation type: IEEE 802.15.4 Wireless PAN (104)
    Arrival Time: Mar  3, 2023 16:19:10.926675000 CST
    [Time shift for this packet: 0.000000000 seconds]
    Epoch Time: 1677881950.926675000 seconds
    [Time delta from previous captured frame: 0.052128000 seconds]
    [Time delta from previous displayed frame: 0.052128000 seconds]
    [Time since reference or first frame: 14.875212000 seconds]
    Frame Number: 367
    Frame Length: 53 bytes (424 bits)
    Capture Length: 53 bytes (424 bits)
    [Frame is marked: False]
    [Frame is ignored: False]
    [Protocols in frame: wpan:data]
IEEE 802.15.4 Data, Dst: 0x0203, Src: 0x0103
    Frame Control Field: 0x8861, Frame Type: Data, Acknowledge Request, PAN ID Compression, Destination Addressing Mode: Short/16-bit, Frame Version: IEEE Std 802.15.4-2003, Source Addressing Mode: Short/16-bit
        .... .... .... .001 = Frame Type: Data (0x1)
        .... .... .... 0... = Security Enabled: False
        .... .... ...0 .... = Frame Pending: False
        .... .... ..1. .... = Acknowledge Request: True
        .... .... .1.. .... = PAN ID Compression: True
        .... .... 0... .... = Reserved: False
        .... ...0 .... .... = Sequence Number Suppression: False
        .... ..0. .... .... = Information Elements Present: False
        .... 10.. .... .... = Destination Addressing Mode: Short/16-bit (0x2)
        ..00 .... .... .... = Frame Version: IEEE Std 802.15.4-2003 (0)
        10.. .... .... .... = Source Addressing Mode: Short/16-bit (0x2)
    Sequence Number: 41
    Destination PAN: 0x3332
    Destination: 0x0203
    Source: 0x0103
    FCS: 0x75f8 (Correct)
    [Ack In: 368]
Data (42 bytes)
    Data: 5b00fd1c0000cd0301210000ef2210000000000000000000
    [Length: 42]

0000  61 88 29 32 33 03 02 03 01 5b 00 fd 1c 00 00 cd   a.)23....[......
0010  03 01 21 00 00 ef 22 10 00 00 00 00 00 00 00 00   ..!...".........
0020  00 ea 01 00 00 ee 01 00 00 02 00 00 00 00 00 2e   ................
0030  7f 93 49 f8 75                                    ..I.u

No.     Time           Source                Destination           Protocol Length Info
    368 14.875718                                                  IEEE 802.15.4 5      Ack

Frame 368: 5 bytes on wire (40 bits), 5 bytes captured (40 bits)
    Encapsulation type: IEEE 802.15.4 Wireless PAN (104)
    Arrival Time: Mar  3, 2023 16:19:10.927181000 CST
    [Time shift for this packet: 0.000000000 seconds]
    Epoch Time: 1677881950.927181000 seconds
    [Time delta from previous captured frame: 0.000506000 seconds]
    [Time delta from previous displayed frame: 0.000506000 seconds]
    [Time since reference or first frame: 14.875718000 seconds]
    Frame Number: 368
    Frame Length: 5 bytes (40 bits)
    Capture Length: 5 bytes (40 bits)
    [Frame is marked: False]
    [Frame is ignored: False]
    [Protocols in frame: wpan]
IEEE 802.15.4 Ack, Sequence Number: 41
    Frame Control Field: 0x0002, Frame Type: Ack, Destination Addressing Mode: None, Frame Version: IEEE Std 802.15.4-2003, Source Addressing Mode: None
        .... .... .... .010 = Frame Type: Ack (0x2)
        .... .... .... 0... = Security Enabled: False
        .... .... ...0 .... = Frame Pending: False
        .... .... ..0. .... = Acknowledge Request: False
        .... .... .0.. .... = PAN ID Compression: False
        .... .... 0... .... = Reserved: False
        .... ...0 .... .... = Sequence Number Suppression: False
        .... ..0. .... .... = Information Elements Present: False
        .... 00.. .... .... = Destination Addressing Mode: None (0x0)
        ..00 .... .... .... = Frame Version: IEEE Std 802.15.4-2003 (0)
        00.. .... .... .... = Source Addressing Mode: None (0x0)
    Sequence Number: 41
    FCS: 0x097b (Correct)
    [Ack To: 367]
    [Ack Time: 0.506 ms]

0000  02 00 29 7b 09                                    ..){.

No.     Time           Source                Destination           Protocol Length Info
    369 15.000992      0x0103                0x0203                IEEE 802.15.4 53     Data, Dst: 0x0203, Src: 0x0103

Frame 369: 53 bytes on wire (424 bits), 53 bytes captured (424 bits)
    Encapsulation type: IEEE 802.15.4 Wireless PAN (104)
    Arrival Time: Mar  3, 2023 16:19:11.052455000 CST
    [Time shift for this packet: 0.000000000 seconds]
    Epoch Time: 1677881951.052455000 seconds
    [Time delta from previous captured frame: 0.125274000 seconds]
    [Time delta from previous displayed frame: 0.125274000 seconds]
    [Time since reference or first frame: 15.000992000 seconds]
    Frame Number: 369
    Frame Length: 53 bytes (424 bits)
    Capture Length: 53 bytes (424 bits)
    [Frame is marked: False]
    [Frame is ignored: False]
    [Protocols in frame: wpan:data]
IEEE 802.15.4 Data, Dst: 0x0203, Src: 0x0103
    Frame Control Field: 0x8861, Frame Type: Data, Acknowledge Request, PAN ID Compression, Destination Addressing Mode: Short/16-bit, Frame Version: IEEE Std 802.15.4-2003, Source Addressing Mode: Short/16-bit
        .... .... .... .001 = Frame Type: Data (0x1)
        .... .... .... 0... = Security Enabled: False
        .... .... ...0 .... = Frame Pending: False
        .... .... ..1. .... = Acknowledge Request: True
        .... .... .1.. .... = PAN ID Compression: True
        .... .... 0... .... = Reserved: False
        .... ...0 .... .... = Sequence Number Suppression: False
        .... ..0. .... .... = Information Elements Present: False
        .... 10.. .... .... = Destination Addressing Mode: Short/16-bit (0x2)
        ..00 .... .... .... = Frame Version: IEEE Std 802.15.4-2003 (0)
        10.. .... .... .... = Source Addressing Mode: Short/16-bit (0x2)
    Sequence Number: 42
    Destination PAN: 0x3332
    Destination: 0x0203
    Source: 0x0103
    FCS: 0x46cc (Correct)
    [Ack In: 370]
Data (42 bytes)
    Data: 5c00fd1c0000ce03012100006d2310000000000000000000
    [Length: 42]

0000  61 88 2a 32 33 03 02 03 01 5c 00 fd 1c 00 00 ce   a.*23....\......
0010  03 01 21 00 00 6d 23 10 00 00 00 00 00 00 00 00   ..!..m#.........
0020  00 18 01 00 00 20 01 00 00 02 00 00 00 00 00 2e   ..... ..........
0030  7f 7e c5 cc 46                                    .~..F

No.     Time           Source                Destination           Protocol Length Info
    370 15.001489                                                  IEEE 802.15.4 5      Ack

Frame 370: 5 bytes on wire (40 bits), 5 bytes captured (40 bits)
    Encapsulation type: IEEE 802.15.4 Wireless PAN (104)
    Arrival Time: Mar  3, 2023 16:19:11.052952000 CST
    [Time shift for this packet: 0.000000000 seconds]
    Epoch Time: 1677881951.052952000 seconds
    [Time delta from previous captured frame: 0.000497000 seconds]
    [Time delta from previous displayed frame: 0.000497000 seconds]
    [Time since reference or first frame: 15.001489000 seconds]
    Frame Number: 370
    Frame Length: 5 bytes (40 bits)
    Capture Length: 5 bytes (40 bits)
    [Frame is marked: False]
    [Frame is ignored: False]
    [Protocols in frame: wpan]
IEEE 802.15.4 Ack, Sequence Number: 42
    Frame Control Field: 0x0002, Frame Type: Ack, Destination Addressing Mode: None, Frame Version: IEEE Std 802.15.4-2003, Source Addressing Mode: None
        .... .... .... .010 = Frame Type: Ack (0x2)
        .... .... .... 0... = Security Enabled: False
        .... .... ...0 .... = Frame Pending: False
        .... .... ..0. .... = Acknowledge Request: False
        .... .... .0.. .... = PAN ID Compression: False
        .... .... 0... .... = Reserved: False
        .... ...0 .... .... = Sequence Number Suppression: False
        .... ..0. .... .... = Information Elements Present: False
        .... 00.. .... .... = Destination Addressing Mode: None (0x0)
        ..00 .... .... .... = Frame Version: IEEE Std 802.15.4-2003 (0)
        00.. .... .... .... = Source Addressing Mode: None (0x0)
    Sequence Number: 42
    FCS: 0x3be0 (Correct)
    [Ack To: 369]
    [Ack Time: 0.497 ms]

0000  02 00 2a e0 3b                                    ..*.;

No.     Time           Source                Destination           Protocol Length Info
    371 15.125323      0x0103                0x0203                IEEE 802.15.4 53     Data, Dst: 0x0203, Src: 0x0103

Frame 371: 53 bytes on wire (424 bits), 53 bytes captured (424 bits)
    Encapsulation type: IEEE 802.15.4 Wireless PAN (104)
    Arrival Time: Mar  3, 2023 16:19:11.176786000 CST
    [Time shift for this packet: 0.000000000 seconds]
    Epoch Time: 1677881951.176786000 seconds
    [Time delta from previous captured frame: 0.123834000 seconds]
    [Time delta from previous displayed frame: 0.123834000 seconds]
    [Time since reference or first frame: 15.125323000 seconds]
    Frame Number: 371
    Frame Length: 53 bytes (424 bits)
    Capture Length: 53 bytes (424 bits)
    [Frame is marked: False]
    [Frame is ignored: False]
    [Protocols in frame: wpan:data]
IEEE 802.15.4 Data, Dst: 0x0203, Src: 0x0103
    Frame Control Field: 0x8861, Frame Type: Data, Acknowledge Request, PAN ID Compression, Destination Addressing Mode: Short/16-bit, Frame Version: IEEE Std 802.15.4-2003, Source Addressing Mode: Short/16-bit
        .... .... .... .001 = Frame Type: Data (0x1)
        .... .... .... 0... = Security Enabled: False
        .... .... ...0 .... = Frame Pending: False
        .... .... ..1. .... = Acknowledge Request: True
        .... .... .1.. .... = PAN ID Compression: True
        .... .... 0... .... = Reserved: False
        .... ...0 .... .... = Sequence Number Suppression: False
        .... ..0. .... .... = Information Elements Present: False
        .... 10.. .... .... = Destination Addressing Mode: Short/16-bit (0x2)
        ..00 .... .... .... = Frame Version: IEEE Std 802.15.4-2003 (0)
        10.. .... .... .... = Source Addressing Mode: Short/16-bit (0x2)
    Sequence Number: 43
    Destination PAN: 0x3332
    Destination: 0x0203
    Source: 0x0103
    FCS: 0x85b7 (Correct)
    [Ack In: 372]
Data (42 bytes)
    Data: 5d00fd1c0000cf0301210000e92310000000000000000000
    [Length: 42]

0000  61 88 2b 32 33 03 02 03 01 5d 00 fd 1c 00 00 cf   a.+23....]......
0010  03 01 21 00 00 e9 23 10 00 00 00 00 00 00 00 00   ..!...#.........
0020  00 54 01 00 00 55 01 00 00 02 00 00 00 00 00 2d   .T...U.........-
0030  7f 23 c0 b7 85                                    .#...

No.     Time           Source                Destination           Protocol Length Info
    372 15.125816                                                  IEEE 802.15.4 5      Ack

Frame 372: 5 bytes on wire (40 bits), 5 bytes captured (40 bits)
    Encapsulation type: IEEE 802.15.4 Wireless PAN (104)
    Arrival Time: Mar  3, 2023 16:19:11.177279000 CST
    [Time shift for this packet: 0.000000000 seconds]
    Epoch Time: 1677881951.177279000 seconds
    [Time delta from previous captured frame: 0.000493000 seconds]
    [Time delta from previous displayed frame: 0.000493000 seconds]
    [Time since reference or first frame: 15.125816000 seconds]
    Frame Number: 372
    Frame Length: 5 bytes (40 bits)
    Capture Length: 5 bytes (40 bits)
    [Frame is marked: False]
    [Frame is ignored: False]
    [Protocols in frame: wpan]
IEEE 802.15.4 Ack, Sequence Number: 43
    Frame Control Field: 0x0002, Frame Type: Ack, Destination Addressing Mode: None, Frame Version: IEEE Std 802.15.4-2003, Source Addressing Mode: None
        .... .... .... .010 = Frame Type: Ack (0x2)
        .... .... .... 0... = Security Enabled: False
        .... .... ...0 .... = Frame Pending: False
        .... .... ..0. .... = Acknowledge Request: False
        .... .... .0.. .... = PAN ID Compression: False
        .... .... 0... .... = Reserved: False
        .... ...0 .... .... = Sequence Number Suppression: False
        .... ..0. .... .... = Information Elements Present: False
        .... 00.. .... .... = Destination Addressing Mode: None (0x0)
        ..00 .... .... .... = Frame Version: IEEE Std 802.15.4-2003 (0)
        00.. .... .... .... = Source Addressing Mode: None (0x0)
    Sequence Number: 43
    FCS: 0x2a69 (Correct)
    [Ack To: 371]
    [Ack Time: 0.493 ms]

0000  02 00 2b 69 2a                                    ..+i*

No.     Time           Source                Destination           Protocol Length Info
    373 15.263237      0x0103                0x0203                IEEE 802.15.4 113    Data, Dst: 0x0203, Src: 0x0103

Frame 373: 113 bytes on wire (904 bits), 113 bytes captured (904 bits)
    Encapsulation type: IEEE 802.15.4 Wireless PAN (104)
    Arrival Time: Mar  3, 2023 16:19:11.314700000 CST
    [Time shift for this packet: 0.000000000 seconds]
    Epoch Time: 1677881951.314700000 seconds
    [Time delta from previous captured frame: 0.137421000 seconds]
    [Time delta from previous displayed frame: 0.137421000 seconds]
    [Time since reference or first frame: 15.263237000 seconds]
    Frame Number: 373
    Frame Length: 113 bytes (904 bits)
    Capture Length: 113 bytes (904 bits)
    [Frame is marked: False]
    [Frame is ignored: False]
    [Protocols in frame: wpan:data]
IEEE 802.15.4 Data, Dst: 0x0203, Src: 0x0103
    Frame Control Field: 0x8861, Frame Type: Data, Acknowledge Request, PAN ID Compression, Destination Addressing Mode: Short/16-bit, Frame Version: IEEE Std 802.15.4-2003, Source Addressing Mode: Short/16-bit
        .... .... .... .001 = Frame Type: Data (0x1)
        .... .... .... 0... = Security Enabled: False
        .... .... ...0 .... = Frame Pending: False
        .... .... ..1. .... = Acknowledge Request: True
        .... .... .1.. .... = PAN ID Compression: True
        .... .... 0... .... = Reserved: False
        .... ...0 .... .... = Sequence Number Suppression: False
        .... ..0. .... .... = Information Elements Present: False
        .... 10.. .... .... = Destination Addressing Mode: Short/16-bit (0x2)
        ..00 .... .... .... = Frame Version: IEEE Std 802.15.4-2003 (0)
        10.. .... .... .... = Source Addressing Mode: Short/16-bit (0x2)
    Sequence Number: 44
    Destination PAN: 0x3332
    Destination: 0x0203
    Source: 0x0103
    FCS: 0x7d67 (Correct)
    [Ack In: 374]
Data (102 bytes)
    Data: 5e00fd1f0000d003010100000ffc60130f1c60100f9c5001
    [Length: 102]

0000  61 88 2c 32 33 03 02 03 01 5e 00 fd 1f 00 00 d0   a.,23....^......
0010  03 01 01 00 00 0f fc 60 13 0f 1c 60 10 0f 9c 50   .......`...`...P
0020  01 03 02 00 00 ff ff 00 00 00 00 00 00 00 00 00   ................
0030  00 00 00 ff c6 5c fd 16 00 00 d1 03 01 c1 00 00   .....\..........
0040  00 00 00 00 dc 1c 75 3b 3b 07 b1 3b d2 0f e6 3d   ......u;;..;...=
0050  00 00 00 00 a5 01 c5 bc fd 1c 00 00 d2 03 01 1e   ................
0060  00 00 66 24 10 00 b7 0b a3 3d 33 a1 01 3b cd 67   ..f$.....=3..;.g
0070  7d                                                }

No.     Time           Source                Destination           Protocol Length Info
    374 15.263741                                                  IEEE 802.15.4 5      Ack

Frame 374: 5 bytes on wire (40 bits), 5 bytes captured (40 bits)
    Encapsulation type: IEEE 802.15.4 Wireless PAN (104)
    Arrival Time: Mar  3, 2023 16:19:11.315204000 CST
    [Time shift for this packet: 0.000000000 seconds]
    Epoch Time: 1677881951.315204000 seconds
    [Time delta from previous captured frame: 0.000504000 seconds]
    [Time delta from previous displayed frame: 0.000504000 seconds]
    [Time since reference or first frame: 15.263741000 seconds]
    Frame Number: 374
    Frame Length: 5 bytes (40 bits)
    Capture Length: 5 bytes (40 bits)
    [Frame is marked: False]
    [Frame is ignored: False]
    [Protocols in frame: wpan]
IEEE 802.15.4 Ack, Sequence Number: 44
    Frame Control Field: 0x0002, Frame Type: Ack, Destination Addressing Mode: None, Frame Version: IEEE Std 802.15.4-2003, Source Addressing Mode: None
        .... .... .... .010 = Frame Type: Ack (0x2)
        .... .... .... 0... = Security Enabled: False
        .... .... ...0 .... = Frame Pending: False
        .... .... ..0. .... = Acknowledge Request: False
        .... .... .0.. .... = PAN ID Compression: False
        .... .... 0... .... = Reserved: False
        .... ...0 .... .... = Sequence Number Suppression: False
        .... ..0. .... .... = Information Elements Present: False
        .... 00.. .... .... = Destination Addressing Mode: None (0x0)
        ..00 .... .... .... = Frame Version: IEEE Std 802.15.4-2003 (0)
        00.. .... .... .... = Source Addressing Mode: None (0x0)
    Sequence Number: 44
    FCS: 0x5ed6 (Correct)
    [Ack To: 373]
    [Ack Time: 0.504 ms]

0000  02 00 2c d6 5e                                    ..,.^

No.     Time           Source                Destination           Protocol Length Info
    375 15.271929      0x0103                0x0203                IEEE 802.15.4 70     Data, Dst: 0x0203, Src: 0x0103

Frame 375: 70 bytes on wire (560 bits), 70 bytes captured (560 bits)
    Encapsulation type: IEEE 802.15.4 Wireless PAN (104)
    Arrival Time: Mar  3, 2023 16:19:11.323392000 CST
    [Time shift for this packet: 0.000000000 seconds]
    Epoch Time: 1677881951.323392000 seconds
    [Time delta from previous captured frame: 0.008188000 seconds]
    [Time delta from previous displayed frame: 0.008188000 seconds]
    [Time since reference or first frame: 15.271929000 seconds]
    Frame Number: 375
    Frame Length: 70 bytes (560 bits)
    Capture Length: 70 bytes (560 bits)
    [Frame is marked: False]
    [Frame is ignored: False]
    [Protocols in frame: wpan:data]
IEEE 802.15.4 Data, Dst: 0x0203, Src: 0x0103
    Frame Control Field: 0x8861, Frame Type: Data, Acknowledge Request, PAN ID Compression, Destination Addressing Mode: Short/16-bit, Frame Version: IEEE Std 802.15.4-2003, Source Addressing Mode: Short/16-bit
        .... .... .... .001 = Frame Type: Data (0x1)
        .... .... .... 0... = Security Enabled: False
        .... .... ...0 .... = Frame Pending: False
        .... .... ..1. .... = Acknowledge Request: True
        .... .... .1.. .... = PAN ID Compression: True
        .... .... 0... .... = Reserved: False
        .... ...0 .... .... = Sequence Number Suppression: False
        .... ..0. .... .... = Information Elements Present: False
        .... 10.. .... .... = Destination Addressing Mode: Short/16-bit (0x2)
        ..00 .... .... .... = Frame Version: IEEE Std 802.15.4-2003 (0)
        10.. .... .... .... = Source Addressing Mode: Short/16-bit (0x2)
    Sequence Number: 45
    Destination PAN: 0x3332
    Destination: 0x0203
    Source: 0x0103
    FCS: 0x3b8e (Correct)
    [Ack In: 376]
Data (59 bytes)
    Data: 5f00e319bf50680038801e4a3660078c3b6f25fd1c0000d3
    [Length: 59]

0000  61 88 2d 32 33 03 02 03 01 5f 00 e3 19 bf 50 68   a.-23...._....Ph
0010  00 38 80 1e 4a 36 60 07 8c 3b 6f 25 fd 1c 00 00   .8..J6`..;o%....
0020  d3 03 01 21 00 00 6d 24 10 00 00 00 00 00 00 00   ...!..m$........
0030  00 00 5e 01 00 00 66 01 00 00 02 00 00 00 00 00   ..^...f.........
0040  2c 7f 22 b4 8e 3b                                 ,."..;

No.     Time           Source                Destination           Protocol Length Info
    376 15.272467                                                  IEEE 802.15.4 5      Ack

Frame 376: 5 bytes on wire (40 bits), 5 bytes captured (40 bits)
    Encapsulation type: IEEE 802.15.4 Wireless PAN (104)
    Arrival Time: Mar  3, 2023 16:19:11.323930000 CST
    [Time shift for this packet: 0.000000000 seconds]
    Epoch Time: 1677881951.323930000 seconds
    [Time delta from previous captured frame: 0.000538000 seconds]
    [Time delta from previous displayed frame: 0.000538000 seconds]
    [Time since reference or first frame: 15.272467000 seconds]
    Frame Number: 376
    Frame Length: 5 bytes (40 bits)
    Capture Length: 5 bytes (40 bits)
    [Frame is marked: False]
    [Frame is ignored: False]
    [Protocols in frame: wpan]
IEEE 802.15.4 Ack, Sequence Number: 45
    Frame Control Field: 0x0002, Frame Type: Ack, Destination Addressing Mode: None, Frame Version: IEEE Std 802.15.4-2003, Source Addressing Mode: None
        .... .... .... .010 = Frame Type: Ack (0x2)
        .... .... .... 0... = Security Enabled: False
        .... .... ...0 .... = Frame Pending: False
        .... .... ..0. .... = Acknowledge Request: False
        .... .... .0.. .... = PAN ID Compression: False
        .... .... 0... .... = Reserved: False
        .... ...0 .... .... = Sequence Number Suppression: False
        .... ..0. .... .... = Information Elements Present: False
        .... 00.. .... .... = Destination Addressing Mode: None (0x0)
        ..00 .... .... .... = Frame Version: IEEE Std 802.15.4-2003 (0)
        00.. .... .... .... = Source Addressing Mode: None (0x0)
    Sequence Number: 45
    FCS: 0x4f5f (Correct)
    [Ack To: 375]
    [Ack Time: 0.538 ms]

0000  02 00 2d 5f 4f                                    ..-_O

No.     Time           Source                Destination           Protocol Length Info
    377 15.318230      0x0103                0x0203                6LoWPAN  34     Data, Dst: 0x0203, Src: 0x0103[Malformed Packet]

Frame 377: 34 bytes on wire (272 bits), 34 bytes captured (272 bits)
    Encapsulation type: IEEE 802.15.4 Wireless PAN (104)
    Arrival Time: Mar  3, 2023 16:19:11.369693000 CST
    [Time shift for this packet: 0.000000000 seconds]
    Epoch Time: 1677881951.369693000 seconds
    [Time delta from previous captured frame: 0.045763000 seconds]
    [Time delta from previous displayed frame: 0.045763000 seconds]
    [Time since reference or first frame: 15.318230000 seconds]
    Frame Number: 377
    Frame Length: 34 bytes (272 bits)
    Capture Length: 34 bytes (272 bits)
    [Frame is marked: False]
    [Frame is ignored: False]
    [Protocols in frame: wpan:6lowpan]
IEEE 802.15.4 Data, Dst: 0x0203, Src: 0x0103
    Frame Control Field: 0x8861, Frame Type: Data, Acknowledge Request, PAN ID Compression, Destination Addressing Mode: Short/16-bit, Frame Version: IEEE Std 802.15.4-2003, Source Addressing Mode: Short/16-bit
        .... .... .... .001 = Frame Type: Data (0x1)
        .... .... .... 0... = Security Enabled: False
        .... .... ...0 .... = Frame Pending: False
        .... .... ..1. .... = Acknowledge Request: True
        .... .... .1.. .... = PAN ID Compression: True
        .... .... 0... .... = Reserved: False
        .... ...0 .... .... = Sequence Number Suppression: False
        .... ..0. .... .... = Information Elements Present: False
        .... 10.. .... .... = Destination Addressing Mode: Short/16-bit (0x2)
        ..00 .... .... .... = Frame Version: IEEE Std 802.15.4-2003 (0)
        10.. .... .... .... = Source Addressing Mode: Short/16-bit (0x2)
    Sequence Number: 46
    Destination PAN: 0x3332
    Destination: 0x0203
    Source: 0x0103
    FCS: 0x0cb7 (Correct)
    [Ack In: 378]
6LoWPAN
    IPHC Header
        011. .... = Pattern: IP header compression (0x03)
        ...0 0... .... .... = Traffic class and flow label: Traffic class and flow label inline (0x0)
        .... .0.. .... .... = Next header: Inline
        .... ..00 .... .... = Hop limit: Inline (0x0)
        .... .... 0... .... = Context identifier extension: False
        .... .... .0.. .... = Source address compression: Stateless
        .... .... ..00 .... = Source address mode: Inline (0x0000)
        .... .... .... 0... = Multicast address compression: False
        .... .... .... .0.. = Destination address compression: Stateless
        .... .... .... ..00 = Destination address mode: Inline (0x0000)
    11.. .... = ECN: 3
    ..11 1101 = DSCP: 61
    [Traffic class: 0xf7]
    0000 .... = Padding: 0x00
    .... 1001  0000 0000  0000 0000 = Flow label: 0x090000
    Next header: Unassigned (0xd4)
    Hop limit: 3
[Malformed Packet: 6LoWPAN]
    [Expert Info (Error/Malformed): Malformed Packet (Exception occurred)]
        [Malformed Packet (Exception occurred)]
        [Severity level: Error]
        [Group: Malformed]

0000  61 88 2e 32 33 03 02 03 01 60 00 fd 09 00 00 d4   a..23....`......
0010  03 01 00 00 00 00 00 00 00 02 03 51 03 03 4b 39   ...........Q..K9
0020  b7 0c                                             ..

No.     Time           Source                Destination           Protocol Length Info
    378 15.318738                                                  IEEE 802.15.4 5      Ack

Frame 378: 5 bytes on wire (40 bits), 5 bytes captured (40 bits)
    Encapsulation type: IEEE 802.15.4 Wireless PAN (104)
    Arrival Time: Mar  3, 2023 16:19:11.370201000 CST
    [Time shift for this packet: 0.000000000 seconds]
    Epoch Time: 1677881951.370201000 seconds
    [Time delta from previous captured frame: 0.000508000 seconds]
    [Time delta from previous displayed frame: 0.000508000 seconds]
    [Time since reference or first frame: 15.318738000 seconds]
    Frame Number: 378
    Frame Length: 5 bytes (40 bits)
    Capture Length: 5 bytes (40 bits)
    [Frame is marked: False]
    [Frame is ignored: False]
    [Protocols in frame: wpan]
IEEE 802.15.4 Ack, Sequence Number: 46
    Frame Control Field: 0x0002, Frame Type: Ack, Destination Addressing Mode: None, Frame Version: IEEE Std 802.15.4-2003, Source Addressing Mode: None
        .... .... .... .010 = Frame Type: Ack (0x2)
        .... .... .... 0... = Security Enabled: False
        .... .... ...0 .... = Frame Pending: False
        .... .... ..0. .... = Acknowledge Request: False
        .... .... .0.. .... = PAN ID Compression: False
        .... .... 0... .... = Reserved: False
        .... ...0 .... .... = Sequence Number Suppression: False
        .... ..0. .... .... = Information Elements Present: False
        .... 00.. .... .... = Destination Addressing Mode: None (0x0)
        ..00 .... .... .... = Frame Version: IEEE Std 802.15.4-2003 (0)
        00.. .... .... .... = Source Addressing Mode: None (0x0)
    Sequence Number: 46
    FCS: 0x7dc4 (Correct)
    [Ack To: 377]
    [Ack Time: 0.508 ms]

0000  02 00 2e c4 7d                                    ....}

No.     Time           Source                Destination           Protocol Length Info
    379 15.377568      301:2100:e6:2410::    f0:0:f5:0:2::2c       IPv6     53     Unknown IP Protocol: Unassigned (213)

Frame 379: 53 bytes on wire (424 bits), 53 bytes captured (424 bits)
    Encapsulation type: IEEE 802.15.4 Wireless PAN (104)
    Arrival Time: Mar  3, 2023 16:19:11.429031000 CST
    [Time shift for this packet: 0.000000000 seconds]
    Epoch Time: 1677881951.429031000 seconds
    [Time delta from previous captured frame: 0.058830000 seconds]
    [Time delta from previous displayed frame: 0.058830000 seconds]
    [Time since reference or first frame: 15.377568000 seconds]
    Frame Number: 379
    Frame Length: 53 bytes (424 bits)
    Capture Length: 53 bytes (424 bits)
    [Frame is marked: False]
    [Frame is ignored: False]
    [Protocols in frame: wpan:6lowpan:ipv6:data]
IEEE 802.15.4 Data, Dst: 0x0203, Src: 0x0103
    Frame Control Field: 0x8861, Frame Type: Data, Acknowledge Request, PAN ID Compression, Destination Addressing Mode: Short/16-bit, Frame Version: IEEE Std 802.15.4-2003, Source Addressing Mode: Short/16-bit
        .... .... .... .001 = Frame Type: Data (0x1)
        .... .... .... 0... = Security Enabled: False
        .... .... ...0 .... = Frame Pending: False
        .... .... ..1. .... = Acknowledge Request: True
        .... .... .1.. .... = PAN ID Compression: True
        .... .... 0... .... = Reserved: False
        .... ...0 .... .... = Sequence Number Suppression: False
        .... ..0. .... .... = Information Elements Present: False
        .... 10.. .... .... = Destination Addressing Mode: Short/16-bit (0x2)
        ..00 .... .... .... = Frame Version: IEEE Std 802.15.4-2003 (0)
        10.. .... .... .... = Source Addressing Mode: Short/16-bit (0x2)
    Sequence Number: 47
    Destination PAN: 0x3332
    Destination: 0x0203
    Source: 0x0103
    FCS: 0x8b65 (Correct)
    [Ack In: 380]
6LoWPAN, Src: 301:2100:e6:2410:: (301:2100:e6:2410::), Dest: f0:0:f5:0:2::2c (f0:0:f5:0:2::2c)
    IPHC Header
        011. .... = Pattern: IP header compression (0x03)
        ...0 0... .... .... = Traffic class and flow label: Traffic class and flow label inline (0x0)
        .... .0.. .... .... = Next header: Inline
        .... ..01 .... .... = Hop limit: 1 (0x1)
        .... .... 0... .... = Context identifier extension: False
        .... .... .0.. .... = Source address compression: Stateless
        .... .... ..00 .... = Source address mode: Inline (0x0000)
        .... .... .... 0... = Multicast address compression: False
        .... .... .... .0.. = Destination address compression: Stateless
        .... .... .... ..00 = Destination address mode: Inline (0x0000)
    11.. .... = ECN: 3
    ..11 1101 = DSCP: 61
    [Traffic class: 0xf7]
    0001 .... = Padding: 0x01
    .... 1100  0000 0000  0000 0000 = Flow label: 0x0c0000
    Next header: Unassigned (0xd5)
    Source: 301:2100:e6:2410:: (301:2100:e6:2410::)
    Destination: f0:0:f5:0:2::2c (f0:0:f5:0:2::2c)
Internet Protocol Version 6, Src: 301:2100:e6:2410:: (301:2100:e6:2410::), Dst: f0:0:f5:0:2::2c (f0:0:f5:0:2::2c)
    0110 .... = Version: 6
    .... 1111 0111 .... .... .... .... .... = Traffic Class: 0xf7 (DSCP: Unknown, ECN: CE)
        .... 1111 01.. .... .... .... .... .... = Differentiated Services Codepoint: Unknown (61)
        .... .... ..11 .... .... .... .... .... = Explicit Congestion Notification: Congestion Experienced (3)
    .... .... .... 1100 0000 0000 0000 0000 = Flow Label: 0xc0000
    Payload Length: 3
    Next Header: Unassigned (213)
    Hop Limit: 1
    Source: 301:2100:e6:2410:: (301:2100:e6:2410::)
    Destination: f0:0:f5:0:2::2c (f0:0:f5:0:2::2c)
Data (3 bytes)
    Data: 7f5620
    [Length: 3]

Frame (53 bytes):
0000  61 88 2f 32 33 03 02 03 01 61 00 fd 1c 00 00 d5   a./23....a......
0010  03 01 21 00 00 e6 24 10 00 00 00 00 00 00 00 00   ..!...$.........
0020  00 f0 00 00 00 f5 00 00 00 02 00 00 00 00 00 2c   ...............,
0030  7f 56 20 65 8b                                    .V e.
Decompressed 6LoWPAN IPHC (43 bytes):
0000  6f 7c 00 00 00 03 d5 01 03 01 21 00 00 e6 24 10   o|........!...$.
0010  00 00 00 00 00 00 00 00 00 f0 00 00 00 f5 00 00   ................
0020  00 02 00 00 00 00 00 2c 7f 56 20                  .......,.V 

No.     Time           Source                Destination           Protocol Length Info
    380 15.378128                                                  IEEE 802.15.4 5      Ack

Frame 380: 5 bytes on wire (40 bits), 5 bytes captured (40 bits)
    Encapsulation type: IEEE 802.15.4 Wireless PAN (104)
    Arrival Time: Mar  3, 2023 16:19:11.429591000 CST
    [Time shift for this packet: 0.000000000 seconds]
    Epoch Time: 1677881951.429591000 seconds
    [Time delta from previous captured frame: 0.000560000 seconds]
    [Time delta from previous displayed frame: 0.000560000 seconds]
    [Time since reference or first frame: 15.378128000 seconds]
    Frame Number: 380
    Frame Length: 5 bytes (40 bits)
    Capture Length: 5 bytes (40 bits)
    [Frame is marked: False]
    [Frame is ignored: False]
    [Protocols in frame: wpan]
IEEE 802.15.4 Ack, Sequence Number: 47
    Frame Control Field: 0x0002, Frame Type: Ack, Destination Addressing Mode: None, Frame Version: IEEE Std 802.15.4-2003, Source Addressing Mode: None
        .... .... .... .010 = Frame Type: Ack (0x2)
        .... .... .... 0... = Security Enabled: False
        .... .... ...0 .... = Frame Pending: False
        .... .... ..0. .... = Acknowledge Request: False
        .... .... .0.. .... = PAN ID Compression: False
        .... .... 0... .... = Reserved: False
        .... ...0 .... .... = Sequence Number Suppression: False
        .... ..0. .... .... = Information Elements Present: False
        .... 00.. .... .... = Destination Addressing Mode: None (0x0)
        ..00 .... .... .... = Frame Version: IEEE Std 802.15.4-2003 (0)
        00.. .... .... .... = Source Addressing Mode: None (0x0)
    Sequence Number: 47
    FCS: 0x6c4d (Correct)
    [Ack To: 379]
    [Ack Time: 0.560 ms]

0000  02 00 2f 4d 6c                                    ../Ml

No.     Time           Source                Destination           Protocol Length Info
    381 15.500815      301:2100:61:2510::    f4:100:f9:100:1::2b   IPv6     53     Unknown IP Protocol: Unassigned (214)

Frame 381: 53 bytes on wire (424 bits), 53 bytes captured (424 bits)
    Encapsulation type: IEEE 802.15.4 Wireless PAN (104)
    Arrival Time: Mar  3, 2023 16:19:11.552278000 CST
    [Time shift for this packet: 0.000000000 seconds]
    Epoch Time: 1677881951.552278000 seconds
    [Time delta from previous captured frame: 0.122687000 seconds]
    [Time delta from previous displayed frame: 0.122687000 seconds]
    [Time since reference or first frame: 15.500815000 seconds]
    Frame Number: 381
    Frame Length: 53 bytes (424 bits)
    Capture Length: 53 bytes (424 bits)
    [Frame is marked: False]
    [Frame is ignored: False]
    [Protocols in frame: wpan:6lowpan:ipv6:data]
IEEE 802.15.4 Data, Dst: 0x0203, Src: 0x0103
    Frame Control Field: 0x8861, Frame Type: Data, Acknowledge Request, PAN ID Compression, Destination Addressing Mode: Short/16-bit, Frame Version: IEEE Std 802.15.4-2003, Source Addressing Mode: Short/16-bit
        .... .... .... .001 = Frame Type: Data (0x1)
        .... .... .... 0... = Security Enabled: False
        .... .... ...0 .... = Frame Pending: False
        .... .... ..1. .... = Acknowledge Request: True
        .... .... .1.. .... = PAN ID Compression: True
        .... .... 0... .... = Reserved: False
        .... ...0 .... .... = Sequence Number Suppression: False
        .... ..0. .... .... = Information Elements Present: False
        .... 10.. .... .... = Destination Addressing Mode: Short/16-bit (0x2)
        ..00 .... .... .... = Frame Version: IEEE Std 802.15.4-2003 (0)
        10.. .... .... .... = Source Addressing Mode: Short/16-bit (0x2)
    Sequence Number: 48
    Destination PAN: 0x3332
    Destination: 0x0203
    Source: 0x0103
    FCS: 0x8d3d (Correct)
    [Ack In: 382]
6LoWPAN, Src: 301:2100:61:2510:: (301:2100:61:2510::), Dest: f4:100:f9:100:1::2b (f4:100:f9:100:1::2b)
    IPHC Header
        011. .... = Pattern: IP header compression (0x03)
        ...0 0... .... .... = Traffic class and flow label: Traffic class and flow label inline (0x0)
        .... .0.. .... .... = Next header: Inline
        .... ..10 .... .... = Hop limit: 64 (0x2)
        .... .... 0... .... = Context identifier extension: False
        .... .... .0.. .... = Source address compression: Stateless
        .... .... ..00 .... = Source address mode: Inline (0x0000)
        .... .... .... 0... = Multicast address compression: False
        .... .... .... .0.. = Destination address compression: Stateless
        .... .... .... ..00 = Destination address mode: Inline (0x0000)
    11.. .... = ECN: 3
    ..11 1101 = DSCP: 61
    [Traffic class: 0xf7]
    0001 .... = Padding: 0x01
    .... 1100  0000 0000  0000 0000 = Flow label: 0x0c0000
    Next header: Unassigned (0xd6)
    Source: 301:2100:61:2510:: (301:2100:61:2510::)
    Destination: f4:100:f9:100:1::2b (f4:100:f9:100:1::2b)
Internet Protocol Version 6, Src: 301:2100:61:2510:: (301:2100:61:2510::), Dst: f4:100:f9:100:1::2b (f4:100:f9:100:1::2b)
    0110 .... = Version: 6
    .... 1111 0111 .... .... .... .... .... = Traffic Class: 0xf7 (DSCP: Unknown, ECN: CE)
        .... 1111 01.. .... .... .... .... .... = Differentiated Services Codepoint: Unknown (61)
        .... .... ..11 .... .... .... .... .... = Explicit Congestion Notification: Congestion Experienced (3)
    .... .... .... 1100 0000 0000 0000 0000 = Flow Label: 0xc0000
    Payload Length: 3
    Next Header: Unassigned (214)
    Hop Limit: 64
    Source: 301:2100:61:2510:: (301:2100:61:2510::)
    Destination: f4:100:f9:100:1::2b (f4:100:f9:100:1::2b)
Data (3 bytes)
    Data: 7f1e4b
    [Length: 3]

Frame (53 bytes):
0000  61 88 30 32 33 03 02 03 01 62 00 fd 1c 00 00 d6   a.023....b......
0010  03 01 21 00 00 61 25 10 00 00 00 00 00 00 00 00   ..!..a%.........
0020  00 f4 01 00 00 f9 01 00 00 01 00 00 00 00 00 2b   ...............+
0030  7f 1e 4b 3d 8d                                    ..K=.
Decompressed 6LoWPAN IPHC (43 bytes):
0000  6f 7c 00 00 00 03 d6 40 03 01 21 00 00 61 25 10   o|.....@..!..a%.
0010  00 00 00 00 00 00 00 00 00 f4 01 00 00 f9 01 00   ................
0020  00 01 00 00 00 00 00 2b 7f 1e 4b                  .......+..K

No.     Time           Source                Destination           Protocol Length Info
    382 15.501321                                                  IEEE 802.15.4 5      Ack

Frame 382: 5 bytes on wire (40 bits), 5 bytes captured (40 bits)
    Encapsulation type: IEEE 802.15.4 Wireless PAN (104)
    Arrival Time: Mar  3, 2023 16:19:11.552784000 CST
    [Time shift for this packet: 0.000000000 seconds]
    Epoch Time: 1677881951.552784000 seconds
    [Time delta from previous captured frame: 0.000506000 seconds]
    [Time delta from previous displayed frame: 0.000506000 seconds]
    [Time since reference or first frame: 15.501321000 seconds]
    Frame Number: 382
    Frame Length: 5 bytes (40 bits)
    Capture Length: 5 bytes (40 bits)
    [Frame is marked: False]
    [Frame is ignored: False]
    [Protocols in frame: wpan]
IEEE 802.15.4 Ack, Sequence Number: 48
    Frame Control Field: 0x0002, Frame Type: Ack, Destination Addressing Mode: None, Frame Version: IEEE Std 802.15.4-2003, Source Addressing Mode: None
        .... .... .... .010 = Frame Type: Ack (0x2)
        .... .... .... 0... = Security Enabled: False
        .... .... ...0 .... = Frame Pending: False
        .... .... ..0. .... = Acknowledge Request: False
        .... .... .0.. .... = PAN ID Compression: False
        .... .... 0... .... = Reserved: False
        .... ...0 .... .... = Sequence Number Suppression: False
        .... ..0. .... .... = Information Elements Present: False
        .... 00.. .... .... = Destination Addressing Mode: None (0x0)
        ..00 .... .... .... = Frame Version: IEEE Std 802.15.4-2003 (0)
        00.. .... .... .... = Source Addressing Mode: None (0x0)
    Sequence Number: 48
    FCS: 0x843b (Correct)
    [Ack To: 381]
    [Ack Time: 0.506 ms]

0000  02 00 30 3b 84                                    ..0;.

No.     Time           Source                Destination           Protocol Length Info
    383 15.625326      301:2100:de:2510::    32:0:3b:0:1::2a       IPv6     53     Unknown IP Protocol: Unassigned (215)

Frame 383: 53 bytes on wire (424 bits), 53 bytes captured (424 bits)
    Encapsulation type: IEEE 802.15.4 Wireless PAN (104)
    Arrival Time: Mar  3, 2023 16:19:11.676789000 CST
    [Time shift for this packet: 0.000000000 seconds]
    Epoch Time: 1677881951.676789000 seconds
    [Time delta from previous captured frame: 0.124005000 seconds]
    [Time delta from previous displayed frame: 0.124005000 seconds]
    [Time since reference or first frame: 15.625326000 seconds]
    Frame Number: 383
    Frame Length: 53 bytes (424 bits)
    Capture Length: 53 bytes (424 bits)
    [Frame is marked: False]
    [Frame is ignored: False]
    [Protocols in frame: wpan:6lowpan:ipv6:data]
IEEE 802.15.4 Data, Dst: 0x0203, Src: 0x0103
    Frame Control Field: 0x8861, Frame Type: Data, Acknowledge Request, PAN ID Compression, Destination Addressing Mode: Short/16-bit, Frame Version: IEEE Std 802.15.4-2003, Source Addressing Mode: Short/16-bit
        .... .... .... .001 = Frame Type: Data (0x1)
        .... .... .... 0... = Security Enabled: False
        .... .... ...0 .... = Frame Pending: False
        .... .... ..1. .... = Acknowledge Request: True
        .... .... .1.. .... = PAN ID Compression: True
        .... .... 0... .... = Reserved: False
        .... ...0 .... .... = Sequence Number Suppression: False
        .... ..0. .... .... = Information Elements Present: False
        .... 10.. .... .... = Destination Addressing Mode: Short/16-bit (0x2)
        ..00 .... .... .... = Frame Version: IEEE Std 802.15.4-2003 (0)
        10.. .... .... .... = Source Addressing Mode: Short/16-bit (0x2)
    Sequence Number: 49
    Destination PAN: 0x3332
    Destination: 0x0203
    Source: 0x0103
    FCS: 0xf477 (Correct)
    [Ack In: 384]
6LoWPAN, Src: 301:2100:de:2510:: (301:2100:de:2510::), Dest: 32:0:3b:0:1::2a (32:0:3b:0:1::2a)
    IPHC Header
        011. .... = Pattern: IP header compression (0x03)
        ...0 0... .... .... = Traffic class and flow label: Traffic class and flow label inline (0x0)
        .... .0.. .... .... = Next header: Inline
        .... ..11 .... .... = Hop limit: 255 (0x3)
        .... .... 0... .... = Context identifier extension: False
        .... .... .0.. .... = Source address compression: Stateless
        .... .... ..00 .... = Source address mode: Inline (0x0000)
        .... .... .... 0... = Multicast address compression: False
        .... .... .... .0.. = Destination address compression: Stateless
        .... .... .... ..00 = Destination address mode: Inline (0x0000)
    11.. .... = ECN: 3
    ..11 1101 = DSCP: 61
    [Traffic class: 0xf7]
    0001 .... = Padding: 0x01
    .... 1100  0000 0000  0000 0000 = Flow label: 0x0c0000
    Next header: Unassigned (0xd7)
    Source: 301:2100:de:2510:: (301:2100:de:2510::)
    Destination: 32:0:3b:0:1::2a (32:0:3b:0:1::2a)
Internet Protocol Version 6, Src: 301:2100:de:2510:: (301:2100:de:2510::), Dst: 32:0:3b:0:1::2a (32:0:3b:0:1::2a)
    0110 .... = Version: 6
    .... 1111 0111 .... .... .... .... .... = Traffic Class: 0xf7 (DSCP: Unknown, ECN: CE)
        .... 1111 01.. .... .... .... .... .... = Differentiated Services Codepoint: Unknown (61)
        .... .... ..11 .... .... .... .... .... = Explicit Congestion Notification: Congestion Experienced (3)
    .... .... .... 1100 0000 0000 0000 0000 = Flow Label: 0xc0000
    Payload Length: 3
    Next Header: Unassigned (215)
    Hop Limit: 255
    Source: 301:2100:de:2510:: (301:2100:de:2510::)
    Destination: 32:0:3b:0:1::2a (32:0:3b:0:1::2a)
Data (3 bytes)
    Data: 7fdce0
    [Length: 3]

Frame (53 bytes):
0000  61 88 31 32 33 03 02 03 01 63 00 fd 1c 00 00 d7   a.123....c......
0010  03 01 21 00 00 de 25 10 00 00 00 00 00 00 00 00   ..!...%.........
0020  00 32 00 00 00 3b 00 00 00 01 00 00 00 00 00 2a   .2...;.........*
0030  7f dc e0 77 f4                                    ...w.
Decompressed 6LoWPAN IPHC (43 bytes):
0000  6f 7c 00 00 00 03 d7 ff 03 01 21 00 00 de 25 10   o|........!...%.
0010  00 00 00 00 00 00 00 00 00 32 00 00 00 3b 00 00   .........2...;..
0020  00 01 00 00 00 00 00 2a 7f dc e0                  .......*...

No.     Time           Source                Destination           Protocol Length Info
    384 15.625836                                                  IEEE 802.15.4 5      Ack

Frame 384: 5 bytes on wire (40 bits), 5 bytes captured (40 bits)
    Encapsulation type: IEEE 802.15.4 Wireless PAN (104)
    Arrival Time: Mar  3, 2023 16:19:11.677299000 CST
    [Time shift for this packet: 0.000000000 seconds]
    Epoch Time: 1677881951.677299000 seconds
    [Time delta from previous captured frame: 0.000510000 seconds]
    [Time delta from previous displayed frame: 0.000510000 seconds]
    [Time since reference or first frame: 15.625836000 seconds]
    Frame Number: 384
    Frame Length: 5 bytes (40 bits)
    Capture Length: 5 bytes (40 bits)
    [Frame is marked: False]
    [Frame is ignored: False]
    [Protocols in frame: wpan]
IEEE 802.15.4 Ack, Sequence Number: 49
    Frame Control Field: 0x0002, Frame Type: Ack, Destination Addressing Mode: None, Frame Version: IEEE Std 802.15.4-2003, Source Addressing Mode: None
        .... .... .... .010 = Frame Type: Ack (0x2)
        .... .... .... 0... = Security Enabled: False
        .... .... ...0 .... = Frame Pending: False
        .... .... ..0. .... = Acknowledge Request: False
        .... .... .0.. .... = PAN ID Compression: False
        .... .... 0... .... = Reserved: False
        .... ...0 .... .... = Sequence Number Suppression: False
        .... ..0. .... .... = Information Elements Present: False
        .... 00.. .... .... = Destination Addressing Mode: None (0x0)
        ..00 .... .... .... = Frame Version: IEEE Std 802.15.4-2003 (0)
        00.. .... .... .... = Source Addressing Mode: None (0x0)
    Sequence Number: 49
    FCS: 0x95b2 (Correct)
    [Ack To: 383]
    [Ack Time: 0.510 ms]

0000  02 00 31 b2 95                                    ..1..

No.     Time           Source                Destination           Protocol Length Info
    385 15.759088      301:1e00:5a:2610:1e:f6a2:3dd4:4f0b 3ba6:51a:bf74:8837:ba62:21f2:39db:5a6f IPv6     93     IPv6 no next header

Frame 385: 93 bytes on wire (744 bits), 93 bytes captured (744 bits)
    Encapsulation type: IEEE 802.15.4 Wireless PAN (104)
    Arrival Time: Mar  3, 2023 16:19:11.810551000 CST
    [Time shift for this packet: 0.000000000 seconds]
    Epoch Time: 1677881951.810551000 seconds
    [Time delta from previous captured frame: 0.133252000 seconds]
    [Time delta from previous displayed frame: 0.133252000 seconds]
    [Time since reference or first frame: 15.759088000 seconds]
    Frame Number: 385
    Frame Length: 93 bytes (744 bits)
    Capture Length: 93 bytes (744 bits)
    [Frame is marked: False]
    [Frame is ignored: False]
    [Protocols in frame: wpan:6lowpan:ipv6]
IEEE 802.15.4 Data, Dst: 0x0203, Src: 0x0103
    Frame Control Field: 0x8861, Frame Type: Data, Acknowledge Request, PAN ID Compression, Destination Addressing Mode: Short/16-bit, Frame Version: IEEE Std 802.15.4-2003, Source Addressing Mode: Short/16-bit
        .... .... .... .001 = Frame Type: Data (0x1)
        .... .... .... 0... = Security Enabled: False
        .... .... ...0 .... = Frame Pending: False
        .... .... ..1. .... = Acknowledge Request: True
        .... .... .1.. .... = PAN ID Compression: True
        .... .... 0... .... = Reserved: False
        .... ...0 .... .... = Sequence Number Suppression: False
        .... ..0. .... .... = Information Elements Present: False
        .... 10.. .... .... = Destination Addressing Mode: Short/16-bit (0x2)
        ..00 .... .... .... = Frame Version: IEEE Std 802.15.4-2003 (0)
        10.. .... .... .... = Source Addressing Mode: Short/16-bit (0x2)
    Sequence Number: 50
    Destination PAN: 0x3332
    Destination: 0x0203
    Source: 0x0103
    FCS: 0x6fc1 (Correct)
    [Ack In: 386]
6LoWPAN, Src: 301:1e00:5a:2610:1e:f6a2:3dd4:4f0b (301:1e00:5a:2610:1e:f6a2:3dd4:4f0b), Dest: 3ba6:51a:bf74:8837:ba62:21f2:39db:5a6f (3ba6:51a:bf74:8837:ba62:21f2:39db:5a6f)
    IPHC Header
        011. .... = Pattern: IP header compression (0x03)
        ...0 0... .... .... = Traffic class and flow label: Traffic class and flow label inline (0x0)
        .... .1.. .... .... = Next header: Compressed
        .... ..00 .... .... = Hop limit: Inline (0x0)
        .... .... 0... .... = Context identifier extension: False
        .... .... .0.. .... = Source address compression: Stateless
        .... .... ..00 .... = Source address mode: Inline (0x0000)
        .... .... .... 0... = Multicast address compression: False
        .... .... .... .0.. = Destination address compression: Stateless
        .... .... .... ..00 = Destination address mode: Inline (0x0000)
    11.. .... = ECN: 3
    ..11 1101 = DSCP: 61
    [Traffic class: 0xf7]
    0001 .... = Padding: 0x01
    .... 1100  0000 0000  0000 0000 = Flow label: 0x0c0000
    Hop limit: 216
    Source: 301:1e00:5a:2610:1e:f6a2:3dd4:4f0b (301:1e00:5a:2610:1e:f6a2:3dd4:4f0b)
    Destination: 3ba6:51a:bf74:8837:ba62:21f2:39db:5a6f (3ba6:51a:bf74:8837:ba62:21f2:39db:5a6f)
Internet Protocol Version 6, Src: 301:1e00:5a:2610:1e:f6a2:3dd4:4f0b (301:1e00:5a:2610:1e:f6a2:3dd4:4f0b), Dst: 3ba6:51a:bf74:8837:ba62:21f2:39db:5a6f (3ba6:51a:bf74:8837:ba62:21f2:39db:5a6f)
    0110 .... = Version: 6
    .... 1111 0111 .... .... .... .... .... = Traffic Class: 0xf7 (DSCP: Unknown, ECN: CE)
        .... 1111 01.. .... .... .... .... .... = Differentiated Services Codepoint: Unknown (61)
        .... .... ..11 .... .... .... .... .... = Explicit Congestion Notification: Congestion Experienced (3)
    .... .... .... 1100 0000 0000 0000 0000 = Flow Label: 0xc0000
    Payload Length: 0
    Next Header: No Next Header for IPv6 (59)
    Hop Limit: 216
    Source: 301:1e00:5a:2610:1e:f6a2:3dd4:4f0b (301:1e00:5a:2610:1e:f6a2:3dd4:4f0b)
    Destination: 3ba6:51a:bf74:8837:ba62:21f2:39db:5a6f (3ba6:51a:bf74:8837:ba62:21f2:39db:5a6f)

Frame (93 bytes):
0000  61 88 32 32 33 03 02 03 01 64 00 fd 1c 00 00 d8   a.223....d......
0010  03 01 1e 00 00 5a 26 10 00 1e f6 a2 3d d4 4f 0b   .....Z&.....=.O.
0020  3b a6 05 1a bf 74 88 37 ba 62 21 f2 39 db 5a 6f   ;....t.7.b!.9.Zo
0030  3b 4b b8 fd 1c 00 00 d9 03 01 21 00 00 5c 26 10   ;K........!..\&.
0040  00 00 00 00 00 00 00 00 00 1e 00 00 00 27 00 00   .............'..
0050  00 02 00 00 00 00 00 29 7f 24 e9 c1 6f            .......).$..o
Decompressed 6LoWPAN IPHC (40 bytes):
0000  6f 7c 00 00 00 00 3b d8 03 01 1e 00 00 5a 26 10   o|....;......Z&.
0010  00 1e f6 a2 3d d4 4f 0b 3b a6 05 1a bf 74 88 37   ....=.O.;....t.7
0020  ba 62 21 f2 39 db 5a 6f                           .b!.9.Zo

No.     Time           Source                Destination           Protocol Length Info
    386 15.759596                                                  IEEE 802.15.4 5      Ack

Frame 386: 5 bytes on wire (40 bits), 5 bytes captured (40 bits)
    Encapsulation type: IEEE 802.15.4 Wireless PAN (104)
    Arrival Time: Mar  3, 2023 16:19:11.811059000 CST
    [Time shift for this packet: 0.000000000 seconds]
    Epoch Time: 1677881951.811059000 seconds
    [Time delta from previous captured frame: 0.000508000 seconds]
    [Time delta from previous displayed frame: 0.000508000 seconds]
    [Time since reference or first frame: 15.759596000 seconds]
    Frame Number: 386
    Frame Length: 5 bytes (40 bits)
    Capture Length: 5 bytes (40 bits)
    [Frame is marked: False]
    [Frame is ignored: False]
    [Protocols in frame: wpan]
IEEE 802.15.4 Ack, Sequence Number: 50
    Frame Control Field: 0x0002, Frame Type: Ack, Destination Addressing Mode: None, Frame Version: IEEE Std 802.15.4-2003, Source Addressing Mode: None
        .... .... .... .010 = Frame Type: Ack (0x2)
        .... .... .... 0... = Security Enabled: False
        .... .... ...0 .... = Frame Pending: False
        .... .... ..0. .... = Acknowledge Request: False
        .... .... .0.. .... = PAN ID Compression: False
        .... .... 0... .... = Reserved: False
        .... ...0 .... .... = Sequence Number Suppression: False
        .... ..0. .... .... = Information Elements Present: False
        .... 00.. .... .... = Destination Addressing Mode: None (0x0)
        ..00 .... .... .... = Frame Version: IEEE Std 802.15.4-2003 (0)
        00.. .... .... .... = Source Addressing Mode: None (0x0)
    Sequence Number: 50
    FCS: 0xa729 (Correct)
    [Ack To: 385]
    [Ack Time: 0.508 ms]

0000  02 00 32 29 a7                                    ..2).

No.     Time           Source                Destination           Protocol Length Info
    387 15.822446      0x0203                0x0103                IEEE 802.15.4 34     Data, Dst: 0x0103, Src: 0x0203

Frame 387: 34 bytes on wire (272 bits), 34 bytes captured (272 bits)
    Encapsulation type: IEEE 802.15.4 Wireless PAN (104)
    Arrival Time: Mar  3, 2023 16:19:11.873909000 CST
    [Time shift for this packet: 0.000000000 seconds]
    Epoch Time: 1677881951.873909000 seconds
    [Time delta from previous captured frame: 0.062850000 seconds]
    [Time delta from previous displayed frame: 0.062850000 seconds]
    [Time since reference or first frame: 15.822446000 seconds]
    Frame Number: 387
    Frame Length: 34 bytes (272 bits)
    Capture Length: 34 bytes (272 bits)
    [Frame is marked: False]
    [Frame is ignored: False]
    [Protocols in frame: wpan:data]
IEEE 802.15.4 Data, Dst: 0x0103, Src: 0x0203
    Frame Control Field: 0x8861, Frame Type: Data, Acknowledge Request, PAN ID Compression, Destination Addressing Mode: Short/16-bit, Frame Version: IEEE Std 802.15.4-2003, Source Addressing Mode: Short/16-bit
        .... .... .... .001 = Frame Type: Data (0x1)
        .... .... .... 0... = Security Enabled: False
        .... .... ...0 .... = Frame Pending: False
        .... .... ..1. .... = Acknowledge Request: True
        .... .... .1.. .... = PAN ID Compression: True
        .... .... 0... .... = Reserved: False
        .... ...0 .... .... = Sequence Number Suppression: False
        .... ..0. .... .... = Information Elements Present: False
        .... 10.. .... .... = Destination Addressing Mode: Short/16-bit (0x2)
        ..00 .... .... .... = Frame Version: IEEE Std 802.15.4-2003 (0)
        10.. .... .... .... = Source Addressing Mode: Short/16-bit (0x2)
    Sequence Number: 224
    Destination PAN: 0x3332
    Destination: 0x0103
    Source: 0x0203
    FCS: 0xa63d (Correct)
    [Ack In: 388]
Data (23 bytes)
    Data: 1400fd09000010ffbe000000000000000608c004036cd2
    [Length: 23]

0000  61 88 e0 32 33 03 01 03 02 14 00 fd 09 00 00 10   a..23...........
0010  ff be 00 00 00 00 00 00 00 06 08 c0 04 03 6c d2   ..............l.
0020  3d a6                                             =.

No.     Time           Source                Destination           Protocol Length Info
    388 15.822969                                                  IEEE 802.15.4 5      Ack

Frame 388: 5 bytes on wire (40 bits), 5 bytes captured (40 bits)
    Encapsulation type: IEEE 802.15.4 Wireless PAN (104)
    Arrival Time: Mar  3, 2023 16:19:11.874432000 CST
    [Time shift for this packet: 0.000000000 seconds]
    Epoch Time: 1677881951.874432000 seconds
    [Time delta from previous captured frame: 0.000523000 seconds]
    [Time delta from previous displayed frame: 0.000523000 seconds]
    [Time since reference or first frame: 15.822969000 seconds]
    Frame Number: 388
    Frame Length: 5 bytes (40 bits)
    Capture Length: 5 bytes (40 bits)
    [Frame is marked: False]
    [Frame is ignored: False]
    [Protocols in frame: wpan]
IEEE 802.15.4 Ack, Sequence Number: 224
    Frame Control Field: 0x0002, Frame Type: Ack, Destination Addressing Mode: None, Frame Version: IEEE Std 802.15.4-2003, Source Addressing Mode: None
        .... .... .... .010 = Frame Type: Ack (0x2)
        .... .... .... 0... = Security Enabled: False
        .... .... ...0 .... = Frame Pending: False
        .... .... ..0. .... = Acknowledge Request: False
        .... .... .0.. .... = PAN ID Compression: False
        .... .... 0... .... = Reserved: False
        .... ...0 .... .... = Sequence Number Suppression: False
        .... ..0. .... .... = Information Elements Present: False
        .... 00.. .... .... = Destination Addressing Mode: None (0x0)
        ..00 .... .... .... = Frame Version: IEEE Std 802.15.4-2003 (0)
        00.. .... .... .... = Source Addressing Mode: None (0x0)
    Sequence Number: 224
    FCS: 0x52b6 (Correct)
    [Ack To: 387]
    [Ack Time: 0.523 ms]

0000  02 00 e0 b6 52                                    ....R

No.     Time           Source                Destination           Protocol Length Info
    389 15.875261      da03:121:0:d726:1000:: 0:5e01:0:5e01:0:100:: IPv6     53     IPv6 no next header

Frame 389: 53 bytes on wire (424 bits), 53 bytes captured (424 bits)
    Encapsulation type: IEEE 802.15.4 Wireless PAN (104)
    Arrival Time: Mar  3, 2023 16:19:11.926724000 CST
    [Time shift for this packet: 0.000000000 seconds]
    Epoch Time: 1677881951.926724000 seconds
    [Time delta from previous captured frame: 0.052292000 seconds]
    [Time delta from previous displayed frame: 0.052292000 seconds]
    [Time since reference or first frame: 15.875261000 seconds]
    Frame Number: 389
    Frame Length: 53 bytes (424 bits)
    Capture Length: 53 bytes (424 bits)
    [Frame is marked: False]
    [Frame is ignored: False]
    [Protocols in frame: wpan:6lowpan:ipv6]
IEEE 802.15.4 Data, Dst: 0x0203, Src: 0x0103
    Frame Control Field: 0x8861, Frame Type: Data, Acknowledge Request, PAN ID Compression, Destination Addressing Mode: Short/16-bit, Frame Version: IEEE Std 802.15.4-2003, Source Addressing Mode: Short/16-bit
        .... .... .... .001 = Frame Type: Data (0x1)
        .... .... .... 0... = Security Enabled: False
        .... .... ...0 .... = Frame Pending: False
        .... .... ..1. .... = Acknowledge Request: True
        .... .... .1.. .... = PAN ID Compression: True
        .... .... 0... .... = Reserved: False
        .... ...0 .... .... = Sequence Number Suppression: False
        .... ..0. .... .... = Information Elements Present: False
        .... 10.. .... .... = Destination Addressing Mode: Short/16-bit (0x2)
        ..00 .... .... .... = Frame Version: IEEE Std 802.15.4-2003 (0)
        10.. .... .... .... = Source Addressing Mode: Short/16-bit (0x2)
    Sequence Number: 51
    Destination PAN: 0x3332
    Destination: 0x0203
    Source: 0x0103
    FCS: 0x5875 (Correct)
    [Ack In: 390]
6LoWPAN, Src: da03:121:0:d726:1000:: (da03:121:0:d726:1000::), Dest: 0:5e01:0:5e01:0:100:: (0:5e01:0:5e01:0:100::)
    IPHC Header
        011. .... = Pattern: IP header compression (0x03)
        ...0 0... .... .... = Traffic class and flow label: Traffic class and flow label inline (0x0)
        .... .1.. .... .... = Next header: Compressed
        .... ..01 .... .... = Hop limit: 1 (0x1)
        .... .... 0... .... = Context identifier extension: False
        .... .... .0.. .... = Source address compression: Stateless
        .... .... ..00 .... = Source address mode: Inline (0x0000)
        .... .... .... 0... = Multicast address compression: False
        .... .... .... .0.. = Destination address compression: Stateless
        .... .... .... ..00 = Destination address mode: Inline (0x0000)
    11.. .... = ECN: 3
    ..11 1101 = DSCP: 61
    [Traffic class: 0xf7]
    0001 .... = Padding: 0x01
    .... 1100  0000 0000  0000 0000 = Flow label: 0x0c0000
    Source: da03:121:0:d726:1000:: (da03:121:0:d726:1000::)
    Destination: 0:5e01:0:5e01:0:100:: (0:5e01:0:5e01:0:100::)
Internet Protocol Version 6, Src: da03:121:0:d726:1000:: (da03:121:0:d726:1000::), Dst: 0:5e01:0:5e01:0:100:: (0:5e01:0:5e01:0:100::)
    0110 .... = Version: 6
    .... 1111 0111 .... .... .... .... .... = Traffic Class: 0xf7 (DSCP: Unknown, ECN: CE)
        .... 1111 01.. .... .... .... .... .... = Differentiated Services Codepoint: Unknown (61)
        .... .... ..11 .... .... .... .... .... = Explicit Congestion Notification: Congestion Experienced (3)
    .... .... .... 1100 0000 0000 0000 0000 = Flow Label: 0xc0000
    Payload Length: 0
    Next Header: No Next Header for IPv6 (59)
    Hop Limit: 1
    Source: da03:121:0:d726:1000:: (da03:121:0:d726:1000::)
    Destination: 0:5e01:0:5e01:0:100:: (0:5e01:0:5e01:0:100::)

Frame (53 bytes):
0000  61 88 33 32 33 03 02 03 01 65 00 fd 1c 00 00 da   a.323....e......
0010  03 01 21 00 00 d7 26 10 00 00 00 00 00 00 00 00   ..!...&.........
0020  00 5e 01 00 00 5e 01 00 00 01 00 00 00 00 00 28   .^...^.........(
0030  7f 23 6b 75 58                                    .#kuX
Decompressed 6LoWPAN IPHC (40 bytes):
0000  6f 7c 00 00 00 00 3b 01 da 03 01 21 00 00 d7 26   o|....;....!...&
0010  10 00 00 00 00 00 00 00 00 00 5e 01 00 00 5e 01   ..........^...^.
0020  00 00 01 00 00 00 00 00                           ........

No.     Time           Source                Destination           Protocol Length Info
    390 15.875798                                                  IEEE 802.15.4 5      Ack

Frame 390: 5 bytes on wire (40 bits), 5 bytes captured (40 bits)
    Encapsulation type: IEEE 802.15.4 Wireless PAN (104)
    Arrival Time: Mar  3, 2023 16:19:11.927261000 CST
    [Time shift for this packet: 0.000000000 seconds]
    Epoch Time: 1677881951.927261000 seconds
    [Time delta from previous captured frame: 0.000537000 seconds]
    [Time delta from previous displayed frame: 0.000537000 seconds]
    [Time since reference or first frame: 15.875798000 seconds]
    Frame Number: 390
    Frame Length: 5 bytes (40 bits)
    Capture Length: 5 bytes (40 bits)
    [Frame is marked: False]
    [Frame is ignored: False]
    [Protocols in frame: wpan]
IEEE 802.15.4 Ack, Sequence Number: 51
    Frame Control Field: 0x0002, Frame Type: Ack, Destination Addressing Mode: None, Frame Version: IEEE Std 802.15.4-2003, Source Addressing Mode: None
        .... .... .... .010 = Frame Type: Ack (0x2)
        .... .... .... 0... = Security Enabled: False
        .... .... ...0 .... = Frame Pending: False
        .... .... ..0. .... = Acknowledge Request: False
        .... .... .0.. .... = PAN ID Compression: False
        .... .... 0... .... = Reserved: False
        .... ...0 .... .... = Sequence Number Suppression: False
        .... ..0. .... .... = Information Elements Present: False
        .... 00.. .... .... = Destination Addressing Mode: None (0x0)
        ..00 .... .... .... = Frame Version: IEEE Std 802.15.4-2003 (0)
        00.. .... .... .... = Source Addressing Mode: None (0x0)
    Sequence Number: 51
    FCS: 0xb6a0 (Correct)
    [Ack To: 389]
    [Ack Time: 0.537 ms]

0000  02 00 33 a0 b6                                    ..3..

No.     Time           Source                Destination           Protocol Length Info
    391 15.997404      db03:121:0:5227:1000:: 0:9a01:0:a201:0:100:: IPv6     53     IPv6 no next header

Frame 391: 53 bytes on wire (424 bits), 53 bytes captured (424 bits)
    Encapsulation type: IEEE 802.15.4 Wireless PAN (104)
    Arrival Time: Mar  3, 2023 16:19:12.048867000 CST
    [Time shift for this packet: 0.000000000 seconds]
    Epoch Time: 1677881952.048867000 seconds
    [Time delta from previous captured frame: 0.121606000 seconds]
    [Time delta from previous displayed frame: 0.121606000 seconds]
    [Time since reference or first frame: 15.997404000 seconds]
    Frame Number: 391
    Frame Length: 53 bytes (424 bits)
    Capture Length: 53 bytes (424 bits)
    [Frame is marked: False]
    [Frame is ignored: False]
    [Protocols in frame: wpan:6lowpan:ipv6]
IEEE 802.15.4 Data, Dst: 0x0203, Src: 0x0103
    Frame Control Field: 0x8861, Frame Type: Data, Acknowledge Request, PAN ID Compression, Destination Addressing Mode: Short/16-bit, Frame Version: IEEE Std 802.15.4-2003, Source Addressing Mode: Short/16-bit
        .... .... .... .001 = Frame Type: Data (0x1)
        .... .... .... 0... = Security Enabled: False
        .... .... ...0 .... = Frame Pending: False
        .... .... ..1. .... = Acknowledge Request: True
        .... .... .1.. .... = PAN ID Compression: True
        .... .... 0... .... = Reserved: False
        .... ...0 .... .... = Sequence Number Suppression: False
        .... ..0. .... .... = Information Elements Present: False
        .... 10.. .... .... = Destination Addressing Mode: Short/16-bit (0x2)
        ..00 .... .... .... = Frame Version: IEEE Std 802.15.4-2003 (0)
        10.. .... .... .... = Source Addressing Mode: Short/16-bit (0x2)
    Sequence Number: 52
    Destination PAN: 0x3332
    Destination: 0x0203
    Source: 0x0103
    FCS: 0x094c (Correct)
    [Ack In: 392]
6LoWPAN, Src: db03:121:0:5227:1000:: (db03:121:0:5227:1000::), Dest: 0:9a01:0:a201:0:100:: (0:9a01:0:a201:0:100::)
    IPHC Header
        011. .... = Pattern: IP header compression (0x03)
        ...0 0... .... .... = Traffic class and flow label: Traffic class and flow label inline (0x0)
        .... .1.. .... .... = Next header: Compressed
        .... ..10 .... .... = Hop limit: 64 (0x2)
        .... .... 0... .... = Context identifier extension: False
        .... .... .0.. .... = Source address compression: Stateless
        .... .... ..00 .... = Source address mode: Inline (0x0000)
        .... .... .... 0... = Multicast address compression: False
        .... .... .... .0.. = Destination address compression: Stateless
        .... .... .... ..00 = Destination address mode: Inline (0x0000)
    11.. .... = ECN: 3
    ..11 1101 = DSCP: 61
    [Traffic class: 0xf7]
    0001 .... = Padding: 0x01
    .... 1100  0000 0000  0000 0000 = Flow label: 0x0c0000
    Source: db03:121:0:5227:1000:: (db03:121:0:5227:1000::)
    Destination: 0:9a01:0:a201:0:100:: (0:9a01:0:a201:0:100::)
Internet Protocol Version 6, Src: db03:121:0:5227:1000:: (db03:121:0:5227:1000::), Dst: 0:9a01:0:a201:0:100:: (0:9a01:0:a201:0:100::)
    0110 .... = Version: 6
    .... 1111 0111 .... .... .... .... .... = Traffic Class: 0xf7 (DSCP: Unknown, ECN: CE)
        .... 1111 01.. .... .... .... .... .... = Differentiated Services Codepoint: Unknown (61)
        .... .... ..11 .... .... .... .... .... = Explicit Congestion Notification: Congestion Experienced (3)
    .... .... .... 1100 0000 0000 0000 0000 = Flow Label: 0xc0000
    Payload Length: 0
    Next Header: No Next Header for IPv6 (59)
    Hop Limit: 64
    Source: db03:121:0:5227:1000:: (db03:121:0:5227:1000::)
    Destination: 0:9a01:0:a201:0:100:: (0:9a01:0:a201:0:100::)

Frame (53 bytes):
0000  61 88 34 32 33 03 02 03 01 66 00 fd 1c 00 00 db   a.423....f......
0010  03 01 21 00 00 52 27 10 00 00 00 00 00 00 00 00   ..!..R'.........
0020  00 9a 01 00 00 a2 01 00 00 01 00 00 00 00 00 28   ...............(
0030  7f 22 9f 4c 09                                    .".L.
Decompressed 6LoWPAN IPHC (40 bytes):
0000  6f 7c 00 00 00 00 3b 40 db 03 01 21 00 00 52 27   o|....;@...!..R'
0010  10 00 00 00 00 00 00 00 00 00 9a 01 00 00 a2 01   ................
0020  00 00 01 00 00 00 00 00                           ........

No.     Time           Source                Destination           Protocol Length Info
    392 15.997910                                                  IEEE 802.15.4 5      Ack

Frame 392: 5 bytes on wire (40 bits), 5 bytes captured (40 bits)
    Encapsulation type: IEEE 802.15.4 Wireless PAN (104)
    Arrival Time: Mar  3, 2023 16:19:12.049373000 CST
    [Time shift for this packet: 0.000000000 seconds]
    Epoch Time: 1677881952.049373000 seconds
    [Time delta from previous captured frame: 0.000506000 seconds]
    [Time delta from previous displayed frame: 0.000506000 seconds]
    [Time since reference or first frame: 15.997910000 seconds]
    Frame Number: 392
    Frame Length: 5 bytes (40 bits)
    Capture Length: 5 bytes (40 bits)
    [Frame is marked: False]
    [Frame is ignored: False]
    [Protocols in frame: wpan]
IEEE 802.15.4 Ack, Sequence Number: 52
    Frame Control Field: 0x0002, Frame Type: Ack, Destination Addressing Mode: None, Frame Version: IEEE Std 802.15.4-2003, Source Addressing Mode: None
        .... .... .... .010 = Frame Type: Ack (0x2)
        .... .... .... 0... = Security Enabled: False
        .... .... ...0 .... = Frame Pending: False
        .... .... ..0. .... = Acknowledge Request: False
        .... .... .0.. .... = PAN ID Compression: False
        .... .... 0... .... = Reserved: False
        .... ...0 .... .... = Sequence Number Suppression: False
        .... ..0. .... .... = Information Elements Present: False
        .... 00.. .... .... = Destination Addressing Mode: None (0x0)
        ..00 .... .... .... = Frame Version: IEEE Std 802.15.4-2003 (0)
        00.. .... .... .... = Source Addressing Mode: None (0x0)
    Sequence Number: 52
    FCS: 0xc21f (Correct)
    [Ack To: 391]
    [Ack Time: 0.506 ms]

0000  02 00 34 1f c2                                    ..4..

No.     Time           Source                Destination           Protocol Length Info
    393 16.122278      dc03:121:0:cf27:1000:: 0:2c01:0:2e01:0:100:0:100 IPv6     53     IPv6 no next header

Frame 393: 53 bytes on wire (424 bits), 53 bytes captured (424 bits)
    Encapsulation type: IEEE 802.15.4 Wireless PAN (104)
    Arrival Time: Mar  3, 2023 16:19:12.173741000 CST
    [Time shift for this packet: 0.000000000 seconds]
    Epoch Time: 1677881952.173741000 seconds
    [Time delta from previous captured frame: 0.124368000 seconds]
    [Time delta from previous displayed frame: 0.124368000 seconds]
    [Time since reference or first frame: 16.122278000 seconds]
    Frame Number: 393
    Frame Length: 53 bytes (424 bits)
    Capture Length: 53 bytes (424 bits)
    [Frame is marked: False]
    [Frame is ignored: False]
    [Protocols in frame: wpan:6lowpan:ipv6]
IEEE 802.15.4 Data, Dst: 0x0203, Src: 0x0103
    Frame Control Field: 0x8861, Frame Type: Data, Acknowledge Request, PAN ID Compression, Destination Addressing Mode: Short/16-bit, Frame Version: IEEE Std 802.15.4-2003, Source Addressing Mode: Short/16-bit
        .... .... .... .001 = Frame Type: Data (0x1)
        .... .... .... 0... = Security Enabled: False
        .... .... ...0 .... = Frame Pending: False
        .... .... ..1. .... = Acknowledge Request: True
        .... .... .1.. .... = PAN ID Compression: True
        .... .... 0... .... = Reserved: False
        .... ...0 .... .... = Sequence Number Suppression: False
        .... ..0. .... .... = Information Elements Present: False
        .... 10.. .... .... = Destination Addressing Mode: Short/16-bit (0x2)
        ..00 .... .... .... = Frame Version: IEEE Std 802.15.4-2003 (0)
        10.. .... .... .... = Source Addressing Mode: Short/16-bit (0x2)
    Sequence Number: 53
    Destination PAN: 0x3332
    Destination: 0x0203
    Source: 0x0103
    FCS: 0x2483 (Correct)
    [Ack In: 394]
6LoWPAN, Src: dc03:121:0:cf27:1000:: (dc03:121:0:cf27:1000::), Dest: 0:2c01:0:2e01:0:100:0:100 (0:2c01:0:2e01:0:100:0:100)
    IPHC Header
        011. .... = Pattern: IP header compression (0x03)
        ...0 0... .... .... = Traffic class and flow label: Traffic class and flow label inline (0x0)
        .... .1.. .... .... = Next header: Compressed
        .... ..11 .... .... = Hop limit: 255 (0x3)
        .... .... 0... .... = Context identifier extension: False
        .... .... .0.. .... = Source address compression: Stateless
        .... .... ..00 .... = Source address mode: Inline (0x0000)
        .... .... .... 0... = Multicast address compression: False
        .... .... .... .0.. = Destination address compression: Stateless
        .... .... .... ..00 = Destination address mode: Inline (0x0000)
    11.. .... = ECN: 3
    ..11 1101 = DSCP: 61
    [Traffic class: 0xf7]
    0001 .... = Padding: 0x01
    .... 1100  0000 0000  0000 0000 = Flow label: 0x0c0000
    Source: dc03:121:0:cf27:1000:: (dc03:121:0:cf27:1000::)
    Destination: 0:2c01:0:2e01:0:100:0:100 (0:2c01:0:2e01:0:100:0:100)
Internet Protocol Version 6, Src: dc03:121:0:cf27:1000:: (dc03:121:0:cf27:1000::), Dst: 0:2c01:0:2e01:0:100:0:100 (0:2c01:0:2e01:0:100:0:100)
    0110 .... = Version: 6
    .... 1111 0111 .... .... .... .... .... = Traffic Class: 0xf7 (DSCP: Unknown, ECN: CE)
        .... 1111 01.. .... .... .... .... .... = Differentiated Services Codepoint: Unknown (61)
        .... .... ..11 .... .... .... .... .... = Explicit Congestion Notification: Congestion Experienced (3)
    .... .... .... 1100 0000 0000 0000 0000 = Flow Label: 0xc0000
    Payload Length: 0
    Next Header: No Next Header for IPv6 (59)
    Hop Limit: 255
    Source: dc03:121:0:cf27:1000:: (dc03:121:0:cf27:1000::)
    Destination: 0:2c01:0:2e01:0:100:0:100 (0:2c01:0:2e01:0:100:0:100)

Frame (53 bytes):
0000  61 88 35 32 33 03 02 03 01 67 00 fd 1c 00 00 dc   a.523....g......
0010  03 01 21 00 00 cf 27 10 00 00 00 00 00 00 00 00   ..!...'.........
0020  00 2c 01 00 00 2e 01 00 00 01 00 00 00 01 00 27   .,.............'
0030  7f a0 46 83 24                                    ..F.$
Decompressed 6LoWPAN IPHC (40 bytes):
0000  6f 7c 00 00 00 00 3b ff dc 03 01 21 00 00 cf 27   o|....;....!...'
0010  10 00 00 00 00 00 00 00 00 00 2c 01 00 00 2e 01   ..........,.....
0020  00 00 01 00 00 00 01 00                           ........

No.     Time           Source                Destination           Protocol Length Info
    394 16.122806                                                  IEEE 802.15.4 5      Ack

Frame 394: 5 bytes on wire (40 bits), 5 bytes captured (40 bits)
    Encapsulation type: IEEE 802.15.4 Wireless PAN (104)
    Arrival Time: Mar  3, 2023 16:19:12.174269000 CST
    [Time shift for this packet: 0.000000000 seconds]
    Epoch Time: 1677881952.174269000 seconds
    [Time delta from previous captured frame: 0.000528000 seconds]
    [Time delta from previous displayed frame: 0.000528000 seconds]
    [Time since reference or first frame: 16.122806000 seconds]
    Frame Number: 394
    Frame Length: 5 bytes (40 bits)
    Capture Length: 5 bytes (40 bits)
    [Frame is marked: False]
    [Frame is ignored: False]
    [Protocols in frame: wpan]
IEEE 802.15.4 Ack, Sequence Number: 53
    Frame Control Field: 0x0002, Frame Type: Ack, Destination Addressing Mode: None, Frame Version: IEEE Std 802.15.4-2003, Source Addressing Mode: None
        .... .... .... .010 = Frame Type: Ack (0x2)
        .... .... .... 0... = Security Enabled: False
        .... .... ...0 .... = Frame Pending: False
        .... .... ..0. .... = Acknowledge Request: False
        .... .... .0.. .... = PAN ID Compression: False
        .... .... 0... .... = Reserved: False
        .... ...0 .... .... = Sequence Number Suppression: False
        .... ..0. .... .... = Information Elements Present: False
        .... 00.. .... .... = Destination Addressing Mode: None (0x0)
        ..00 .... .... .... = Frame Version: IEEE Std 802.15.4-2003 (0)
        00.. .... .... .... = Source Addressing Mode: None (0x0)
    Sequence Number: 53
    FCS: 0xd396 (Correct)
    [Ack To: 393]
    [Ack Time: 0.528 ms]

0000  02 00 35 96 d3                                    ..5..

No.     Time           Source                Destination           Protocol Length Info
    395 16.261115                                                  IEEE 802.15.4 5      Ack

Frame 395: 5 bytes on wire (40 bits), 5 bytes captured (40 bits)
    Encapsulation type: IEEE 802.15.4 Wireless PAN (104)
    Arrival Time: Mar  3, 2023 16:19:12.312578000 CST
    [Time shift for this packet: 0.000000000 seconds]
    Epoch Time: 1677881952.312578000 seconds
    [Time delta from previous captured frame: 0.138309000 seconds]
    [Time delta from previous displayed frame: 0.138309000 seconds]
    [Time since reference or first frame: 16.261115000 seconds]
    Frame Number: 395
    Frame Length: 5 bytes (40 bits)
    Capture Length: 5 bytes (40 bits)
    [Frame is marked: False]
    [Frame is ignored: False]
    [Protocols in frame: wpan]
IEEE 802.15.4 Ack, Sequence Number: 54
    Frame Control Field: 0x0002, Frame Type: Ack, Destination Addressing Mode: None, Frame Version: IEEE Std 802.15.4-2003, Source Addressing Mode: None
        .... .... .... .010 = Frame Type: Ack (0x2)
        .... .... .... 0... = Security Enabled: False
        .... .... ...0 .... = Frame Pending: False
        .... .... ..0. .... = Acknowledge Request: False
        .... .... .0.. .... = PAN ID Compression: False
        .... .... 0... .... = Reserved: False
        .... ...0 .... .... = Sequence Number Suppression: False
        .... ..0. .... .... = Information Elements Present: False
        .... 00.. .... .... = Destination Addressing Mode: None (0x0)
        ..00 .... .... .... = Frame Version: IEEE Std 802.15.4-2003 (0)
        00.. .... .... .... = Source Addressing Mode: None (0x0)
    Sequence Number: 54
    FCS: 0xe10d (Correct)
    [No ack request found]
        [Expert Info (Note/Sequence): No ack request found to ack in frame 395]
            [No ack request found to ack in frame 395]
            [Severity level: Note]
            [Group: Sequence]

0000  02 00 36 0d e1                                    ..6..

No.     Time           Source                Destination           Protocol Length Info
    396 16.278528      3d00:0:a5:1ab:d6fd:1c00:df:301 1e00:53:2810:d6:e1a2:3d5b:9a14:3b72 IPv6     106    Unknown IP Protocol: Unassigned (219)

Frame 396: 106 bytes on wire (848 bits), 106 bytes captured (848 bits)
    Encapsulation type: IEEE 802.15.4 Wireless PAN (104)
    Arrival Time: Mar  3, 2023 16:19:12.329991000 CST
    [Time shift for this packet: 0.000000000 seconds]
    Epoch Time: 1677881952.329991000 seconds
    [Time delta from previous captured frame: 0.017413000 seconds]
    [Time delta from previous displayed frame: 0.017413000 seconds]
    [Time since reference or first frame: 16.278528000 seconds]
    Frame Number: 396
    Frame Length: 106 bytes (848 bits)
    Capture Length: 106 bytes (848 bits)
    [Frame is marked: False]
    [Frame is ignored: False]
    [Protocols in frame: wpan:6lowpan:ipv6:data]
IEEE 802.15.4 Data, Dst: 0x0203, Src: 0x0103
    Frame Control Field: 0x8861, Frame Type: Data, Acknowledge Request, PAN ID Compression, Destination Addressing Mode: Short/16-bit, Frame Version: IEEE Std 802.15.4-2003, Source Addressing Mode: Short/16-bit
        .... .... .... .001 = Frame Type: Data (0x1)
        .... .... .... 0... = Security Enabled: False
        .... .... ...0 .... = Frame Pending: False
        .... .... ..1. .... = Acknowledge Request: True
        .... .... .1.. .... = PAN ID Compression: True
        .... .... 0... .... = Reserved: False
        .... ...0 .... .... = Sequence Number Suppression: False
        .... ..0. .... .... = Information Elements Present: False
        .... 10.. .... .... = Destination Addressing Mode: Short/16-bit (0x2)
        ..00 .... .... .... = Frame Version: IEEE Std 802.15.4-2003 (0)
        10.. .... .... .... = Source Addressing Mode: Short/16-bit (0x2)
    Sequence Number: 55
    Destination PAN: 0x3332
    Destination: 0x0203
    Source: 0x0103
    FCS: 0x479f (Correct)
    [Ack In: 397]
6LoWPAN, Src: 3d00:0:a5:1ab:d6fd:1c00:df:301 (3d00:0:a5:1ab:d6fd:1c00:df:301), Dest: 1e00:53:2810:d6:e1a2:3d5b:9a14:3b72 (1e00:53:2810:d6:e1a2:3d5b:9a14:3b72)
    IPHC Header
        011. .... = Pattern: IP header compression (0x03)
        ...0 1... .... .... = Traffic class and flow label: ECN and flow label inline (0x1)
        .... .0.. .... .... = Next header: Inline
        .... ..01 .... .... = Hop limit: 1 (0x1)
        .... .... 0... .... = Context identifier extension: False
        .... .... .0.. .... = Source address compression: Stateless
        .... .... ..00 .... = Source address mode: Inline (0x0000)
        .... .... .... 0... = Multicast address compression: False
        .... .... .... .0.. = Destination address compression: Stateless
        .... .... .... ..00 = Destination address mode: Inline (0x0000)
    00.. .... = ECN: 0
    ..11 .... = Padding: 0x03
    .... 1011  0110 1111  1011 0011 = Flow label: 0x0b6fb3
    Next header: Unassigned (0xdb)
    Source: 3d00:0:a5:1ab:d6fd:1c00:df:301 (3d00:0:a5:1ab:d6fd:1c00:df:301)
    Destination: 1e00:53:2810:d6:e1a2:3d5b:9a14:3b72 (1e00:53:2810:d6:e1a2:3d5b:9a14:3b72)
Internet Protocol Version 6, Src: 3d00:0:a5:1ab:d6fd:1c00:df:301 (3d00:0:a5:1ab:d6fd:1c00:df:301), Dst: 1e00:53:2810:d6:e1a2:3d5b:9a14:3b72 (1e00:53:2810:d6:e1a2:3d5b:9a14:3b72)
    0110 .... = Version: 6
    .... 0000 0000 .... .... .... .... .... = Traffic Class: 0x00 (DSCP: CS0, ECN: Not-ECT)
        .... 0000 00.. .... .... .... .... .... = Differentiated Services Codepoint: Default (0)
        .... .... ..00 .... .... .... .... .... = Explicit Congestion Notification: Not ECN-Capable Transport (0)
    .... .... .... 1011 0110 1111 1011 0011 = Flow Label: 0xb6fb3
    Payload Length: 57
    Next Header: Unassigned (219)
    Hop Limit: 1
    Source: 3d00:0:a5:1ab:d6fd:1c00:df:301 (3d00:0:a5:1ab:d6fd:1c00:df:301)
    Destination: 1e00:53:2810:d6:e1a2:3d5b:9a14:3b72 (1e00:53:2810:d6:e1a2:3d5b:9a14:3b72)
Data (57 bytes)
    Data: 261abf5c22b03925a45b3adcb3633bf6b6fd1c0000e00301
    [Length: 57]

Frame (106 bytes):
0000  61 88 37 32 33 03 02 03 01 69 00 3b 6f b3 db 3d   a.723....i.;o..=
0010  00 00 00 00 a5 01 ab d6 fd 1c 00 00 df 03 01 1e   ................
0020  00 00 53 28 10 00 d6 e1 a2 3d 5b 9a 14 3b 72 26   ..S(.....=[..;r&
0030  1a bf 5c 22 b0 39 25 a4 5b 3a dc b3 63 3b f6 b6   ..\".9%.[:..c;..
0040  fd 1c 00 00 e0 03 01 21 00 00 56 28 10 00 00 00   .......!..V(....
0050  00 00 00 00 00 00 22 01 00 00 2b 01 00 00 01 00   ......"...+.....
0060  00 00 01 00 26 7f 72 70 9f 47                     ....&.rp.G
Decompressed 6LoWPAN IPHC (97 bytes):
0000  60 0b 6f b3 00 39 db 01 3d 00 00 00 00 a5 01 ab   `.o..9..=.......
0010  d6 fd 1c 00 00 df 03 01 1e 00 00 53 28 10 00 d6   ...........S(...
0020  e1 a2 3d 5b 9a 14 3b 72 26 1a bf 5c 22 b0 39 25   ..=[..;r&..\".9%
0030  a4 5b 3a dc b3 63 3b f6 b6 fd 1c 00 00 e0 03 01   .[:..c;.........
0040  21 00 00 56 28 10 00 00 00 00 00 00 00 00 00 22   !..V(.........."
0050  01 00 00 2b 01 00 00 01 00 00 00 01 00 26 7f 72   ...+.........&.r
0060  70                                                p

No.     Time           Source                Destination           Protocol Length Info
    397 16.279055                                                  IEEE 802.15.4 5      Ack

Frame 397: 5 bytes on wire (40 bits), 5 bytes captured (40 bits)
    Encapsulation type: IEEE 802.15.4 Wireless PAN (104)
    Arrival Time: Mar  3, 2023 16:19:12.330518000 CST
    [Time shift for this packet: 0.000000000 seconds]
    Epoch Time: 1677881952.330518000 seconds
    [Time delta from previous captured frame: 0.000527000 seconds]
    [Time delta from previous displayed frame: 0.000527000 seconds]
    [Time since reference or first frame: 16.279055000 seconds]
    Frame Number: 397
    Frame Length: 5 bytes (40 bits)
    Capture Length: 5 bytes (40 bits)
    [Frame is marked: False]
    [Frame is ignored: False]
    [Protocols in frame: wpan]
IEEE 802.15.4 Ack, Sequence Number: 55
    Frame Control Field: 0x0002, Frame Type: Ack, Destination Addressing Mode: None, Frame Version: IEEE Std 802.15.4-2003, Source Addressing Mode: None
        .... .... .... .010 = Frame Type: Ack (0x2)
        .... .... .... 0... = Security Enabled: False
        .... .... ...0 .... = Frame Pending: False
        .... .... ..0. .... = Acknowledge Request: False
        .... .... .0.. .... = PAN ID Compression: False
        .... .... 0... .... = Reserved: False
        .... ...0 .... .... = Sequence Number Suppression: False
        .... ..0. .... .... = Information Elements Present: False
        .... 00.. .... .... = Destination Addressing Mode: None (0x0)
        ..00 .... .... .... = Frame Version: IEEE Std 802.15.4-2003 (0)
        00.. .... .... .... = Source Addressing Mode: None (0x0)
    Sequence Number: 55
    FCS: 0xf084 (Correct)
    [Ack To: 396]
    [Ack Time: 0.527 ms]

0000  02 00 37 84 f0                                    ..7..

No.     Time           Source                Destination           Protocol Length Info
    398 16.318303      0x0103                0x0203                6LoWPAN  34     Data, Dst: 0x0203, Src: 0x0103[Malformed Packet]

Frame 398: 34 bytes on wire (272 bits), 34 bytes captured (272 bits)
    Encapsulation type: IEEE 802.15.4 Wireless PAN (104)
    Arrival Time: Mar  3, 2023 16:19:12.369766000 CST
    [Time shift for this packet: 0.000000000 seconds]
    Epoch Time: 1677881952.369766000 seconds
    [Time delta from previous captured frame: 0.039248000 seconds]
    [Time delta from previous displayed frame: 0.039248000 seconds]
    [Time since reference or first frame: 16.318303000 seconds]
    Frame Number: 398
    Frame Length: 34 bytes (272 bits)
    Capture Length: 34 bytes (272 bits)
    [Frame is marked: False]
    [Frame is ignored: False]
    [Protocols in frame: wpan:6lowpan]
IEEE 802.15.4 Data, Dst: 0x0203, Src: 0x0103
    Frame Control Field: 0x8861, Frame Type: Data, Acknowledge Request, PAN ID Compression, Destination Addressing Mode: Short/16-bit, Frame Version: IEEE Std 802.15.4-2003, Source Addressing Mode: Short/16-bit
        .... .... .... .001 = Frame Type: Data (0x1)
        .... .... .... 0... = Security Enabled: False
        .... .... ...0 .... = Frame Pending: False
        .... .... ..1. .... = Acknowledge Request: True
        .... .... .1.. .... = PAN ID Compression: True
        .... .... 0... .... = Reserved: False
        .... ...0 .... .... = Sequence Number Suppression: False
        .... ..0. .... .... = Information Elements Present: False
        .... 10.. .... .... = Destination Addressing Mode: Short/16-bit (0x2)
        ..00 .... .... .... = Frame Version: IEEE Std 802.15.4-2003 (0)
        10.. .... .... .... = Source Addressing Mode: Short/16-bit (0x2)
    Sequence Number: 56
    Destination PAN: 0x3332
    Destination: 0x0203
    Source: 0x0103
    FCS: 0xfdd8 (Correct)
    [Ack In: 399]
6LoWPAN, Src: e103:100::203:5103:3b0 (e103:100::203:5103:3b0)
    IPHC Header
        011. .... = Pattern: IP header compression (0x03)
        ...0 1... .... .... = Traffic class and flow label: ECN and flow label inline (0x1)
        .... .0.. .... .... = Next header: Inline
        .... ..10 .... .... = Hop limit: 64 (0x2)
        .... .... 0... .... = Context identifier extension: False
        .... .... .0.. .... = Source address compression: Stateless
        .... .... ..00 .... = Source address mode: Inline (0x0000)
        .... .... .... 0... = Multicast address compression: False
        .... .... .... .0.. = Destination address compression: Stateless
        .... .... .... ..00 = Destination address mode: Inline (0x0000)
    11.. .... = ECN: 3
    [Traffic class: 0x03]
    ..11 .... = Padding: 0x03
    .... 1101  0000 1001  0000 0000 = Flow label: 0x0d0900
    Next header: IPv6 Hop-by-Hop Option (0x00)
    Source: e103:100::203:5103:3b0 (e103:100::203:5103:3b0)
[Malformed Packet: 6LoWPAN]
    [Expert Info (Error/Malformed): Malformed Packet (Exception occurred)]
        [Malformed Packet (Exception occurred)]
        [Severity level: Error]
        [Group: Malformed]

0000  61 88 38 32 33 03 02 03 01 6a 00 fd 09 00 00 e1   a.823....j......
0010  03 01 00 00 00 00 00 00 00 02 03 51 03 03 b0 75   ...........Q...u
0020  d8 fd                                             ..

No.     Time           Source                Destination           Protocol Length Info
    399 16.318811                                                  IEEE 802.15.4 5      Ack

Frame 399: 5 bytes on wire (40 bits), 5 bytes captured (40 bits)
    Encapsulation type: IEEE 802.15.4 Wireless PAN (104)
    Arrival Time: Mar  3, 2023 16:19:12.370274000 CST
    [Time shift for this packet: 0.000000000 seconds]
    Epoch Time: 1677881952.370274000 seconds
    [Time delta from previous captured frame: 0.000508000 seconds]
    [Time delta from previous displayed frame: 0.000508000 seconds]
    [Time since reference or first frame: 16.318811000 seconds]
    Frame Number: 399
    Frame Length: 5 bytes (40 bits)
    Capture Length: 5 bytes (40 bits)
    [Frame is marked: False]
    [Frame is ignored: False]
    [Protocols in frame: wpan]
IEEE 802.15.4 Ack, Sequence Number: 56
    Frame Control Field: 0x0002, Frame Type: Ack, Destination Addressing Mode: None, Frame Version: IEEE Std 802.15.4-2003, Source Addressing Mode: None
        .... .... .... .010 = Frame Type: Ack (0x2)
        .... .... .... 0... = Security Enabled: False
        .... .... ...0 .... = Frame Pending: False
        .... .... ..0. .... = Acknowledge Request: False
        .... .... .0.. .... = PAN ID Compression: False
        .... .... 0... .... = Reserved: False
        .... ...0 .... .... = Sequence Number Suppression: False
        .... ..0. .... .... = Information Elements Present: False
        .... 00.. .... .... = Destination Addressing Mode: None (0x0)
        ..00 .... .... .... = Frame Version: IEEE Std 802.15.4-2003 (0)
        00.. .... .... .... = Source Addressing Mode: None (0x0)
    Sequence Number: 56
    FCS: 0x0873 (Correct)
    [Ack To: 398]
    [Ack Time: 0.508 ms]

0000  02 00 38 73 08                                    ..8s.

No.     Time           Source                Destination           Protocol Length Info
    400 16.377286      e203:121:0:cd28:1000:: 0:7201:0:7401:0:100:0:100 IPv6     53     IPv6 hop-by-hop options[Malformed Packet]

Frame 400: 53 bytes on wire (424 bits), 53 bytes captured (424 bits)
    Encapsulation type: IEEE 802.15.4 Wireless PAN (104)
    Arrival Time: Mar  3, 2023 16:19:12.428749000 CST
    [Time shift for this packet: 0.000000000 seconds]
    Epoch Time: 1677881952.428749000 seconds
    [Time delta from previous captured frame: 0.058475000 seconds]
    [Time delta from previous displayed frame: 0.058475000 seconds]
    [Time since reference or first frame: 16.377286000 seconds]
    Frame Number: 400
    Frame Length: 53 bytes (424 bits)
    Capture Length: 53 bytes (424 bits)
    [Frame is marked: False]
    [Frame is ignored: False]
    [Protocols in frame: wpan:6lowpan:ipv6:ipv6.hopopts]
IEEE 802.15.4 Data, Dst: 0x0203, Src: 0x0103
    Frame Control Field: 0x8861, Frame Type: Data, Acknowledge Request, PAN ID Compression, Destination Addressing Mode: Short/16-bit, Frame Version: IEEE Std 802.15.4-2003, Source Addressing Mode: Short/16-bit
        .... .... .... .001 = Frame Type: Data (0x1)
        .... .... .... 0... = Security Enabled: False
        .... .... ...0 .... = Frame Pending: False
        .... .... ..1. .... = Acknowledge Request: True
        .... .... .1.. .... = PAN ID Compression: True
        .... .... 0... .... = Reserved: False
        .... ...0 .... .... = Sequence Number Suppression: False
        .... ..0. .... .... = Information Elements Present: False
        .... 10.. .... .... = Destination Addressing Mode: Short/16-bit (0x2)
        ..00 .... .... .... = Frame Version: IEEE Std 802.15.4-2003 (0)
        10.. .... .... .... = Source Addressing Mode: Short/16-bit (0x2)
    Sequence Number: 57
    Destination PAN: 0x3332
    Destination: 0x0203
    Source: 0x0103
    FCS: 0x8e6d (Correct)
    [Ack In: 401]
6LoWPAN, Src: e203:121:0:cd28:1000:: (e203:121:0:cd28:1000::), Dest: 0:7201:0:7401:0:100:0:100 (0:7201:0:7401:0:100:0:100)
    IPHC Header
        011. .... = Pattern: IP header compression (0x03)
        ...0 1... .... .... = Traffic class and flow label: ECN and flow label inline (0x1)
        .... .0.. .... .... = Next header: Inline
        .... ..11 .... .... = Hop limit: 255 (0x3)
        .... .... 0... .... = Context identifier extension: False
        .... .... .0.. .... = Source address compression: Stateless
        .... .... ..00 .... = Source address mode: Inline (0x0000)
        .... .... .... 0... = Multicast address compression: False
        .... .... .... .0.. = Destination address compression: Stateless
        .... .... .... ..00 = Destination address mode: Inline (0x0000)
    11.. .... = ECN: 3
    [Traffic class: 0x03]
    ..11 .... = Padding: 0x03
    .... 1101  0001 1100  0000 0000 = Flow label: 0x0d1c00
    Next header: IPv6 Hop-by-Hop Option (0x00)
    Source: e203:121:0:cd28:1000:: (e203:121:0:cd28:1000::)
    Destination: 0:7201:0:7401:0:100:0:100 (0:7201:0:7401:0:100:0:100)
Internet Protocol Version 6, Src: e203:121:0:cd28:1000:: (e203:121:0:cd28:1000::), Dst: 0:7201:0:7401:0:100:0:100 (0:7201:0:7401:0:100:0:100)
    0110 .... = Version: 6
    .... 0000 0011 .... .... .... .... .... = Traffic Class: 0x03 (DSCP: CS0, ECN: CE)
        .... 0000 00.. .... .... .... .... .... = Differentiated Services Codepoint: Default (0)
        .... .... ..11 .... .... .... .... .... = Explicit Congestion Notification: Congestion Experienced (3)
    .... .... .... 1101 0001 1100 0000 0000 = Flow Label: 0xd1c00
    Payload Length: 4
    Next Header: IPv6 Hop-by-Hop Option (0)
    Hop Limit: 255
    Source: e203:121:0:cd28:1000:: (e203:121:0:cd28:1000::)
    Destination: 0:7201:0:7401:0:100:0:100 (0:7201:0:7401:0:100:0:100)
    IPv6 Hop-by-Hop Option
        Next Header: Control Message (38)
        Length: 127
        [Length: 1024 bytes]
        Unknown IPv6 Option (146)
            Type: Unknown (0x92)
                10.. .... = Action: Discard and send ICMP Parameter Problem (2)
                ..0. .... = May Change: No
                ...1 0010 = Low-Order Bits: 0x12
            Length: 51
[Malformed Packet: IPv6 Hop-by-Hop]
    [Expert Info (Error/Malformed): Malformed Packet (Exception occurred)]
        [Malformed Packet (Exception occurred)]
        [Severity level: Error]
        [Group: Malformed]

Frame (53 bytes):
0000  61 88 39 32 33 03 02 03 01 6b 00 fd 1c 00 00 e2   a.923....k......
0010  03 01 21 00 00 cd 28 10 00 00 00 00 00 00 00 00   ..!...(.........
0020  00 72 01 00 00 74 01 00 00 01 00 00 00 01 00 26   .r...t.........&
0030  7f 92 33 6d 8e                                    ..3m.
Decompressed 6LoWPAN IPHC (44 bytes):
0000  60 3d 1c 00 00 04 00 ff e2 03 01 21 00 00 cd 28   `=.........!...(
0010  10 00 00 00 00 00 00 00 00 00 72 01 00 00 74 01   ..........r...t.
0020  00 00 01 00 00 00 01 00 26 7f 92 33               ........&..3

No.     Time           Source                Destination           Protocol Length Info
    401 16.377796                                                  IEEE 802.15.4 5      Ack

Frame 401: 5 bytes on wire (40 bits), 5 bytes captured (40 bits)
    Encapsulation type: IEEE 802.15.4 Wireless PAN (104)
    Arrival Time: Mar  3, 2023 16:19:12.429259000 CST
    [Time shift for this packet: 0.000000000 seconds]
    Epoch Time: 1677881952.429259000 seconds
    [Time delta from previous captured frame: 0.000510000 seconds]
    [Time delta from previous displayed frame: 0.000510000 seconds]
    [Time since reference or first frame: 16.377796000 seconds]
    Frame Number: 401
    Frame Length: 5 bytes (40 bits)
    Capture Length: 5 bytes (40 bits)
    [Frame is marked: False]
    [Frame is ignored: False]
    [Protocols in frame: wpan]
IEEE 802.15.4 Ack, Sequence Number: 57
    Frame Control Field: 0x0002, Frame Type: Ack, Destination Addressing Mode: None, Frame Version: IEEE Std 802.15.4-2003, Source Addressing Mode: None
        .... .... .... .010 = Frame Type: Ack (0x2)
        .... .... .... 0... = Security Enabled: False
        .... .... ...0 .... = Frame Pending: False
        .... .... ..0. .... = Acknowledge Request: False
        .... .... .0.. .... = PAN ID Compression: False
        .... .... 0... .... = Reserved: False
        .... ...0 .... .... = Sequence Number Suppression: False
        .... ..0. .... .... = Information Elements Present: False
        .... 00.. .... .... = Destination Addressing Mode: None (0x0)
        ..00 .... .... .... = Frame Version: IEEE Std 802.15.4-2003 (0)
        00.. .... .... .... = Source Addressing Mode: None (0x0)
    Sequence Number: 57
    FCS: 0x19fa (Correct)
    [Ack To: 400]
    [Ack Time: 0.510 ms]

0000  02 00 39 fa 19                                    ..9..

No.     Time           Source                Destination           Protocol Length Info
    402 16.500702      e303:121:0:4929:1000:: 0:4e02:0:4e02:0:100:0:100 IPv6     53     IPv6 no next header

Frame 402: 53 bytes on wire (424 bits), 53 bytes captured (424 bits)
    Encapsulation type: IEEE 802.15.4 Wireless PAN (104)
    Arrival Time: Mar  3, 2023 16:19:12.552165000 CST
    [Time shift for this packet: 0.000000000 seconds]
    Epoch Time: 1677881952.552165000 seconds
    [Time delta from previous captured frame: 0.122906000 seconds]
    [Time delta from previous displayed frame: 0.122906000 seconds]
    [Time since reference or first frame: 16.500702000 seconds]
    Frame Number: 402
    Frame Length: 53 bytes (424 bits)
    Capture Length: 53 bytes (424 bits)
    [Frame is marked: False]
    [Frame is ignored: False]
    [Protocols in frame: wpan:6lowpan:ipv6]
IEEE 802.15.4 Data, Dst: 0x0203, Src: 0x0103
    Frame Control Field: 0x8861, Frame Type: Data, Acknowledge Request, PAN ID Compression, Destination Addressing Mode: Short/16-bit, Frame Version: IEEE Std 802.15.4-2003, Source Addressing Mode: Short/16-bit
        .... .... .... .001 = Frame Type: Data (0x1)
        .... .... .... 0... = Security Enabled: False
        .... .... ...0 .... = Frame Pending: False
        .... .... ..1. .... = Acknowledge Request: True
        .... .... .1.. .... = PAN ID Compression: True
        .... .... 0... .... = Reserved: False
        .... ...0 .... .... = Sequence Number Suppression: False
        .... ..0. .... .... = Information Elements Present: False
        .... 10.. .... .... = Destination Addressing Mode: Short/16-bit (0x2)
        ..00 .... .... .... = Frame Version: IEEE Std 802.15.4-2003 (0)
        10.. .... .... .... = Source Addressing Mode: Short/16-bit (0x2)
    Sequence Number: 58
    Destination PAN: 0x3332
    Destination: 0x0203
    Source: 0x0103
    FCS: 0x3df2 (Correct)
    [Ack In: 403]
6LoWPAN, Src: e303:121:0:4929:1000:: (e303:121:0:4929:1000::), Dest: 0:4e02:0:4e02:0:100:0:100 (0:4e02:0:4e02:0:100:0:100)
    IPHC Header
        011. .... = Pattern: IP header compression (0x03)
        ...0 1... .... .... = Traffic class and flow label: ECN and flow label inline (0x1)
        .... .1.. .... .... = Next header: Compressed
        .... ..00 .... .... = Hop limit: Inline (0x0)
        .... .... 0... .... = Context identifier extension: False
        .... .... .0.. .... = Source address compression: Stateless
        .... .... ..00 .... = Source address mode: Inline (0x0000)
        .... .... .... 0... = Multicast address compression: False
        .... .... .... .0.. = Destination address compression: Stateless
        .... .... .... ..00 = Destination address mode: Inline (0x0000)
    11.. .... = ECN: 3
    [Traffic class: 0x03]
    ..11 .... = Padding: 0x03
    .... 1101  0001 1100  0000 0000 = Flow label: 0x0d1c00
    Hop limit: 0
    Source: e303:121:0:4929:1000:: (e303:121:0:4929:1000::)
    Destination: 0:4e02:0:4e02:0:100:0:100 (0:4e02:0:4e02:0:100:0:100)
Internet Protocol Version 6, Src: e303:121:0:4929:1000:: (e303:121:0:4929:1000::), Dst: 0:4e02:0:4e02:0:100:0:100 (0:4e02:0:4e02:0:100:0:100)
    0110 .... = Version: 6
    .... 0000 0011 .... .... .... .... .... = Traffic Class: 0x03 (DSCP: CS0, ECN: CE)
        .... 0000 00.. .... .... .... .... .... = Differentiated Services Codepoint: Default (0)
        .... .... ..11 .... .... .... .... .... = Explicit Congestion Notification: Congestion Experienced (3)
    .... .... .... 1101 0001 1100 0000 0000 = Flow Label: 0xd1c00
    Payload Length: 0
    Next Header: No Next Header for IPv6 (59)
    Hop Limit: 0
    Source: e303:121:0:4929:1000:: (e303:121:0:4929:1000::)
    Destination: 0:4e02:0:4e02:0:100:0:100 (0:4e02:0:4e02:0:100:0:100)

Frame (53 bytes):
0000  61 88 3a 32 33 03 02 03 01 6c 00 fd 1c 00 00 e3   a.:23....l......
0010  03 01 21 00 00 49 29 10 00 00 00 00 00 00 00 00   ..!..I).........
0020  00 4e 02 00 00 4e 02 00 00 01 00 00 00 01 00 26   .N...N.........&
0030  7f a7 66 f2 3d                                    ..f.=
Decompressed 6LoWPAN IPHC (40 bytes):
0000  60 3d 1c 00 00 00 3b 00 e3 03 01 21 00 00 49 29   `=....;....!..I)
0010  10 00 00 00 00 00 00 00 00 00 4e 02 00 00 4e 02   ..........N...N.
0020  00 00 01 00 00 00 01 00                           ........

No.     Time           Source                Destination           Protocol Length Info
    403 16.501211                                                  IEEE 802.15.4 5      Ack

Frame 403: 5 bytes on wire (40 bits), 5 bytes captured (40 bits)
    Encapsulation type: IEEE 802.15.4 Wireless PAN (104)
    Arrival Time: Mar  3, 2023 16:19:12.552674000 CST
    [Time shift for this packet: 0.000000000 seconds]
    Epoch Time: 1677881952.552674000 seconds
    [Time delta from previous captured frame: 0.000509000 seconds]
    [Time delta from previous displayed frame: 0.000509000 seconds]
    [Time since reference or first frame: 16.501211000 seconds]
    Frame Number: 403
    Frame Length: 5 bytes (40 bits)
    Capture Length: 5 bytes (40 bits)
    [Frame is marked: False]
    [Frame is ignored: False]
    [Protocols in frame: wpan]
IEEE 802.15.4 Ack, Sequence Number: 58
    Frame Control Field: 0x0002, Frame Type: Ack, Destination Addressing Mode: None, Frame Version: IEEE Std 802.15.4-2003, Source Addressing Mode: None
        .... .... .... .010 = Frame Type: Ack (0x2)
        .... .... .... 0... = Security Enabled: False
        .... .... ...0 .... = Frame Pending: False
        .... .... ..0. .... = Acknowledge Request: False
        .... .... .0.. .... = PAN ID Compression: False
        .... .... 0... .... = Reserved: False
        .... ...0 .... .... = Sequence Number Suppression: False
        .... ..0. .... .... = Information Elements Present: False
        .... 00.. .... .... = Destination Addressing Mode: None (0x0)
        ..00 .... .... .... = Frame Version: IEEE Std 802.15.4-2003 (0)
        00.. .... .... .... = Source Addressing Mode: None (0x0)
    Sequence Number: 58
    FCS: 0x2b61 (Correct)
    [Ack To: 402]
    [Ack Time: 0.509 ms]

0000  02 00 3a 61 2b                                    ..:a+

No.     Time           Source                Destination           Protocol Length Info
    404 16.601626      0x0103                0x0203                6LoWPAN  48     Data, Dst: 0x0203, Src: 0x0103[Malformed Packet]

Frame 404: 48 bytes on wire (384 bits), 48 bytes captured (384 bits)
    Encapsulation type: IEEE 802.15.4 Wireless PAN (104)
    Arrival Time: Mar  3, 2023 16:19:12.653089000 CST
    [Time shift for this packet: 0.000000000 seconds]
    Epoch Time: 1677881952.653089000 seconds
    [Time delta from previous captured frame: 0.100415000 seconds]
    [Time delta from previous displayed frame: 0.100415000 seconds]
    [Time since reference or first frame: 16.601626000 seconds]
    Frame Number: 404
    Frame Length: 48 bytes (384 bits)
    Capture Length: 48 bytes (384 bits)
    [Frame is marked: False]
    [Frame is ignored: False]
    [Protocols in frame: wpan:6lowpan]
IEEE 802.15.4 Data, Dst: 0x0203, Src: 0x0103
    Frame Control Field: 0x8861, Frame Type: Data, Acknowledge Request, PAN ID Compression, Destination Addressing Mode: Short/16-bit, Frame Version: IEEE Std 802.15.4-2003, Source Addressing Mode: Short/16-bit
        .... .... .... .001 = Frame Type: Data (0x1)
        .... .... .... 0... = Security Enabled: False
        .... .... ...0 .... = Frame Pending: False
        .... .... ..1. .... = Acknowledge Request: True
        .... .... .1.. .... = PAN ID Compression: True
        .... .... 0... .... = Reserved: False
        .... ...0 .... .... = Sequence Number Suppression: False
        .... ..0. .... .... = Information Elements Present: False
        .... 10.. .... .... = Destination Addressing Mode: Short/16-bit (0x2)
        ..00 .... .... .... = Frame Version: IEEE Std 802.15.4-2003 (0)
        10.. .... .... .... = Source Addressing Mode: Short/16-bit (0x2)
    Sequence Number: 59
    Destination PAN: 0x3332
    Destination: 0x0203
    Source: 0x0103
    FCS: 0xc8e4 (Correct)
    [Ack In: 405]
6LoWPAN, Src: e4:301:fd00:4:454b:4632:2049:4d55 (e4:301:fd00:4:454b:4632:2049:4d55), Dest: 3120:666f:7263:6564:2072:6573:6574:14a4 (3120:666f:7263:6564:2072:6573:6574:14a4)
    IPHC Header
        011. .... = Pattern: IP header compression (0x03)
        ...0 1... .... .... = Traffic class and flow label: ECN and flow label inline (0x1)
        .... .1.. .... .... = Next header: Compressed
        .... ..01 .... .... = Hop limit: 1 (0x1)
        .... .... 0... .... = Context identifier extension: False
        .... .... .0.. .... = Source address compression: Stateless
        .... .... ..00 .... = Source address mode: Inline (0x0000)
        .... .... .... 0... = Multicast address compression: False
        .... .... .... .0.. = Destination address compression: Stateless
        .... .... .... ..00 = Destination address mode: Inline (0x0000)
    11.. .... = ECN: 3
    [Traffic class: 0x03]
    ..11 .... = Padding: 0x03
    .... 1101  0001 0111  0000 0000 = Flow label: 0x0d1700
    Source: e4:301:fd00:4:454b:4632:2049:4d55 (e4:301:fd00:4:454b:4632:2049:4d55)
    Destination: 3120:666f:7263:6564:2072:6573:6574:14a4 (3120:666f:7263:6564:2072:6573:6574:14a4)
[Malformed Packet: 6LoWPAN]
    [Expert Info (Error/Malformed): Malformed Packet (Exception occurred)]
        [Malformed Packet (Exception occurred)]
        [Severity level: Error]
        [Group: Malformed]

0000  61 88 3b 32 33 03 02 03 01 6d 00 fd 17 00 00 e4   a.;23....m......
0010  03 01 fd 00 00 04 45 4b 46 32 20 49 4d 55 31 20   ......EKF2 IMU1 
0020  66 6f 72 63 65 64 20 72 65 73 65 74 14 a4 e4 c8   forced reset....

No.     Time           Source                Destination           Protocol Length Info
    405 16.602128                                                  IEEE 802.15.4 5      Ack

Frame 405: 5 bytes on wire (40 bits), 5 bytes captured (40 bits)
    Encapsulation type: IEEE 802.15.4 Wireless PAN (104)
    Arrival Time: Mar  3, 2023 16:19:12.653591000 CST
    [Time shift for this packet: 0.000000000 seconds]
    Epoch Time: 1677881952.653591000 seconds
    [Time delta from previous captured frame: 0.000502000 seconds]
    [Time delta from previous displayed frame: 0.000502000 seconds]
    [Time since reference or first frame: 16.602128000 seconds]
    Frame Number: 405
    Frame Length: 5 bytes (40 bits)
    Capture Length: 5 bytes (40 bits)
    [Frame is marked: False]
    [Frame is ignored: False]
    [Protocols in frame: wpan]
IEEE 802.15.4 Ack, Sequence Number: 59
    Frame Control Field: 0x0002, Frame Type: Ack, Destination Addressing Mode: None, Frame Version: IEEE Std 802.15.4-2003, Source Addressing Mode: None
        .... .... .... .010 = Frame Type: Ack (0x2)
        .... .... .... 0... = Security Enabled: False
        .... .... ...0 .... = Frame Pending: False
        .... .... ..0. .... = Acknowledge Request: False
        .... .... .0.. .... = PAN ID Compression: False
        .... .... 0... .... = Reserved: False
        .... ...0 .... .... = Sequence Number Suppression: False
        .... ..0. .... .... = Information Elements Present: False
        .... 00.. .... .... = Destination Addressing Mode: None (0x0)
        ..00 .... .... .... = Frame Version: IEEE Std 802.15.4-2003 (0)
        00.. .... .... .... = Source Addressing Mode: None (0x0)
    Sequence Number: 59
    FCS: 0x3ae8 (Correct)
    [Ack To: 404]
    [Ack Time: 0.502 ms]

0000  02 00 3b e8 3a                                    ..;.:

No.     Time           Source                Destination           Protocol Length Info
    406 16.623219      e5:301:2100:c3:2910:: 0:22:100:2b:100:1:0:1 IPv6     53     IPv6 no next header

Frame 406: 53 bytes on wire (424 bits), 53 bytes captured (424 bits)
    Encapsulation type: IEEE 802.15.4 Wireless PAN (104)
    Arrival Time: Mar  3, 2023 16:19:12.674682000 CST
    [Time shift for this packet: 0.000000000 seconds]
    Epoch Time: 1677881952.674682000 seconds
    [Time delta from previous captured frame: 0.021091000 seconds]
    [Time delta from previous displayed frame: 0.021091000 seconds]
    [Time since reference or first frame: 16.623219000 seconds]
    Frame Number: 406
    Frame Length: 53 bytes (424 bits)
    Capture Length: 53 bytes (424 bits)
    [Frame is marked: False]
    [Frame is ignored: False]
    [Protocols in frame: wpan:6lowpan:ipv6]
IEEE 802.15.4 Data, Dst: 0x0203, Src: 0x0103
    Frame Control Field: 0x8861, Frame Type: Data, Acknowledge Request, PAN ID Compression, Destination Addressing Mode: Short/16-bit, Frame Version: IEEE Std 802.15.4-2003, Source Addressing Mode: Short/16-bit
        .... .... .... .001 = Frame Type: Data (0x1)
        .... .... .... 0... = Security Enabled: False
        .... .... ...0 .... = Frame Pending: False
        .... .... ..1. .... = Acknowledge Request: True
        .... .... .1.. .... = PAN ID Compression: True
        .... .... 0... .... = Reserved: False
        .... ...0 .... .... = Sequence Number Suppression: False
        .... ..0. .... .... = Information Elements Present: False
        .... 10.. .... .... = Destination Addressing Mode: Short/16-bit (0x2)
        ..00 .... .... .... = Frame Version: IEEE Std 802.15.4-2003 (0)
        10.. .... .... .... = Source Addressing Mode: Short/16-bit (0x2)
    Sequence Number: 60
    Destination PAN: 0x3332
    Destination: 0x0203
    Source: 0x0103
    FCS: 0xfbff (Correct)
    [Ack In: 407]
6LoWPAN, Src: e5:301:2100:c3:2910:: (e5:301:2100:c3:2910::), Dest: 0:22:100:2b:100:1:0:1 (0:22:100:2b:100:1:0:1)
    IPHC Header
        011. .... = Pattern: IP header compression (0x03)
        ...0 1... .... .... = Traffic class and flow label: ECN and flow label inline (0x1)
        .... .1.. .... .... = Next header: Compressed
        .... ..10 .... .... = Hop limit: 64 (0x2)
        .... .... 0... .... = Context identifier extension: False
        .... .... .0.. .... = Source address compression: Stateless
        .... .... ..00 .... = Source address mode: Inline (0x0000)
        .... .... .... 0... = Multicast address compression: False
        .... .... .... .0.. = Destination address compression: Stateless
        .... .... .... ..00 = Destination address mode: Inline (0x0000)
    11.. .... = ECN: 3
    [Traffic class: 0x03]
    ..11 .... = Padding: 0x03
    .... 1101  0001 1100  0000 0000 = Flow label: 0x0d1c00
    Source: e5:301:2100:c3:2910:: (e5:301:2100:c3:2910::)
    Destination: 0:22:100:2b:100:1:0:1 (0:22:100:2b:100:1:0:1)
Internet Protocol Version 6, Src: e5:301:2100:c3:2910:: (e5:301:2100:c3:2910::), Dst: 0:22:100:2b:100:1:0:1 (0:22:100:2b:100:1:0:1)
    0110 .... = Version: 6
    .... 0000 0011 .... .... .... .... .... = Traffic Class: 0x03 (DSCP: CS0, ECN: CE)
        .... 0000 00.. .... .... .... .... .... = Differentiated Services Codepoint: Default (0)
        .... .... ..11 .... .... .... .... .... = Explicit Congestion Notification: Congestion Experienced (3)
    .... .... .... 1101 0001 1100 0000 0000 = Flow Label: 0xd1c00
    Payload Length: 0
    Next Header: No Next Header for IPv6 (59)
    Hop Limit: 64
    Source: e5:301:2100:c3:2910:: (e5:301:2100:c3:2910::)
    Destination: 0:22:100:2b:100:1:0:1 (0:22:100:2b:100:1:0:1)

Frame (53 bytes):
0000  61 88 3c 32 33 03 02 03 01 6e 00 fd 1c 00 00 e5   a.<23....n......
0010  03 01 21 00 00 c3 29 10 00 00 00 00 00 00 00 00   ..!...).........
0020  00 22 01 00 00 2b 01 00 00 01 00 00 00 01 00 25   ."...+.........%
0030  7f f3 e1 ff fb                                    .....
Decompressed 6LoWPAN IPHC (40 bytes):
0000  60 3d 1c 00 00 00 3b 40 00 e5 03 01 21 00 00 c3   `=....;@....!...
0010  29 10 00 00 00 00 00 00 00 00 00 22 01 00 00 2b   ).........."...+
0020  01 00 00 01 00 00 00 01                           ........

No.     Time           Source                Destination           Protocol Length Info
    407 16.623736                                                  IEEE 802.15.4 5      Ack

Frame 407: 5 bytes on wire (40 bits), 5 bytes captured (40 bits)
    Encapsulation type: IEEE 802.15.4 Wireless PAN (104)
    Arrival Time: Mar  3, 2023 16:19:12.675199000 CST
    [Time shift for this packet: 0.000000000 seconds]
    Epoch Time: 1677881952.675199000 seconds
    [Time delta from previous captured frame: 0.000517000 seconds]
    [Time delta from previous displayed frame: 0.000517000 seconds]
    [Time since reference or first frame: 16.623736000 seconds]
    Frame Number: 407
    Frame Length: 5 bytes (40 bits)
    Capture Length: 5 bytes (40 bits)
    [Frame is marked: False]
    [Frame is ignored: False]
    [Protocols in frame: wpan]
IEEE 802.15.4 Ack, Sequence Number: 60
    Frame Control Field: 0x0002, Frame Type: Ack, Destination Addressing Mode: None, Frame Version: IEEE Std 802.15.4-2003, Source Addressing Mode: None
        .... .... .... .010 = Frame Type: Ack (0x2)
        .... .... .... 0... = Security Enabled: False
        .... .... ...0 .... = Frame Pending: False
        .... .... ..0. .... = Acknowledge Request: False
        .... .... .0.. .... = PAN ID Compression: False
        .... .... 0... .... = Reserved: False
        .... ...0 .... .... = Sequence Number Suppression: False
        .... ..0. .... .... = Information Elements Present: False
        .... 00.. .... .... = Destination Addressing Mode: None (0x0)
        ..00 .... .... .... = Frame Version: IEEE Std 802.15.4-2003 (0)
        00.. .... .... .... = Source Addressing Mode: None (0x0)
    Sequence Number: 60
    FCS: 0x4e57 (Correct)
    [Ack To: 406]
    [Ack Time: 0.517 ms]

0000  02 00 3c 57 4e                                    ..<WN

No.     Time           Source                Destination           Protocol Length Info
    408 16.633562      e6:301:fd00:6:454b:4632:2049:4d55 3120:696e:6974:6961:6c20:7961:7720:616c IPv6     66     IPv6 no next header

Frame 408: 66 bytes on wire (528 bits), 66 bytes captured (528 bits)
    Encapsulation type: IEEE 802.15.4 Wireless PAN (104)
    Arrival Time: Mar  3, 2023 16:19:12.685025000 CST
    [Time shift for this packet: 0.000000000 seconds]
    Epoch Time: 1677881952.685025000 seconds
    [Time delta from previous captured frame: 0.009826000 seconds]
    [Time delta from previous displayed frame: 0.009826000 seconds]
    [Time since reference or first frame: 16.633562000 seconds]
    Frame Number: 408
    Frame Length: 66 bytes (528 bits)
    Capture Length: 66 bytes (528 bits)
    [Frame is marked: False]
    [Frame is ignored: False]
    [Protocols in frame: wpan:6lowpan:ipv6]
IEEE 802.15.4 Data, Dst: 0x0203, Src: 0x0103
    Frame Control Field: 0x8861, Frame Type: Data, Acknowledge Request, PAN ID Compression, Destination Addressing Mode: Short/16-bit, Frame Version: IEEE Std 802.15.4-2003, Source Addressing Mode: Short/16-bit
        .... .... .... .001 = Frame Type: Data (0x1)
        .... .... .... 0... = Security Enabled: False
        .... .... ...0 .... = Frame Pending: False
        .... .... ..1. .... = Acknowledge Request: True
        .... .... .1.. .... = PAN ID Compression: True
        .... .... 0... .... = Reserved: False
        .... ...0 .... .... = Sequence Number Suppression: False
        .... ..0. .... .... = Information Elements Present: False
        .... 10.. .... .... = Destination Addressing Mode: Short/16-bit (0x2)
        ..00 .... .... .... = Frame Version: IEEE Std 802.15.4-2003 (0)
        10.. .... .... .... = Source Addressing Mode: Short/16-bit (0x2)
    Sequence Number: 61
    Destination PAN: 0x3332
    Destination: 0x0203
    Source: 0x0103
    FCS: 0xb777 (Correct)
    [Ack In: 409]
6LoWPAN, Src: e6:301:fd00:6:454b:4632:2049:4d55 (e6:301:fd00:6:454b:4632:2049:4d55), Dest: 3120:696e:6974:6961:6c20:7961:7720:616c (3120:696e:6974:6961:6c20:7961:7720:616c)
    IPHC Header
        011. .... = Pattern: IP header compression (0x03)
        ...0 1... .... .... = Traffic class and flow label: ECN and flow label inline (0x1)
        .... .1.. .... .... = Next header: Compressed
        .... ..11 .... .... = Hop limit: 255 (0x3)
        .... .... 0... .... = Context identifier extension: False
        .... .... .0.. .... = Source address compression: Stateless
        .... .... ..00 .... = Source address mode: Inline (0x0000)
        .... .... .... 0... = Multicast address compression: False
        .... .... .... .0.. = Destination address compression: Stateless
        .... .... .... ..00 = Destination address mode: Inline (0x0000)
    11.. .... = ECN: 3
    [Traffic class: 0x03]
    ..11 .... = Padding: 0x03
    .... 1101  0010 1001  0000 0000 = Flow label: 0x0d2900
    Source: e6:301:fd00:6:454b:4632:2049:4d55 (e6:301:fd00:6:454b:4632:2049:4d55)
    Destination: 3120:696e:6974:6961:6c20:7961:7720:616c (3120:696e:6974:6961:6c20:7961:7720:616c)
Internet Protocol Version 6, Src: e6:301:fd00:6:454b:4632:2049:4d55 (e6:301:fd00:6:454b:4632:2049:4d55), Dst: 3120:696e:6974:6961:6c20:7961:7720:616c (3120:696e:6974:6961:6c20:7961:7720:616c)
    0110 .... = Version: 6
    .... 0000 0011 .... .... .... .... .... = Traffic Class: 0x03 (DSCP: CS0, ECN: CE)
        .... 0000 00.. .... .... .... .... .... = Differentiated Services Codepoint: Default (0)
        .... .... ..11 .... .... .... .... .... = Explicit Congestion Notification: Congestion Experienced (3)
    .... .... .... 1101 0010 1001 0000 0000 = Flow Label: 0xd2900
    Payload Length: 0
    Next Header: No Next Header for IPv6 (59)
    Hop Limit: 255
    Source: e6:301:fd00:6:454b:4632:2049:4d55 (e6:301:fd00:6:454b:4632:2049:4d55)
    Destination: 3120:696e:6974:6961:6c20:7961:7720:616c (3120:696e:6974:6961:6c20:7961:7720:616c)

Frame (66 bytes):
0000  61 88 3d 32 33 03 02 03 01 6f 00 fd 29 00 00 e6   a.=23....o..)...
0010  03 01 fd 00 00 06 45 4b 46 32 20 49 4d 55 31 20   ......EKF2 IMU1 
0020  69 6e 69 74 69 61 6c 20 79 61 77 20 61 6c 69 67   initial yaw alig
0030  6e 6d 65 6e 74 20 63 6f 6d 70 6c 65 74 65 39 fd   nment complete9.
0040  77 b7                                             w.
Decompressed 6LoWPAN IPHC (40 bytes):
0000  60 3d 29 00 00 00 3b ff 00 e6 03 01 fd 00 00 06   `=)...;.........
0010  45 4b 46 32 20 49 4d 55 31 20 69 6e 69 74 69 61   EKF2 IMU1 initia
0020  6c 20 79 61 77 20 61 6c                           l yaw al

No.     Time           Source                Destination           Protocol Length Info
    409 16.634107                                                  IEEE 802.15.4 5      Ack

Frame 409: 5 bytes on wire (40 bits), 5 bytes captured (40 bits)
    Encapsulation type: IEEE 802.15.4 Wireless PAN (104)
    Arrival Time: Mar  3, 2023 16:19:12.685570000 CST
    [Time shift for this packet: 0.000000000 seconds]
    Epoch Time: 1677881952.685570000 seconds
    [Time delta from previous captured frame: 0.000545000 seconds]
    [Time delta from previous displayed frame: 0.000545000 seconds]
    [Time since reference or first frame: 16.634107000 seconds]
    Frame Number: 409
    Frame Length: 5 bytes (40 bits)
    Capture Length: 5 bytes (40 bits)
    [Frame is marked: False]
    [Frame is ignored: False]
    [Protocols in frame: wpan]
IEEE 802.15.4 Ack, Sequence Number: 61
    Frame Control Field: 0x0002, Frame Type: Ack, Destination Addressing Mode: None, Frame Version: IEEE Std 802.15.4-2003, Source Addressing Mode: None
        .... .... .... .010 = Frame Type: Ack (0x2)
        .... .... .... 0... = Security Enabled: False
        .... .... ...0 .... = Frame Pending: False
        .... .... ..0. .... = Acknowledge Request: False
        .... .... .0.. .... = PAN ID Compression: False
        .... .... 0... .... = Reserved: False
        .... ...0 .... .... = Sequence Number Suppression: False
        .... ..0. .... .... = Information Elements Present: False
        .... 00.. .... .... = Destination Addressing Mode: None (0x0)
        ..00 .... .... .... = Frame Version: IEEE Std 802.15.4-2003 (0)
        00.. .... .... .... = Source Addressing Mode: None (0x0)
    Sequence Number: 61
    FCS: 0x5fde (Correct)
    [Ack To: 408]
    [Ack Time: 0.545 ms]

0000  02 00 3d de 5f                                    ..=._

No.     Time           Source                Destination           Protocol Length Info
    410 16.753709      e7:301:1e00:41:2a10:fe:c7a2:3dd1 e317:3b46:3d1a:bf00:593d:3aca:54ca:3918 IPv6     77     Unknown IP Protocol: IRT (28)

Frame 410: 77 bytes on wire (616 bits), 77 bytes captured (616 bits)
    Encapsulation type: IEEE 802.15.4 Wireless PAN (104)
    Arrival Time: Mar  3, 2023 16:19:12.805172000 CST
    [Time shift for this packet: 0.000000000 seconds]
    Epoch Time: 1677881952.805172000 seconds
    [Time delta from previous captured frame: 0.119602000 seconds]
    [Time delta from previous displayed frame: 0.119602000 seconds]
    [Time since reference or first frame: 16.753709000 seconds]
    Frame Number: 410
    Frame Length: 77 bytes (616 bits)
    Capture Length: 77 bytes (616 bits)
    [Frame is marked: False]
    [Frame is ignored: False]
    [Protocols in frame: wpan:6lowpan:ipv6:data]
IEEE 802.15.4 Data, Dst: 0x0203, Src: 0x0103
    Frame Control Field: 0x8861, Frame Type: Data, Acknowledge Request, PAN ID Compression, Destination Addressing Mode: Short/16-bit, Frame Version: IEEE Std 802.15.4-2003, Source Addressing Mode: Short/16-bit
        .... .... .... .001 = Frame Type: Data (0x1)
        .... .... .... 0... = Security Enabled: False
        .... .... ...0 .... = Frame Pending: False
        .... .... ..1. .... = Acknowledge Request: True
        .... .... .1.. .... = PAN ID Compression: True
        .... .... 0... .... = Reserved: False
        .... ...0 .... .... = Sequence Number Suppression: False
        .... ..0. .... .... = Information Elements Present: False
        .... 10.. .... .... = Destination Addressing Mode: Short/16-bit (0x2)
        ..00 .... .... .... = Frame Version: IEEE Std 802.15.4-2003 (0)
        10.. .... .... .... = Source Addressing Mode: Short/16-bit (0x2)
    Sequence Number: 62
    Destination PAN: 0x3332
    Destination: 0x0203
    Source: 0x0103
    FCS: 0xac4b (Correct)
    [Ack In: 411]
6LoWPAN, Src: e7:301:1e00:41:2a10:fe:c7a2:3dd1 (e7:301:1e00:41:2a10:fe:c7a2:3dd1), Dest: e317:3b46:3d1a:bf00:593d:3aca:54ca:3918 (e317:3b46:3d1a:bf00:593d:3aca:54ca:3918)
    IPHC Header
        011. .... = Pattern: IP header compression (0x03)
        ...1 0... .... .... = Traffic class and flow label: Traffic class inline (0x2)
        .... .0.. .... .... = Next header: Inline
        .... ..00 .... .... = Hop limit: Inline (0x0)
        .... .... 0... .... = Context identifier extension: False
        .... .... .0.. .... = Source address compression: Stateless
        .... .... ..00 .... = Source address mode: Inline (0x0000)
        .... .... .... 0... = Multicast address compression: False
        .... .... .... .0.. = Destination address compression: Stateless
        .... .... .... ..00 = Destination address mode: Inline (0x0000)
    11.. .... = ECN: 3
    ..11 1101 = DSCP: 61
    [Traffic class: 0xf7]
    Next header: IRT (0x1c)
    Hop limit: 0
    Source: e7:301:1e00:41:2a10:fe:c7a2:3dd1 (e7:301:1e00:41:2a10:fe:c7a2:3dd1)
    Destination: e317:3b46:3d1a:bf00:593d:3aca:54ca:3918 (e317:3b46:3d1a:bf00:593d:3aca:54ca:3918)
Internet Protocol Version 6, Src: e7:301:1e00:41:2a10:fe:c7a2:3dd1 (e7:301:1e00:41:2a10:fe:c7a2:3dd1), Dst: e317:3b46:3d1a:bf00:593d:3aca:54ca:3918 (e317:3b46:3d1a:bf00:593d:3aca:54ca:3918)
    0110 .... = Version: 6
    .... 1111 0111 .... .... .... .... .... = Traffic Class: 0xf7 (DSCP: Unknown, ECN: CE)
        .... 1111 01.. .... .... .... .... .... = Differentiated Services Codepoint: Unknown (61)
        .... .... ..11 .... .... .... .... .... = Explicit Congestion Notification: Congestion Experienced (3)
    .... .... .... 0000 0000 0000 0000 0000 = Flow Label: 0x00000
    Payload Length: 29
    Next Header: IRT (28)
    Hop Limit: 0
    Source: e7:301:1e00:41:2a10:fe:c7a2:3dd1 (e7:301:1e00:41:2a10:fe:c7a2:3dd1)
    Destination: e317:3b46:3d1a:bf00:593d:3aca:54ca:3918 (e317:3b46:3d1a:bf00:593d:3aca:54ca:3918)
Data (29 bytes)
    Data: b1793be937fd1c0000e80301210000412a10000000000000
    [Length: 29]

Frame (77 bytes):
0000  61 88 3e 32 33 03 02 03 01 70 00 fd 1c 00 00 e7   a.>23....p......
0010  03 01 1e 00 00 41 2a 10 00 fe c7 a2 3d d1 e3 17   .....A*.....=...
0020  3b 46 3d 1a bf 00 59 3d 3a ca 54 ca 39 18 b1 79   ;F=...Y=:.T.9..y
0030  3b e9 37 fd 1c 00 00 e8 03 01 21 00 00 41 2a 10   ;.7.......!..A*.
0040  00 00 00 00 00 00 00 00 00 ea 01 4b ac            ...........K.
Decompressed 6LoWPAN IPHC (69 bytes):
0000  6f 70 00 00 00 1d 1c 00 00 e7 03 01 1e 00 00 41   op.............A
0010  2a 10 00 fe c7 a2 3d d1 e3 17 3b 46 3d 1a bf 00   *.....=...;F=...
0020  59 3d 3a ca 54 ca 39 18 b1 79 3b e9 37 fd 1c 00   Y=:.T.9..y;.7...
0030  00 e8 03 01 21 00 00 41 2a 10 00 00 00 00 00 00   ....!..A*.......
0040  00 00 00 ea 01                                    .....

No.     Time           Source                Destination           Protocol Length Info
    411 16.754219                                                  IEEE 802.15.4 5      Ack

Frame 411: 5 bytes on wire (40 bits), 5 bytes captured (40 bits)
    Encapsulation type: IEEE 802.15.4 Wireless PAN (104)
    Arrival Time: Mar  3, 2023 16:19:12.805682000 CST
    [Time shift for this packet: 0.000000000 seconds]
    Epoch Time: 1677881952.805682000 seconds
    [Time delta from previous captured frame: 0.000510000 seconds]
    [Time delta from previous displayed frame: 0.000510000 seconds]
    [Time since reference or first frame: 16.754219000 seconds]
    Frame Number: 411
    Frame Length: 5 bytes (40 bits)
    Capture Length: 5 bytes (40 bits)
    [Frame is marked: False]
    [Frame is ignored: False]
    [Protocols in frame: wpan]
IEEE 802.15.4 Ack, Sequence Number: 62
    Frame Control Field: 0x0002, Frame Type: Ack, Destination Addressing Mode: None, Frame Version: IEEE Std 802.15.4-2003, Source Addressing Mode: None
        .... .... .... .010 = Frame Type: Ack (0x2)
        .... .... .... 0... = Security Enabled: False
        .... .... ...0 .... = Frame Pending: False
        .... .... ..0. .... = Acknowledge Request: False
        .... .... .0.. .... = PAN ID Compression: False
        .... .... 0... .... = Reserved: False
        .... ...0 .... .... = Sequence Number Suppression: False
        .... ..0. .... .... = Information Elements Present: False
        .... 00.. .... .... = Destination Addressing Mode: None (0x0)
        ..00 .... .... .... = Frame Version: IEEE Std 802.15.4-2003 (0)
        00.. .... .... .... = Source Addressing Mode: None (0x0)
    Sequence Number: 62
    FCS: 0x6d45 (Correct)
    [Ack To: 410]
    [Ack Time: 0.510 ms]

0000  02 00 3e 45 6d                                    ..>Em

No.     Time           Source                Destination           Protocol Length Info
    412 16.757880      0x0103                0x0203                6LoWPAN  29     Data, Dst: 0x0203, Src: 0x0103[Malformed Packet]

Frame 412: 29 bytes on wire (232 bits), 29 bytes captured (232 bits)
    Encapsulation type: IEEE 802.15.4 Wireless PAN (104)
    Arrival Time: Mar  3, 2023 16:19:12.809343000 CST
    [Time shift for this packet: 0.000000000 seconds]
    Epoch Time: 1677881952.809343000 seconds
    [Time delta from previous captured frame: 0.003661000 seconds]
    [Time delta from previous displayed frame: 0.003661000 seconds]
    [Time since reference or first frame: 16.757880000 seconds]
    Frame Number: 412
    Frame Length: 29 bytes (232 bits)
    Capture Length: 29 bytes (232 bits)
    [Frame is marked: False]
    [Frame is ignored: False]
    [Protocols in frame: wpan:6lowpan]
IEEE 802.15.4 Data, Dst: 0x0203, Src: 0x0103
    Frame Control Field: 0x8861, Frame Type: Data, Acknowledge Request, PAN ID Compression, Destination Addressing Mode: Short/16-bit, Frame Version: IEEE Std 802.15.4-2003, Source Addressing Mode: Short/16-bit
        .... .... .... .001 = Frame Type: Data (0x1)
        .... .... .... 0... = Security Enabled: False
        .... .... ...0 .... = Frame Pending: False
        .... .... ..1. .... = Acknowledge Request: True
        .... .... .1.. .... = PAN ID Compression: True
        .... .... 0... .... = Reserved: False
        .... ...0 .... .... = Sequence Number Suppression: False
        .... ..0. .... .... = Information Elements Present: False
        .... 10.. .... .... = Destination Addressing Mode: Short/16-bit (0x2)
        ..00 .... .... .... = Frame Version: IEEE Std 802.15.4-2003 (0)
        10.. .... .... .... = Source Addressing Mode: Short/16-bit (0x2)
    Sequence Number: 63
    Destination PAN: 0x3332
    Destination: 0x0203
    Source: 0x0103
    FCS: 0x95f8 (Correct)
    [Ack In: 413]
6LoWPAN
    IPHC Header
        011. .... = Pattern: IP header compression (0x03)
        ...1 0... .... .... = Traffic class and flow label: Traffic class inline (0x2)
        .... .0.. .... .... = Next header: Inline
        .... ..01 .... .... = Hop limit: 1 (0x1)
        .... .... 0... .... = Context identifier extension: False
        .... .... .0.. .... = Source address compression: Stateless
        .... .... ..00 .... = Source address mode: Inline (0x0000)
        .... .... .... 0... = Multicast address compression: False
        .... .... .... .0.. = Destination address compression: Stateless
        .... .... .... ..00 = Destination address mode: Inline (0x0000)
    00.. .... = ECN: 0
    ..00 0000 = DSCP: 0
    Next header: IPv6 Hop-by-Hop Option (0x00)
[Malformed Packet: 6LoWPAN]
    [Expert Info (Error/Malformed): Malformed Packet (Exception occurred)]
        [Malformed Packet (Exception occurred)]
        [Severity level: Error]
        [Group: Malformed]

0000  61 88 3f 32 33 03 02 03 01 71 00 00 00 eb 01 00   a.?23....q......
0010  00 01 00 00 00 01 00 24 7f 72 6d f8 95            .......$.rm..

No.     Time           Source                Destination           Protocol Length Info
    413 16.758409                                                  IEEE 802.15.4 5      Ack

Frame 413: 5 bytes on wire (40 bits), 5 bytes captured (40 bits)
    Encapsulation type: IEEE 802.15.4 Wireless PAN (104)
    Arrival Time: Mar  3, 2023 16:19:12.809872000 CST
    [Time shift for this packet: 0.000000000 seconds]
    Epoch Time: 1677881952.809872000 seconds
    [Time delta from previous captured frame: 0.000529000 seconds]
    [Time delta from previous displayed frame: 0.000529000 seconds]
    [Time since reference or first frame: 16.758409000 seconds]
    Frame Number: 413
    Frame Length: 5 bytes (40 bits)
    Capture Length: 5 bytes (40 bits)
    [Frame is marked: False]
    [Frame is ignored: False]
    [Protocols in frame: wpan]
IEEE 802.15.4 Ack, Sequence Number: 63
    Frame Control Field: 0x0002, Frame Type: Ack, Destination Addressing Mode: None, Frame Version: IEEE Std 802.15.4-2003, Source Addressing Mode: None
        .... .... .... .010 = Frame Type: Ack (0x2)
        .... .... .... 0... = Security Enabled: False
        .... .... ...0 .... = Frame Pending: False
        .... .... ..0. .... = Acknowledge Request: False
        .... .... .0.. .... = PAN ID Compression: False
        .... .... 0... .... = Reserved: False
        .... ...0 .... .... = Sequence Number Suppression: False
        .... ..0. .... .... = Information Elements Present: False
        .... 00.. .... .... = Destination Addressing Mode: None (0x0)
        ..00 .... .... .... = Frame Version: IEEE Std 802.15.4-2003 (0)
        00.. .... .... .... = Source Addressing Mode: None (0x0)
    Sequence Number: 63
    FCS: 0x7ccc (Correct)
    [Ack To: 412]
    [Ack Time: 0.529 ms]

0000  02 00 3f cc 7c                                    ..?.|

No.     Time           Source                Destination           Protocol Length Info
    414 16.822606      0x0203                0x0103                IEEE 802.15.4 34     Data, Dst: 0x0103, Src: 0x0203

Frame 414: 34 bytes on wire (272 bits), 34 bytes captured (272 bits)
    Encapsulation type: IEEE 802.15.4 Wireless PAN (104)
    Arrival Time: Mar  3, 2023 16:19:12.874069000 CST
    [Time shift for this packet: 0.000000000 seconds]
    Epoch Time: 1677881952.874069000 seconds
    [Time delta from previous captured frame: 0.064197000 seconds]
    [Time delta from previous displayed frame: 0.064197000 seconds]
    [Time since reference or first frame: 16.822606000 seconds]
    Frame Number: 414
    Frame Length: 34 bytes (272 bits)
    Capture Length: 34 bytes (272 bits)
    [Frame is marked: False]
    [Frame is ignored: False]
    [Protocols in frame: wpan:data]
IEEE 802.15.4 Data, Dst: 0x0103, Src: 0x0203
    Frame Control Field: 0x8861, Frame Type: Data, Acknowledge Request, PAN ID Compression, Destination Addressing Mode: Short/16-bit, Frame Version: IEEE Std 802.15.4-2003, Source Addressing Mode: Short/16-bit
        .... .... .... .001 = Frame Type: Data (0x1)
        .... .... .... 0... = Security Enabled: False
        .... .... ...0 .... = Frame Pending: False
        .... .... ..1. .... = Acknowledge Request: True
        .... .... .1.. .... = PAN ID Compression: True
        .... .... 0... .... = Reserved: False
        .... ...0 .... .... = Sequence Number Suppression: False
        .... ..0. .... .... = Information Elements Present: False
        .... 10.. .... .... = Destination Addressing Mode: Short/16-bit (0x2)
        ..00 .... .... .... = Frame Version: IEEE Std 802.15.4-2003 (0)
        10.. .... .... .... = Source Addressing Mode: Short/16-bit (0x2)
    Sequence Number: 225
    Destination PAN: 0x3332
    Destination: 0x0103
    Source: 0x0203
    FCS: 0xe7ef (Correct)
    [Ack In: 415]
Data (23 bytes)
    Data: 1500fd09000011ffbe000000000000000608c004037c5c
    [Length: 23]

0000  61 88 e1 32 33 03 01 03 02 15 00 fd 09 00 00 11   a..23...........
0010  ff be 00 00 00 00 00 00 00 06 08 c0 04 03 7c 5c   ..............|\
0020  ef e7                                             ..

No.     Time           Source                Destination           Protocol Length Info
    415 16.823055                                                  IEEE 802.15.4 5      Ack

Frame 415: 5 bytes on wire (40 bits), 5 bytes captured (40 bits)
    Encapsulation type: IEEE 802.15.4 Wireless PAN (104)
    Arrival Time: Mar  3, 2023 16:19:12.874518000 CST
    [Time shift for this packet: 0.000000000 seconds]
    Epoch Time: 1677881952.874518000 seconds
    [Time delta from previous captured frame: 0.000449000 seconds]
    [Time delta from previous displayed frame: 0.000449000 seconds]
    [Time since reference or first frame: 16.823055000 seconds]
    Frame Number: 415
    Frame Length: 5 bytes (40 bits)
    Capture Length: 5 bytes (40 bits)
    [Frame is marked: False]
    [Frame is ignored: False]
    [Protocols in frame: wpan]
IEEE 802.15.4 Ack, Sequence Number: 225
    Frame Control Field: 0x0002, Frame Type: Ack, Destination Addressing Mode: None, Frame Version: IEEE Std 802.15.4-2003, Source Addressing Mode: None
        .... .... .... .010 = Frame Type: Ack (0x2)
        .... .... .... 0... = Security Enabled: False
        .... .... ...0 .... = Frame Pending: False
        .... .... ..0. .... = Acknowledge Request: False
        .... .... .0.. .... = PAN ID Compression: False
        .... .... 0... .... = Reserved: False
        .... ...0 .... .... = Sequence Number Suppression: False
        .... ..0. .... .... = Information Elements Present: False
        .... 00.. .... .... = Destination Addressing Mode: None (0x0)
        ..00 .... .... .... = Frame Version: IEEE Std 802.15.4-2003 (0)
        00.. .... .... .... = Source Addressing Mode: None (0x0)
    Sequence Number: 225
    FCS: 0x433f (Correct)
    [Ack To: 414]
    [Ack Time: 0.449 ms]

0000  02 00 e1 3f 43                                    ...?C

No.     Time           Source                Destination           Protocol Length Info
    416 16.872589      0:e903:121:0:bd2a:1000:: ::8601:0:8b01:0:100:0 IPv6     53     Unknown IP Protocol: IRT (28)

Frame 416: 53 bytes on wire (424 bits), 53 bytes captured (424 bits)
    Encapsulation type: IEEE 802.15.4 Wireless PAN (104)
    Arrival Time: Mar  3, 2023 16:19:12.924052000 CST
    [Time shift for this packet: 0.000000000 seconds]
    Epoch Time: 1677881952.924052000 seconds
    [Time delta from previous captured frame: 0.049534000 seconds]
    [Time delta from previous displayed frame: 0.049534000 seconds]
    [Time since reference or first frame: 16.872589000 seconds]
    Frame Number: 416
    Frame Length: 53 bytes (424 bits)
    Capture Length: 53 bytes (424 bits)
    [Frame is marked: False]
    [Frame is ignored: False]
    [Protocols in frame: wpan:6lowpan:ipv6:data]
IEEE 802.15.4 Data, Dst: 0x0203, Src: 0x0103
    Frame Control Field: 0x8861, Frame Type: Data, Acknowledge Request, PAN ID Compression, Destination Addressing Mode: Short/16-bit, Frame Version: IEEE Std 802.15.4-2003, Source Addressing Mode: Short/16-bit
        .... .... .... .001 = Frame Type: Data (0x1)
        .... .... .... 0... = Security Enabled: False
        .... .... ...0 .... = Frame Pending: False
        .... .... ..1. .... = Acknowledge Request: True
        .... .... .1.. .... = PAN ID Compression: True
        .... .... 0... .... = Reserved: False
        .... ...0 .... .... = Sequence Number Suppression: False
        .... ..0. .... .... = Information Elements Present: False
        .... 10.. .... .... = Destination Addressing Mode: Short/16-bit (0x2)
        ..00 .... .... .... = Frame Version: IEEE Std 802.15.4-2003 (0)
        10.. .... .... .... = Source Addressing Mode: Short/16-bit (0x2)
    Sequence Number: 64
    Destination PAN: 0x3332
    Destination: 0x0203
    Source: 0x0103
    FCS: 0x7bc7 (Correct)
    [Ack In: 417]
6LoWPAN, Src: 0:e903:121:0:bd2a:1000:: (0:e903:121:0:bd2a:1000::), Dest: ::8601:0:8b01:0:100:0 (::8601:0:8b01:0:100:0)
    IPHC Header
        011. .... = Pattern: IP header compression (0x03)
        ...1 0... .... .... = Traffic class and flow label: Traffic class inline (0x2)
        .... .0.. .... .... = Next header: Inline
        .... ..10 .... .... = Hop limit: 64 (0x2)
        .... .... 0... .... = Context identifier extension: False
        .... .... .0.. .... = Source address compression: Stateless
        .... .... ..00 .... = Source address mode: Inline (0x0000)
        .... .... .... 0... = Multicast address compression: False
        .... .... .... .0.. = Destination address compression: Stateless
        .... .... .... ..00 = Destination address mode: Inline (0x0000)
    11.. .... = ECN: 3
    ..11 1101 = DSCP: 61
    [Traffic class: 0xf7]
    Next header: IRT (0x1c)
    Source: 0:e903:121:0:bd2a:1000:: (0:e903:121:0:bd2a:1000::)
    Destination: ::8601:0:8b01:0:100:0 (::8601:0:8b01:0:100:0)
Internet Protocol Version 6, Src: 0:e903:121:0:bd2a:1000:: (0:e903:121:0:bd2a:1000::), Dst: ::8601:0:8b01:0:100:0 (::8601:0:8b01:0:100:0)
    0110 .... = Version: 6
    .... 1111 0111 .... .... .... .... .... = Traffic Class: 0xf7 (DSCP: Unknown, ECN: CE)
        .... 1111 01.. .... .... .... .... .... = Differentiated Services Codepoint: Unknown (61)
        .... .... ..11 .... .... .... .... .... = Explicit Congestion Notification: Congestion Experienced (3)
    .... .... .... 0000 0000 0000 0000 0000 = Flow Label: 0x00000
    Payload Length: 6
    Next Header: IRT (28)
    Hop Limit: 64
    Source: 0:e903:121:0:bd2a:1000:: (0:e903:121:0:bd2a:1000::)
    Destination: ::8601:0:8b01:0:100:0 (::8601:0:8b01:0:100:0)
Data (6 bytes)
    Data: 0100247f10ad
    [Length: 6]

Frame (53 bytes):
0000  61 88 40 32 33 03 02 03 01 72 00 fd 1c 00 00 e9   a.@23....r......
0010  03 01 21 00 00 bd 2a 10 00 00 00 00 00 00 00 00   ..!...*.........
0020  00 86 01 00 00 8b 01 00 00 01 00 00 00 01 00 24   ...............$
0030  7f 10 ad c7 7b                                    ....{
Decompressed 6LoWPAN IPHC (46 bytes):
0000  6f 70 00 00 00 06 1c 40 00 00 e9 03 01 21 00 00   op.....@.....!..
0010  bd 2a 10 00 00 00 00 00 00 00 00 00 86 01 00 00   .*..............
0020  8b 01 00 00 01 00 00 00 01 00 24 7f 10 ad         ..........$...

No.     Time           Source                Destination           Protocol Length Info
    417 16.873110                                                  IEEE 802.15.4 5      Ack

Frame 417: 5 bytes on wire (40 bits), 5 bytes captured (40 bits)
    Encapsulation type: IEEE 802.15.4 Wireless PAN (104)
    Arrival Time: Mar  3, 2023 16:19:12.924573000 CST
    [Time shift for this packet: 0.000000000 seconds]
    Epoch Time: 1677881952.924573000 seconds
    [Time delta from previous captured frame: 0.000521000 seconds]
    [Time delta from previous displayed frame: 0.000521000 seconds]
    [Time since reference or first frame: 16.873110000 seconds]
    Frame Number: 417
    Frame Length: 5 bytes (40 bits)
    Capture Length: 5 bytes (40 bits)
    [Frame is marked: False]
    [Frame is ignored: False]
    [Protocols in frame: wpan]
IEEE 802.15.4 Ack, Sequence Number: 64
    Frame Control Field: 0x0002, Frame Type: Ack, Destination Addressing Mode: None, Frame Version: IEEE Std 802.15.4-2003, Source Addressing Mode: None
        .... .... .... .010 = Frame Type: Ack (0x2)
        .... .... .... 0... = Security Enabled: False
        .... .... ...0 .... = Frame Pending: False
        .... .... ..0. .... = Acknowledge Request: False
        .... .... .0.. .... = PAN ID Compression: False
        .... .... 0... .... = Reserved: False
        .... ...0 .... .... = Sequence Number Suppression: False
        .... ..0. .... .... = Information Elements Present: False
        .... 00.. .... .... = Destination Addressing Mode: None (0x0)
        ..00 .... .... .... = Frame Version: IEEE Std 802.15.4-2003 (0)
        00.. .... .... .... = Source Addressing Mode: None (0x0)
    Sequence Number: 64
    FCS: 0xf7bc (Correct)
    [Ack To: 416]
    [Ack Time: 0.521 ms]

0000  02 00 40 bc f7                                    ..@..

No.     Time           Source                Destination           Protocol Length Info
    418 16.999681                                                  IEEE 802.15.4 5      Ack

Frame 418: 5 bytes on wire (40 bits), 5 bytes captured (40 bits)
    Encapsulation type: IEEE 802.15.4 Wireless PAN (104)
    Arrival Time: Mar  3, 2023 16:19:13.051144000 CST
    [Time shift for this packet: 0.000000000 seconds]
    Epoch Time: 1677881953.051144000 seconds
    [Time delta from previous captured frame: 0.126571000 seconds]
    [Time delta from previous displayed frame: 0.126571000 seconds]
    [Time since reference or first frame: 16.999681000 seconds]
    Frame Number: 418
    Frame Length: 5 bytes (40 bits)
    Capture Length: 5 bytes (40 bits)
    [Frame is marked: False]
    [Frame is ignored: False]
    [Protocols in frame: wpan]
IEEE 802.15.4 Ack, Sequence Number: 65
    Frame Control Field: 0x0002, Frame Type: Ack, Destination Addressing Mode: None, Frame Version: IEEE Std 802.15.4-2003, Source Addressing Mode: None
        .... .... .... .010 = Frame Type: Ack (0x2)
        .... .... .... 0... = Security Enabled: False
        .... .... ...0 .... = Frame Pending: False
        .... .... ..0. .... = Acknowledge Request: False
        .... .... .0.. .... = PAN ID Compression: False
        .... .... 0... .... = Reserved: False
        .... ...0 .... .... = Sequence Number Suppression: False
        .... ..0. .... .... = Information Elements Present: False
        .... 00.. .... .... = Destination Addressing Mode: None (0x0)
        ..00 .... .... .... = Frame Version: IEEE Std 802.15.4-2003 (0)
        00.. .... .... .... = Source Addressing Mode: None (0x0)
    Sequence Number: 65
    FCS: 0xe635 (Correct)
    [No ack request found]
        [Expert Info (Note/Sequence): No ack request found to ack in frame 418]
            [No ack request found to ack in frame 418]
            [Severity level: Note]
            [Group: Sequence]

0000  02 00 41 35 e6                                    ..A5.

No.     Time           Source                Destination           Protocol Length Info
    419 17.122874      0:eb03:121:0:b72b:1000:: ::7201:0:7a01:0:100:0 IPv6     53     IPv6 no next header

Frame 419: 53 bytes on wire (424 bits), 53 bytes captured (424 bits)
    Encapsulation type: IEEE 802.15.4 Wireless PAN (104)
    Arrival Time: Mar  3, 2023 16:19:13.174337000 CST
    [Time shift for this packet: 0.000000000 seconds]
    Epoch Time: 1677881953.174337000 seconds
    [Time delta from previous captured frame: 0.123193000 seconds]
    [Time delta from previous displayed frame: 0.123193000 seconds]
    [Time since reference or first frame: 17.122874000 seconds]
    Frame Number: 419
    Frame Length: 53 bytes (424 bits)
    Capture Length: 53 bytes (424 bits)
    [Frame is marked: False]
    [Frame is ignored: False]
    [Protocols in frame: wpan:6lowpan:ipv6]
IEEE 802.15.4 Data, Dst: 0x0203, Src: 0x0103
    Frame Control Field: 0x8861, Frame Type: Data, Acknowledge Request, PAN ID Compression, Destination Addressing Mode: Short/16-bit, Frame Version: IEEE Std 802.15.4-2003, Source Addressing Mode: Short/16-bit
        .... .... .... .001 = Frame Type: Data (0x1)
        .... .... .... 0... = Security Enabled: False
        .... .... ...0 .... = Frame Pending: False
        .... .... ..1. .... = Acknowledge Request: True
        .... .... .1.. .... = PAN ID Compression: True
        .... .... 0... .... = Reserved: False
        .... ...0 .... .... = Sequence Number Suppression: False
        .... ..0. .... .... = Information Elements Present: False
        .... 10.. .... .... = Destination Addressing Mode: Short/16-bit (0x2)
        ..00 .... .... .... = Frame Version: IEEE Std 802.15.4-2003 (0)
        10.. .... .... .... = Source Addressing Mode: Short/16-bit (0x2)
    Sequence Number: 66
    Destination PAN: 0x3332
    Destination: 0x0203
    Source: 0x0103
    FCS: 0xee7d (Correct)
    [Ack In: 420]
6LoWPAN, Src: 0:eb03:121:0:b72b:1000:: (0:eb03:121:0:b72b:1000::), Dest: ::7201:0:7a01:0:100:0 (::7201:0:7a01:0:100:0)
    IPHC Header
        011. .... = Pattern: IP header compression (0x03)
        ...1 0... .... .... = Traffic class and flow label: Traffic class inline (0x2)
        .... .1.. .... .... = Next header: Compressed
        .... ..00 .... .... = Hop limit: Inline (0x0)
        .... .... 0... .... = Context identifier extension: False
        .... .... .0.. .... = Source address compression: Stateless
        .... .... ..00 .... = Source address mode: Inline (0x0000)
        .... .... .... 0... = Multicast address compression: False
        .... .... .... .0.. = Destination address compression: Stateless
        .... .... .... ..00 = Destination address mode: Inline (0x0000)
    11.. .... = ECN: 3
    ..11 1101 = DSCP: 61
    [Traffic class: 0xf7]
    Hop limit: 28
    Source: 0:eb03:121:0:b72b:1000:: (0:eb03:121:0:b72b:1000::)
    Destination: ::7201:0:7a01:0:100:0 (::7201:0:7a01:0:100:0)
Internet Protocol Version 6, Src: 0:eb03:121:0:b72b:1000:: (0:eb03:121:0:b72b:1000::), Dst: ::7201:0:7a01:0:100:0 (::7201:0:7a01:0:100:0)
    0110 .... = Version: 6
    .... 1111 0111 .... .... .... .... .... = Traffic Class: 0xf7 (DSCP: Unknown, ECN: CE)
        .... 1111 01.. .... .... .... .... .... = Differentiated Services Codepoint: Unknown (61)
        .... .... ..11 .... .... .... .... .... = Explicit Congestion Notification: Congestion Experienced (3)
    .... .... .... 0000 0000 0000 0000 0000 = Flow Label: 0x00000
    Payload Length: 0
    Next Header: No Next Header for IPv6 (59)
    Hop Limit: 28
    Source: 0:eb03:121:0:b72b:1000:: (0:eb03:121:0:b72b:1000::)
    Destination: ::7201:0:7a01:0:100:0 (::7201:0:7a01:0:100:0)

Frame (53 bytes):
0000  61 88 42 32 33 03 02 03 01 74 00 fd 1c 00 00 eb   a.B23....t......
0010  03 01 21 00 00 b7 2b 10 00 00 00 00 00 00 00 00   ..!...+.........
0020  00 72 01 00 00 7a 01 00 00 01 00 00 00 01 00 23   .r...z.........#
0030  7f 48 8c 7d ee                                    .H.}.
Decompressed 6LoWPAN IPHC (40 bytes):
0000  6f 70 00 00 00 00 3b 1c 00 00 eb 03 01 21 00 00   op....;......!..
0010  b7 2b 10 00 00 00 00 00 00 00 00 00 72 01 00 00   .+..........r...
0020  7a 01 00 00 01 00 00 00                           z.......

No.     Time           Source                Destination           Protocol Length Info
    420 17.123419                                                  IEEE 802.15.4 5      Ack

Frame 420: 5 bytes on wire (40 bits), 5 bytes captured (40 bits)
    Encapsulation type: IEEE 802.15.4 Wireless PAN (104)
    Arrival Time: Mar  3, 2023 16:19:13.174882000 CST
    [Time shift for this packet: 0.000000000 seconds]
    Epoch Time: 1677881953.174882000 seconds
    [Time delta from previous captured frame: 0.000545000 seconds]
    [Time delta from previous displayed frame: 0.000545000 seconds]
    [Time since reference or first frame: 17.123419000 seconds]
    Frame Number: 420
    Frame Length: 5 bytes (40 bits)
    Capture Length: 5 bytes (40 bits)
    [Frame is marked: False]
    [Frame is ignored: False]
    [Protocols in frame: wpan]
IEEE 802.15.4 Ack, Sequence Number: 66
    Frame Control Field: 0x0002, Frame Type: Ack, Destination Addressing Mode: None, Frame Version: IEEE Std 802.15.4-2003, Source Addressing Mode: None
        .... .... .... .010 = Frame Type: Ack (0x2)
        .... .... .... 0... = Security Enabled: False
        .... .... ...0 .... = Frame Pending: False
        .... .... ..0. .... = Acknowledge Request: False
        .... .... .0.. .... = PAN ID Compression: False
        .... .... 0... .... = Reserved: False
        .... ...0 .... .... = Sequence Number Suppression: False
        .... ..0. .... .... = Information Elements Present: False
        .... 00.. .... .... = Destination Addressing Mode: None (0x0)
        ..00 .... .... .... = Frame Version: IEEE Std 802.15.4-2003 (0)
        00.. .... .... .... = Source Addressing Mode: None (0x0)
    Sequence Number: 66
    FCS: 0xd4ae (Correct)
    [Ack To: 419]
    [Ack Time: 0.545 ms]

0000  02 00 42 ae d4                                    ..B..

No.     Time           Source                Destination           Protocol Length Info
    421 17.263181      1f00:ec:301:100:f:fc60:130f:1c60 100f:9c50:1ee:100:ff:ff00:: IPv6     113    IPv6 no next header

Frame 421: 113 bytes on wire (904 bits), 113 bytes captured (904 bits)
    Encapsulation type: IEEE 802.15.4 Wireless PAN (104)
    Arrival Time: Mar  3, 2023 16:19:13.314644000 CST
    [Time shift for this packet: 0.000000000 seconds]
    Epoch Time: 1677881953.314644000 seconds
    [Time delta from previous captured frame: 0.139762000 seconds]
    [Time delta from previous displayed frame: 0.139762000 seconds]
    [Time since reference or first frame: 17.263181000 seconds]
    Frame Number: 421
    Frame Length: 113 bytes (904 bits)
    Capture Length: 113 bytes (904 bits)
    [Frame is marked: False]
    [Frame is ignored: False]
    [Protocols in frame: wpan:6lowpan:ipv6]
IEEE 802.15.4 Data, Dst: 0x0203, Src: 0x0103
    Frame Control Field: 0x8861, Frame Type: Data, Acknowledge Request, PAN ID Compression, Destination Addressing Mode: Short/16-bit, Frame Version: IEEE Std 802.15.4-2003, Source Addressing Mode: Short/16-bit
        .... .... .... .001 = Frame Type: Data (0x1)
        .... .... .... 0... = Security Enabled: False
        .... .... ...0 .... = Frame Pending: False
        .... .... ..1. .... = Acknowledge Request: True
        .... .... .1.. .... = PAN ID Compression: True
        .... .... 0... .... = Reserved: False
        .... ...0 .... .... = Sequence Number Suppression: False
        .... ..0. .... .... = Information Elements Present: False
        .... 10.. .... .... = Destination Addressing Mode: Short/16-bit (0x2)
        ..00 .... .... .... = Frame Version: IEEE Std 802.15.4-2003 (0)
        10.. .... .... .... = Source Addressing Mode: Short/16-bit (0x2)
    Sequence Number: 67
    Destination PAN: 0x3332
    Destination: 0x0203
    Source: 0x0103
    FCS: 0xafc5 (Correct)
    [Ack In: 422]
6LoWPAN, Src: 1f00:ec:301:100:f:fc60:130f:1c60 (1f00:ec:301:100:f:fc60:130f:1c60), Dest: 100f:9c50:1ee:100:ff:ff00:: (100f:9c50:1ee:100:ff:ff00::)
    IPHC Header
        011. .... = Pattern: IP header compression (0x03)
        ...1 0... .... .... = Traffic class and flow label: Traffic class inline (0x2)
        .... .1.. .... .... = Next header: Compressed
        .... ..01 .... .... = Hop limit: 1 (0x1)
        .... .... 0... .... = Context identifier extension: False
        .... .... .0.. .... = Source address compression: Stateless
        .... .... ..00 .... = Source address mode: Inline (0x0000)
        .... .... .... 0... = Multicast address compression: False
        .... .... .... .0.. = Destination address compression: Stateless
        .... .... .... ..00 = Destination address mode: Inline (0x0000)
    11.. .... = ECN: 3
    ..11 1101 = DSCP: 61
    [Traffic class: 0xf7]
    Source: 1f00:ec:301:100:f:fc60:130f:1c60 (1f00:ec:301:100:f:fc60:130f:1c60)
    Destination: 100f:9c50:1ee:100:ff:ff00:: (100f:9c50:1ee:100:ff:ff00::)
Internet Protocol Version 6, Src: 1f00:ec:301:100:f:fc60:130f:1c60 (1f00:ec:301:100:f:fc60:130f:1c60), Dst: 100f:9c50:1ee:100:ff:ff00:: (100f:9c50:1ee:100:ff:ff00::)
    0110 .... = Version: 6
    .... 1111 0111 .... .... .... .... .... = Traffic Class: 0xf7 (DSCP: Unknown, ECN: CE)
        .... 1111 01.. .... .... .... .... .... = Differentiated Services Codepoint: Unknown (61)
        .... .... ..11 .... .... .... .... .... = Explicit Congestion Notification: Congestion Experienced (3)
    .... .... .... 0000 0000 0000 0000 0000 = Flow Label: 0x00000
    Payload Length: 0
    Next Header: No Next Header for IPv6 (59)
    Hop Limit: 1
    Source: 1f00:ec:301:100:f:fc60:130f:1c60 (1f00:ec:301:100:f:fc60:130f:1c60)
    Destination: 100f:9c50:1ee:100:ff:ff00:: (100f:9c50:1ee:100:ff:ff00::)

Frame (113 bytes):
0000  61 88 43 32 33 03 02 03 01 75 00 fd 1f 00 00 ec   a.C23....u......
0010  03 01 01 00 00 0f fc 60 13 0f 1c 60 10 0f 9c 50   .......`...`...P
0020  01 ee 01 00 00 ff ff 00 00 00 00 00 00 00 00 00   ................
0030  00 00 00 ff 8e c0 fd 16 00 00 ed 03 01 c1 00 00   ................
0040  00 00 00 00 6a aa 5a 3b e4 fd 99 3c 1e b9 db 3d   ....j.Z;...<...=
0050  00 00 00 00 a5 01 95 63 fd 1c 00 00 ee 03 01 1e   .......c........
0060  00 00 39 2c 10 00 ca ce a2 3d 4c fd 1a 3b 94 c5   ..9,.....=L..;..
0070  af                                                .
Decompressed 6LoWPAN IPHC (40 bytes):
0000  6f 70 00 00 00 00 3b 01 1f 00 00 ec 03 01 01 00   op....;.........
0010  00 0f fc 60 13 0f 1c 60 10 0f 9c 50 01 ee 01 00   ...`...`...P....
0020  00 ff ff 00 00 00 00 00                           ........

No.     Time           Source                Destination           Protocol Length Info
    422 17.263695                                                  IEEE 802.15.4 5      Ack

Frame 422: 5 bytes on wire (40 bits), 5 bytes captured (40 bits)
    Encapsulation type: IEEE 802.15.4 Wireless PAN (104)
    Arrival Time: Mar  3, 2023 16:19:13.315158000 CST
    [Time shift for this packet: 0.000000000 seconds]
    Epoch Time: 1677881953.315158000 seconds
    [Time delta from previous captured frame: 0.000514000 seconds]
    [Time delta from previous displayed frame: 0.000514000 seconds]
    [Time since reference or first frame: 17.263695000 seconds]
    Frame Number: 422
    Frame Length: 5 bytes (40 bits)
    Capture Length: 5 bytes (40 bits)
    [Frame is marked: False]
    [Frame is ignored: False]
    [Protocols in frame: wpan]
IEEE 802.15.4 Ack, Sequence Number: 67
    Frame Control Field: 0x0002, Frame Type: Ack, Destination Addressing Mode: None, Frame Version: IEEE Std 802.15.4-2003, Source Addressing Mode: None
        .... .... .... .010 = Frame Type: Ack (0x2)
        .... .... .... 0... = Security Enabled: False
        .... .... ...0 .... = Frame Pending: False
        .... .... ..0. .... = Acknowledge Request: False
        .... .... .0.. .... = PAN ID Compression: False
        .... .... 0... .... = Reserved: False
        .... ...0 .... .... = Sequence Number Suppression: False
        .... ..0. .... .... = Information Elements Present: False
        .... 00.. .... .... = Destination Addressing Mode: None (0x0)
        ..00 .... .... .... = Frame Version: IEEE Std 802.15.4-2003 (0)
        00.. .... .... .... = Source Addressing Mode: None (0x0)
    Sequence Number: 67
    FCS: 0xc527 (Correct)
    [Ack To: 421]
    [Ack Time: 0.514 ms]

0000  02 00 43 27 c5                                    ..C'.

No.     Time           Source                Destination           Protocol Length Info
    423 17.271871      1abf:938a:91ba:bd31:43a:582c:933b:d22b fd1c:0:ef03:121:0:3f2c:1000:0 IPv6     70     IPv6 no next header

Frame 423: 70 bytes on wire (560 bits), 70 bytes captured (560 bits)
    Encapsulation type: IEEE 802.15.4 Wireless PAN (104)
    Arrival Time: Mar  3, 2023 16:19:13.323334000 CST
    [Time shift for this packet: 0.000000000 seconds]
    Epoch Time: 1677881953.323334000 seconds
    [Time delta from previous captured frame: 0.008176000 seconds]
    [Time delta from previous displayed frame: 0.008176000 seconds]
    [Time since reference or first frame: 17.271871000 seconds]
    Frame Number: 423
    Frame Length: 70 bytes (560 bits)
    Capture Length: 70 bytes (560 bits)
    [Frame is marked: False]
    [Frame is ignored: False]
    [Protocols in frame: wpan:6lowpan:ipv6]
IEEE 802.15.4 Data, Dst: 0x0203, Src: 0x0103
    Frame Control Field: 0x8861, Frame Type: Data, Acknowledge Request, PAN ID Compression, Destination Addressing Mode: Short/16-bit, Frame Version: IEEE Std 802.15.4-2003, Source Addressing Mode: Short/16-bit
        .... .... .... .001 = Frame Type: Data (0x1)
        .... .... .... 0... = Security Enabled: False
        .... .... ...0 .... = Frame Pending: False
        .... .... ..1. .... = Acknowledge Request: True
        .... .... .1.. .... = PAN ID Compression: True
        .... .... 0... .... = Reserved: False
        .... ...0 .... .... = Sequence Number Suppression: False
        .... ..0. .... .... = Information Elements Present: False
        .... 10.. .... .... = Destination Addressing Mode: Short/16-bit (0x2)
        ..00 .... .... .... = Frame Version: IEEE Std 802.15.4-2003 (0)
        10.. .... .... .... = Source Addressing Mode: Short/16-bit (0x2)
    Sequence Number: 68
    Destination PAN: 0x3332
    Destination: 0x0203
    Source: 0x0103
    FCS: 0x9e06 (Correct)
    [Ack In: 424]
6LoWPAN, Src: 1abf:938a:91ba:bd31:43a:582c:933b:d22b (1abf:938a:91ba:bd31:43a:582c:933b:d22b), Dest: fd1c:0:ef03:121:0:3f2c:1000:0 (fd1c:0:ef03:121:0:3f2c:1000:0)
    IPHC Header
        011. .... = Pattern: IP header compression (0x03)
        ...1 0... .... .... = Traffic class and flow label: Traffic class inline (0x2)
        .... .1.. .... .... = Next header: Compressed
        .... ..10 .... .... = Hop limit: 64 (0x2)
        .... .... 0... .... = Context identifier extension: False
        .... .... .0.. .... = Source address compression: Stateless
        .... .... ..00 .... = Source address mode: Inline (0x0000)
        .... .... .... 0... = Multicast address compression: False
        .... .... .... .0.. = Destination address compression: Stateless
        .... .... .... ..00 = Destination address mode: Inline (0x0000)
    01.. .... = ECN: 1
    ..01 0101 = DSCP: 21
    [Traffic class: 0x55]
    Source: 1abf:938a:91ba:bd31:43a:582c:933b:d22b (1abf:938a:91ba:bd31:43a:582c:933b:d22b)
    Destination: fd1c:0:ef03:121:0:3f2c:1000:0 (fd1c:0:ef03:121:0:3f2c:1000:0)
Internet Protocol Version 6, Src: 1abf:938a:91ba:bd31:43a:582c:933b:d22b (1abf:938a:91ba:bd31:43a:582c:933b:d22b), Dst: fd1c:0:ef03:121:0:3f2c:1000:0 (fd1c:0:ef03:121:0:3f2c:1000:0)
    0110 .... = Version: 6
    .... 0101 0101 .... .... .... .... .... = Traffic Class: 0x55 (DSCP: Unknown, ECN: ECT(1))
        .... 0101 01.. .... .... .... .... .... = Differentiated Services Codepoint: Unknown (21)
        .... .... ..01 .... .... .... .... .... = Explicit Congestion Notification: ECN-Capable Transport codepoint '01' (1)
    .... .... .... 0000 0000 0000 0000 0000 = Flow Label: 0x00000
    Payload Length: 0
    Next Header: No Next Header for IPv6 (59)
    Hop Limit: 64
    Source: 1abf:938a:91ba:bd31:43a:582c:933b:d22b (1abf:938a:91ba:bd31:43a:582c:933b:d22b)
    Destination: fd1c:0:ef03:121:0:3f2c:1000:0 (fd1c:0:ef03:121:0:3f2c:1000:0)

Frame (70 bytes):
0000  61 88 44 32 33 03 02 03 01 76 00 55 1a bf 93 8a   a.D23....v.U....
0010  91 ba bd 31 04 3a 58 2c 93 3b d2 2b fd 1c 00 00   ...1.:X,.;.+....
0020  ef 03 01 21 00 00 3f 2c 10 00 00 00 00 00 00 00   ...!..?,........
0030  00 00 22 01 00 00 25 01 00 00 01 00 00 00 01 00   .."...%.........
0040  22 7f 37 29 06 9e                                 ".7)..
Decompressed 6LoWPAN IPHC (40 bytes):
0000  65 50 00 00 00 00 3b 40 1a bf 93 8a 91 ba bd 31   eP....;@.......1
0010  04 3a 58 2c 93 3b d2 2b fd 1c 00 00 ef 03 01 21   .:X,.;.+.......!
0020  00 00 3f 2c 10 00 00 00                           ..?,....

No.     Time           Source                Destination           Protocol Length Info
    424 17.272412                                                  IEEE 802.15.4 5      Ack

Frame 424: 5 bytes on wire (40 bits), 5 bytes captured (40 bits)
    Encapsulation type: IEEE 802.15.4 Wireless PAN (104)
    Arrival Time: Mar  3, 2023 16:19:13.323875000 CST
    [Time shift for this packet: 0.000000000 seconds]
    Epoch Time: 1677881953.323875000 seconds
    [Time delta from previous captured frame: 0.000541000 seconds]
    [Time delta from previous displayed frame: 0.000541000 seconds]
    [Time since reference or first frame: 17.272412000 seconds]
    Frame Number: 424
    Frame Length: 5 bytes (40 bits)
    Capture Length: 5 bytes (40 bits)
    [Frame is marked: False]
    [Frame is ignored: False]
    [Protocols in frame: wpan]
IEEE 802.15.4 Ack, Sequence Number: 68
    Frame Control Field: 0x0002, Frame Type: Ack, Destination Addressing Mode: None, Frame Version: IEEE Std 802.15.4-2003, Source Addressing Mode: None
        .... .... .... .010 = Frame Type: Ack (0x2)
        .... .... .... 0... = Security Enabled: False
        .... .... ...0 .... = Frame Pending: False
        .... .... ..0. .... = Acknowledge Request: False
        .... .... .0.. .... = PAN ID Compression: False
        .... .... 0... .... = Reserved: False
        .... ...0 .... .... = Sequence Number Suppression: False
        .... ..0. .... .... = Information Elements Present: False
        .... 00.. .... .... = Destination Addressing Mode: None (0x0)
        ..00 .... .... .... = Frame Version: IEEE Std 802.15.4-2003 (0)
        00.. .... .... .... = Source Addressing Mode: None (0x0)
    Sequence Number: 68
    FCS: 0xb198 (Correct)
    [Ack To: 423]
    [Ack Time: 0.541 ms]

0000  02 00 44 98 b1                                    ..D..

No.     Time           Source                Destination           Protocol Length Info
    425 17.319074      0x0103                0x0203                6LoWPAN  34     Data, Dst: 0x0203, Src: 0x0103[Malformed Packet]

Frame 425: 34 bytes on wire (272 bits), 34 bytes captured (272 bits)
    Encapsulation type: IEEE 802.15.4 Wireless PAN (104)
    Arrival Time: Mar  3, 2023 16:19:13.370537000 CST
    [Time shift for this packet: 0.000000000 seconds]
    Epoch Time: 1677881953.370537000 seconds
    [Time delta from previous captured frame: 0.046662000 seconds]
    [Time delta from previous displayed frame: 0.046662000 seconds]
    [Time since reference or first frame: 17.319074000 seconds]
    Frame Number: 425
    Frame Length: 34 bytes (272 bits)
    Capture Length: 34 bytes (272 bits)
    [Frame is marked: False]
    [Frame is ignored: False]
    [Protocols in frame: wpan:6lowpan]
IEEE 802.15.4 Data, Dst: 0x0203, Src: 0x0103
    Frame Control Field: 0x8861, Frame Type: Data, Acknowledge Request, PAN ID Compression, Destination Addressing Mode: Short/16-bit, Frame Version: IEEE Std 802.15.4-2003, Source Addressing Mode: Short/16-bit
        .... .... .... .001 = Frame Type: Data (0x1)
        .... .... .... 0... = Security Enabled: False
        .... .... ...0 .... = Frame Pending: False
        .... .... ..1. .... = Acknowledge Request: True
        .... .... .1.. .... = PAN ID Compression: True
        .... .... 0... .... = Reserved: False
        .... ...0 .... .... = Sequence Number Suppression: False
        .... ..0. .... .... = Information Elements Present: False
        .... 10.. .... .... = Destination Addressing Mode: Short/16-bit (0x2)
        ..00 .... .... .... = Frame Version: IEEE Std 802.15.4-2003 (0)
        10.. .... .... .... = Source Addressing Mode: Short/16-bit (0x2)
    Sequence Number: 69
    Destination PAN: 0x3332
    Destination: 0x0203
    Source: 0x0103
    FCS: 0x164d (Correct)
    [Ack In: 426]
6LoWPAN, Src: 900:f0:301::2:351 (900:f0:301::2:351)
    IPHC Header
        011. .... = Pattern: IP header compression (0x03)
        ...1 0... .... .... = Traffic class and flow label: Traffic class inline (0x2)
        .... .1.. .... .... = Next header: Compressed
        .... ..11 .... .... = Hop limit: 255 (0x3)
        .... .... 0... .... = Context identifier extension: False
        .... .... .0.. .... = Source address compression: Stateless
        .... .... ..00 .... = Source address mode: Inline (0x0000)
        .... .... .... 0... = Multicast address compression: False
        .... .... .... .0.. = Destination address compression: Stateless
        .... .... .... ..00 = Destination address mode: Inline (0x0000)
    11.. .... = ECN: 3
    ..11 1101 = DSCP: 61
    [Traffic class: 0xf7]
    Source: 900:f0:301::2:351 (900:f0:301::2:351)
[Malformed Packet: 6LoWPAN]
    [Expert Info (Error/Malformed): Malformed Packet (Exception occurred)]
        [Malformed Packet (Exception occurred)]
        [Severity level: Error]
        [Group: Malformed]

0000  61 88 45 32 33 03 02 03 01 77 00 fd 09 00 00 f0   a.E23....w......
0010  03 01 00 00 00 00 00 00 00 02 03 51 03 03 28 5a   ...........Q..(Z
0020  4d 16                                             M.

No.     Time           Source                Destination           Protocol Length Info
    426 17.319599                                                  IEEE 802.15.4 5      Ack

Frame 426: 5 bytes on wire (40 bits), 5 bytes captured (40 bits)
    Encapsulation type: IEEE 802.15.4 Wireless PAN (104)
    Arrival Time: Mar  3, 2023 16:19:13.371062000 CST
    [Time shift for this packet: 0.000000000 seconds]
    Epoch Time: 1677881953.371062000 seconds
    [Time delta from previous captured frame: 0.000525000 seconds]
    [Time delta from previous displayed frame: 0.000525000 seconds]
    [Time since reference or first frame: 17.319599000 seconds]
    Frame Number: 426
    Frame Length: 5 bytes (40 bits)
    Capture Length: 5 bytes (40 bits)
    [Frame is marked: False]
    [Frame is ignored: False]
    [Protocols in frame: wpan]
IEEE 802.15.4 Ack, Sequence Number: 69
    Frame Control Field: 0x0002, Frame Type: Ack, Destination Addressing Mode: None, Frame Version: IEEE Std 802.15.4-2003, Source Addressing Mode: None
        .... .... .... .010 = Frame Type: Ack (0x2)
        .... .... .... 0... = Security Enabled: False
        .... .... ...0 .... = Frame Pending: False
        .... .... ..0. .... = Acknowledge Request: False
        .... .... .0.. .... = PAN ID Compression: False
        .... .... 0... .... = Reserved: False
        .... ...0 .... .... = Sequence Number Suppression: False
        .... ..0. .... .... = Information Elements Present: False
        .... 00.. .... .... = Destination Addressing Mode: None (0x0)
        ..00 .... .... .... = Frame Version: IEEE Std 802.15.4-2003 (0)
        00.. .... .... .... = Source Addressing Mode: None (0x0)
    Sequence Number: 69
    FCS: 0xa011 (Correct)
    [Ack To: 425]
    [Ack Time: 0.525 ms]

0000  02 00 45 11 a0                                    ..E..

No.     Time           Source                Destination           Protocol Length Info
    427 17.375916      0:f103:121:0:b42c:1000:: ::8601:0:8801:0:100:0 IPv6     53     Unknown IP Protocol: Unknown (253)

Frame 427: 53 bytes on wire (424 bits), 53 bytes captured (424 bits)
    Encapsulation type: IEEE 802.15.4 Wireless PAN (104)
    Arrival Time: Mar  3, 2023 16:19:13.427379000 CST
    [Time shift for this packet: 0.000000000 seconds]
    Epoch Time: 1677881953.427379000 seconds
    [Time delta from previous captured frame: 0.056317000 seconds]
    [Time delta from previous displayed frame: 0.056317000 seconds]
    [Time since reference or first frame: 17.375916000 seconds]
    Frame Number: 427
    Frame Length: 53 bytes (424 bits)
    Capture Length: 53 bytes (424 bits)
    [Frame is marked: False]
    [Frame is ignored: False]
    [Protocols in frame: wpan:6lowpan:ipv6:data]
IEEE 802.15.4 Data, Dst: 0x0203, Src: 0x0103
    Frame Control Field: 0x8861, Frame Type: Data, Acknowledge Request, PAN ID Compression, Destination Addressing Mode: Short/16-bit, Frame Version: IEEE Std 802.15.4-2003, Source Addressing Mode: Short/16-bit
        .... .... .... .001 = Frame Type: Data (0x1)
        .... .... .... 0... = Security Enabled: False
        .... .... ...0 .... = Frame Pending: False
        .... .... ..1. .... = Acknowledge Request: True
        .... .... .1.. .... = PAN ID Compression: True
        .... .... 0... .... = Reserved: False
        .... ...0 .... .... = Sequence Number Suppression: False
        .... ..0. .... .... = Information Elements Present: False
        .... 10.. .... .... = Destination Addressing Mode: Short/16-bit (0x2)
        ..00 .... .... .... = Frame Version: IEEE Std 802.15.4-2003 (0)
        10.. .... .... .... = Source Addressing Mode: Short/16-bit (0x2)
    Sequence Number: 70
    Destination PAN: 0x3332
    Destination: 0x0203
    Source: 0x0103
    FCS: 0x8ef2 (Correct)
    [Ack In: 428]
6LoWPAN, Src: 0:f103:121:0:b42c:1000:: (0:f103:121:0:b42c:1000::), Dest: ::8601:0:8801:0:100:0 (::8601:0:8801:0:100:0)
    IPHC Header
        011. .... = Pattern: IP header compression (0x03)
        ...1 1... .... .... = Traffic class and flow label: Version, traffic class, and flow label compressed (0x3)
        .... .0.. .... .... = Next header: Inline
        .... ..00 .... .... = Hop limit: Inline (0x0)
        .... .... 0... .... = Context identifier extension: False
        .... .... .0.. .... = Source address compression: Stateless
        .... .... ..00 .... = Source address mode: Inline (0x0000)
        .... .... .... 0... = Multicast address compression: False
        .... .... .... .0.. = Destination address compression: Stateless
        .... .... .... ..00 = Destination address mode: Inline (0x0000)
    Next header: Unknown (0xfd)
    Hop limit: 28
    Source: 0:f103:121:0:b42c:1000:: (0:f103:121:0:b42c:1000::)
    Destination: ::8601:0:8801:0:100:0 (::8601:0:8801:0:100:0)
Internet Protocol Version 6, Src: 0:f103:121:0:b42c:1000:: (0:f103:121:0:b42c:1000::), Dst: ::8601:0:8801:0:100:0 (::8601:0:8801:0:100:0)
    0110 .... = Version: 6
    .... 0000 0000 .... .... .... .... .... = Traffic Class: 0x00 (DSCP: CS0, ECN: Not-ECT)
        .... 0000 00.. .... .... .... .... .... = Differentiated Services Codepoint: Default (0)
        .... .... ..00 .... .... .... .... .... = Explicit Congestion Notification: Not ECN-Capable Transport (0)
    .... .... .... 0000 0000 0000 0000 0000 = Flow Label: 0x00000
    Payload Length: 6
    Next Header: Unknown (253)
    Hop Limit: 28
    Source: 0:f103:121:0:b42c:1000:: (0:f103:121:0:b42c:1000::)
    Destination: ::8601:0:8801:0:100:0 (::8601:0:8801:0:100:0)
Data (6 bytes)
    Data: 0000227f8a78
    [Length: 6]

Frame (53 bytes):
0000  61 88 46 32 33 03 02 03 01 78 00 fd 1c 00 00 f1   a.F23....x......
0010  03 01 21 00 00 b4 2c 10 00 00 00 00 00 00 00 00   ..!...,.........
0020  00 86 01 00 00 88 01 00 00 01 00 00 00 00 00 22   ..............."
0030  7f 8a 78 f2 8e                                    ..x..
Decompressed 6LoWPAN IPHC (46 bytes):
0000  60 00 00 00 00 06 fd 1c 00 00 f1 03 01 21 00 00   `............!..
0010  b4 2c 10 00 00 00 00 00 00 00 00 00 86 01 00 00   .,..............
0020  88 01 00 00 01 00 00 00 00 00 22 7f 8a 78         .........."..x

No.     Time           Source                Destination           Protocol Length Info
    428 17.376431                                                  IEEE 802.15.4 5      Ack

Frame 428: 5 bytes on wire (40 bits), 5 bytes captured (40 bits)
    Encapsulation type: IEEE 802.15.4 Wireless PAN (104)
    Arrival Time: Mar  3, 2023 16:19:13.427894000 CST
    [Time shift for this packet: 0.000000000 seconds]
    Epoch Time: 1677881953.427894000 seconds
    [Time delta from previous captured frame: 0.000515000 seconds]
    [Time delta from previous displayed frame: 0.000515000 seconds]
    [Time since reference or first frame: 17.376431000 seconds]
    Frame Number: 428
    Frame Length: 5 bytes (40 bits)
    Capture Length: 5 bytes (40 bits)
    [Frame is marked: False]
    [Frame is ignored: False]
    [Protocols in frame: wpan]
IEEE 802.15.4 Ack, Sequence Number: 70
    Frame Control Field: 0x0002, Frame Type: Ack, Destination Addressing Mode: None, Frame Version: IEEE Std 802.15.4-2003, Source Addressing Mode: None
        .... .... .... .010 = Frame Type: Ack (0x2)
        .... .... .... 0... = Security Enabled: False
        .... .... ...0 .... = Frame Pending: False
        .... .... ..0. .... = Acknowledge Request: False
        .... .... .0.. .... = PAN ID Compression: False
        .... .... 0... .... = Reserved: False
        .... ...0 .... .... = Sequence Number Suppression: False
        .... ..0. .... .... = Information Elements Present: False
        .... 00.. .... .... = Destination Addressing Mode: None (0x0)
        ..00 .... .... .... = Frame Version: IEEE Std 802.15.4-2003 (0)
        00.. .... .... .... = Source Addressing Mode: None (0x0)
    Sequence Number: 70
    FCS: 0x928a (Correct)
    [Ack To: 427]
    [Ack Time: 0.515 ms]

0000  02 00 46 8a 92                                    ..F..

No.     Time           Source                Destination           Protocol Length Info
    429 17.498583      1c00:f2:301:2100:2f:2d10:: ::4e:200:57:200:1:0   IPv6     53     Unknown IP Protocol: Unknown (253)

Frame 429: 53 bytes on wire (424 bits), 53 bytes captured (424 bits)
    Encapsulation type: IEEE 802.15.4 Wireless PAN (104)
    Arrival Time: Mar  3, 2023 16:19:13.550046000 CST
    [Time shift for this packet: 0.000000000 seconds]
    Epoch Time: 1677881953.550046000 seconds
    [Time delta from previous captured frame: 0.122152000 seconds]
    [Time delta from previous displayed frame: 0.122152000 seconds]
    [Time since reference or first frame: 17.498583000 seconds]
    Frame Number: 429
    Frame Length: 53 bytes (424 bits)
    Capture Length: 53 bytes (424 bits)
    [Frame is marked: False]
    [Frame is ignored: False]
    [Protocols in frame: wpan:6lowpan:ipv6:data]
IEEE 802.15.4 Data, Dst: 0x0203, Src: 0x0103
    Frame Control Field: 0x8861, Frame Type: Data, Acknowledge Request, PAN ID Compression, Destination Addressing Mode: Short/16-bit, Frame Version: IEEE Std 802.15.4-2003, Source Addressing Mode: Short/16-bit
        .... .... .... .001 = Frame Type: Data (0x1)
        .... .... .... 0... = Security Enabled: False
        .... .... ...0 .... = Frame Pending: False
        .... .... ..1. .... = Acknowledge Request: True
        .... .... .1.. .... = PAN ID Compression: True
        .... .... 0... .... = Reserved: False
        .... ...0 .... .... = Sequence Number Suppression: False
        .... ..0. .... .... = Information Elements Present: False
        .... 10.. .... .... = Destination Addressing Mode: Short/16-bit (0x2)
        ..00 .... .... .... = Frame Version: IEEE Std 802.15.4-2003 (0)
        10.. .... .... .... = Source Addressing Mode: Short/16-bit (0x2)
    Sequence Number: 71
    Destination PAN: 0x3332
    Destination: 0x0203
    Source: 0x0103
    FCS: 0xc7ac (Correct)
    [Ack In: 430]
6LoWPAN, Src: 1c00:f2:301:2100:2f:2d10:: (1c00:f2:301:2100:2f:2d10::), Dest: ::4e:200:57:200:1:0 (::4e:200:57:200:1:0)
    IPHC Header
        011. .... = Pattern: IP header compression (0x03)
        ...1 1... .... .... = Traffic class and flow label: Version, traffic class, and flow label compressed (0x3)
        .... .0.. .... .... = Next header: Inline
        .... ..01 .... .... = Hop limit: 1 (0x1)
        .... .... 0... .... = Context identifier extension: False
        .... .... .0.. .... = Source address compression: Stateless
        .... .... ..00 .... = Source address mode: Inline (0x0000)
        .... .... .... 0... = Multicast address compression: False
        .... .... .... .0.. = Destination address compression: Stateless
        .... .... .... ..00 = Destination address mode: Inline (0x0000)
    Next header: Unknown (0xfd)
    Source: 1c00:f2:301:2100:2f:2d10:: (1c00:f2:301:2100:2f:2d10::)
    Destination: ::4e:200:57:200:1:0 (::4e:200:57:200:1:0)
Internet Protocol Version 6, Src: 1c00:f2:301:2100:2f:2d10:: (1c00:f2:301:2100:2f:2d10::), Dst: ::4e:200:57:200:1:0 (::4e:200:57:200:1:0)
    0110 .... = Version: 6
    .... 0000 0000 .... .... .... .... .... = Traffic Class: 0x00 (DSCP: CS0, ECN: Not-ECT)
        .... 0000 00.. .... .... .... .... .... = Differentiated Services Codepoint: Default (0)
        .... .... ..00 .... .... .... .... .... = Explicit Congestion Notification: Not ECN-Capable Transport (0)
    .... .... .... 0000 0000 0000 0000 0000 = Flow Label: 0x00000
    Payload Length: 7
    Next Header: Unknown (253)
    Hop Limit: 1
    Source: 1c00:f2:301:2100:2f:2d10:: (1c00:f2:301:2100:2f:2d10::)
    Destination: ::4e:200:57:200:1:0 (::4e:200:57:200:1:0)
Data (7 bytes)
    Data: 000000217fd503
    [Length: 7]

Frame (53 bytes):
0000  61 88 47 32 33 03 02 03 01 79 00 fd 1c 00 00 f2   a.G23....y......
0010  03 01 21 00 00 2f 2d 10 00 00 00 00 00 00 00 00   ..!../-.........
0020  00 4e 02 00 00 57 02 00 00 01 00 00 00 00 00 21   .N...W.........!
0030  7f d5 03 ac c7                                    .....
Decompressed 6LoWPAN IPHC (47 bytes):
0000  60 00 00 00 00 07 fd 01 1c 00 00 f2 03 01 21 00   `.............!.
0010  00 2f 2d 10 00 00 00 00 00 00 00 00 00 4e 02 00   ./-..........N..
0020  00 57 02 00 00 01 00 00 00 00 00 21 7f d5 03      .W.........!...

No.     Time           Source                Destination           Protocol Length Info
    430 17.499098                                                  IEEE 802.15.4 5      Ack

Frame 430: 5 bytes on wire (40 bits), 5 bytes captured (40 bits)
    Encapsulation type: IEEE 802.15.4 Wireless PAN (104)
    Arrival Time: Mar  3, 2023 16:19:13.550561000 CST
    [Time shift for this packet: 0.000000000 seconds]
    Epoch Time: 1677881953.550561000 seconds
    [Time delta from previous captured frame: 0.000515000 seconds]
    [Time delta from previous displayed frame: 0.000515000 seconds]
    [Time since reference or first frame: 17.499098000 seconds]
    Frame Number: 430
    Frame Length: 5 bytes (40 bits)
    Capture Length: 5 bytes (40 bits)
    [Frame is marked: False]
    [Frame is ignored: False]
    [Protocols in frame: wpan]
IEEE 802.15.4 Ack, Sequence Number: 71
    Frame Control Field: 0x0002, Frame Type: Ack, Destination Addressing Mode: None, Frame Version: IEEE Std 802.15.4-2003, Source Addressing Mode: None
        .... .... .... .010 = Frame Type: Ack (0x2)
        .... .... .... 0... = Security Enabled: False
        .... .... ...0 .... = Frame Pending: False
        .... .... ..0. .... = Acknowledge Request: False
        .... .... .0.. .... = PAN ID Compression: False
        .... .... 0... .... = Reserved: False
        .... ...0 .... .... = Sequence Number Suppression: False
        .... ..0. .... .... = Information Elements Present: False
        .... 00.. .... .... = Destination Addressing Mode: None (0x0)
        ..00 .... .... .... = Frame Version: IEEE Std 802.15.4-2003 (0)
        00.. .... .... .... = Source Addressing Mode: None (0x0)
    Sequence Number: 71
    FCS: 0x8303 (Correct)
    [Ack To: 429]
    [Ack Time: 0.515 ms]

0000  02 00 47 03 83                                    ..G..

No.     Time           Source                Destination           Protocol Length Info
    431 17.537239      0x0103                0x0203                6LoWPAN  38     Data, Dst: 0x0203, Src: 0x0103[Malformed Packet]

Frame 431: 38 bytes on wire (304 bits), 38 bytes captured (304 bits)
    Encapsulation type: IEEE 802.15.4 Wireless PAN (104)
    Arrival Time: Mar  3, 2023 16:19:13.588702000 CST
    [Time shift for this packet: 0.000000000 seconds]
    Epoch Time: 1677881953.588702000 seconds
    [Time delta from previous captured frame: 0.038141000 seconds]
    [Time delta from previous displayed frame: 0.038141000 seconds]
    [Time since reference or first frame: 17.537239000 seconds]
    Frame Number: 431
    Frame Length: 38 bytes (304 bits)
    Capture Length: 38 bytes (304 bits)
    [Frame is marked: False]
    [Frame is ignored: False]
    [Protocols in frame: wpan:6lowpan]
IEEE 802.15.4 Data, Dst: 0x0203, Src: 0x0103
    Frame Control Field: 0x8861, Frame Type: Data, Acknowledge Request, PAN ID Compression, Destination Addressing Mode: Short/16-bit, Frame Version: IEEE Std 802.15.4-2003, Source Addressing Mode: Short/16-bit
        .... .... .... .001 = Frame Type: Data (0x1)
        .... .... .... 0... = Security Enabled: False
        .... .... ...0 .... = Frame Pending: False
        .... .... ..1. .... = Acknowledge Request: True
        .... .... .1.. .... = PAN ID Compression: True
        .... .... 0... .... = Reserved: False
        .... ...0 .... .... = Sequence Number Suppression: False
        .... ..0. .... .... = Information Elements Present: False
        .... 10.. .... .... = Destination Addressing Mode: Short/16-bit (0x2)
        ..00 .... .... .... = Frame Version: IEEE Std 802.15.4-2003 (0)
        10.. .... .... .... = Source Addressing Mode: Short/16-bit (0x2)
    Sequence Number: 72
    Destination PAN: 0x3332
    Destination: 0x0203
    Source: 0x0103
    FCS: 0xbb74 (Correct)
    [Ack In: 432]
6LoWPAN, Src: d00:f3:301:6f00:: (d00:f3:301:6f00::)
    IPHC Header
        011. .... = Pattern: IP header compression (0x03)
        ...1 1... .... .... = Traffic class and flow label: Version, traffic class, and flow label compressed (0x3)
        .... .0.. .... .... = Next header: Inline
        .... ..10 .... .... = Hop limit: 64 (0x2)
        .... .... 0... .... = Context identifier extension: False
        .... .... .0.. .... = Source address compression: Stateless
        .... .... ..00 .... = Source address mode: Inline (0x0000)
        .... .... .... 0... = Multicast address compression: False
        .... .... .... .0.. = Destination address compression: Stateless
        .... .... .... ..00 = Destination address mode: Inline (0x0000)
    Next header: Unknown (0xfd)
    Source: d00:f3:301:6f00:: (d00:f3:301:6f00::)
[Malformed Packet: 6LoWPAN]
    [Expert Info (Error/Malformed): Malformed Packet (Exception occurred)]
        [Malformed Packet (Exception occurred)]
        [Severity level: Error]
        [Group: Malformed]

0000  61 88 48 32 33 03 02 03 01 7a 00 fd 0d 00 00 f3   a.H23....z......
0010  03 01 6f 00 00 00 00 00 00 00 00 00 00 c3 68 f8   ..o...........h.
0020  d7 f6 75 1a 74 bb                                 ..u.t.

No.     Time           Source                Destination           Protocol Length Info
    432 17.537752                                                  IEEE 802.15.4 5      Ack

Frame 432: 5 bytes on wire (40 bits), 5 bytes captured (40 bits)
    Encapsulation type: IEEE 802.15.4 Wireless PAN (104)
    Arrival Time: Mar  3, 2023 16:19:13.589215000 CST
    [Time shift for this packet: 0.000000000 seconds]
    Epoch Time: 1677881953.589215000 seconds
    [Time delta from previous captured frame: 0.000513000 seconds]
    [Time delta from previous displayed frame: 0.000513000 seconds]
    [Time since reference or first frame: 17.537752000 seconds]
    Frame Number: 432
    Frame Length: 5 bytes (40 bits)
    Capture Length: 5 bytes (40 bits)
    [Frame is marked: False]
    [Frame is ignored: False]
    [Protocols in frame: wpan]
IEEE 802.15.4 Ack, Sequence Number: 72
    Frame Control Field: 0x0002, Frame Type: Ack, Destination Addressing Mode: None, Frame Version: IEEE Std 802.15.4-2003, Source Addressing Mode: None
        .... .... .... .010 = Frame Type: Ack (0x2)
        .... .... .... 0... = Security Enabled: False
        .... .... ...0 .... = Frame Pending: False
        .... .... ..0. .... = Acknowledge Request: False
        .... .... .0.. .... = PAN ID Compression: False
        .... .... 0... .... = Reserved: False
        .... ...0 .... .... = Sequence Number Suppression: False
        .... ..0. .... .... = Information Elements Present: False
        .... 00.. .... .... = Destination Addressing Mode: None (0x0)
        ..00 .... .... .... = Frame Version: IEEE Std 802.15.4-2003 (0)
        00.. .... .... .... = Source Addressing Mode: None (0x0)
    Sequence Number: 72
    FCS: 0x7bf4 (Correct)
    [Ack To: 431]
    [Ack Time: 0.513 ms]

0000  02 00 48 f4 7b                                    ..H.{

No.     Time           Source                Destination           Protocol Length Info
    433 17.622929      1c00:f4:301:2100:ab:2d10:: ::12:200:18:200:1:0   IPv6     53     Unknown IP Protocol: Unknown (253)

Frame 433: 53 bytes on wire (424 bits), 53 bytes captured (424 bits)
    Encapsulation type: IEEE 802.15.4 Wireless PAN (104)
    Arrival Time: Mar  3, 2023 16:19:13.674392000 CST
    [Time shift for this packet: 0.000000000 seconds]
    Epoch Time: 1677881953.674392000 seconds
    [Time delta from previous captured frame: 0.085177000 seconds]
    [Time delta from previous displayed frame: 0.085177000 seconds]
    [Time since reference or first frame: 17.622929000 seconds]
    Frame Number: 433
    Frame Length: 53 bytes (424 bits)
    Capture Length: 53 bytes (424 bits)
    [Frame is marked: False]
    [Frame is ignored: False]
    [Protocols in frame: wpan:6lowpan:ipv6:data]
IEEE 802.15.4 Data, Dst: 0x0203, Src: 0x0103
    Frame Control Field: 0x8861, Frame Type: Data, Acknowledge Request, PAN ID Compression, Destination Addressing Mode: Short/16-bit, Frame Version: IEEE Std 802.15.4-2003, Source Addressing Mode: Short/16-bit
        .... .... .... .001 = Frame Type: Data (0x1)
        .... .... .... 0... = Security Enabled: False
        .... .... ...0 .... = Frame Pending: False
        .... .... ..1. .... = Acknowledge Request: True
        .... .... .1.. .... = PAN ID Compression: True
        .... .... 0... .... = Reserved: False
        .... ...0 .... .... = Sequence Number Suppression: False
        .... ..0. .... .... = Information Elements Present: False
        .... 10.. .... .... = Destination Addressing Mode: Short/16-bit (0x2)
        ..00 .... .... .... = Frame Version: IEEE Std 802.15.4-2003 (0)
        10.. .... .... .... = Source Addressing Mode: Short/16-bit (0x2)
    Sequence Number: 73
    Destination PAN: 0x3332
    Destination: 0x0203
    Source: 0x0103
    FCS: 0xa735 (Correct)
    [Ack In: 434]
6LoWPAN, Src: 1c00:f4:301:2100:ab:2d10:: (1c00:f4:301:2100:ab:2d10::), Dest: ::12:200:18:200:1:0 (::12:200:18:200:1:0)
    IPHC Header
        011. .... = Pattern: IP header compression (0x03)
        ...1 1... .... .... = Traffic class and flow label: Version, traffic class, and flow label compressed (0x3)
        .... .0.. .... .... = Next header: Inline
        .... ..11 .... .... = Hop limit: 255 (0x3)
        .... .... 0... .... = Context identifier extension: False
        .... .... .0.. .... = Source address compression: Stateless
        .... .... ..00 .... = Source address mode: Inline (0x0000)
        .... .... .... 0... = Multicast address compression: False
        .... .... .... .0.. = Destination address compression: Stateless
        .... .... .... ..00 = Destination address mode: Inline (0x0000)
    Next header: Unknown (0xfd)
    Source: 1c00:f4:301:2100:ab:2d10:: (1c00:f4:301:2100:ab:2d10::)
    Destination: ::12:200:18:200:1:0 (::12:200:18:200:1:0)
Internet Protocol Version 6, Src: 1c00:f4:301:2100:ab:2d10:: (1c00:f4:301:2100:ab:2d10::), Dst: ::12:200:18:200:1:0 (::12:200:18:200:1:0)
    0110 .... = Version: 6
    .... 0000 0000 .... .... .... .... .... = Traffic Class: 0x00 (DSCP: CS0, ECN: Not-ECT)
        .... 0000 00.. .... .... .... .... .... = Differentiated Services Codepoint: Default (0)
        .... .... ..00 .... .... .... .... .... = Explicit Congestion Notification: Not ECN-Capable Transport (0)
    .... .... .... 0000 0000 0000 0000 0000 = Flow Label: 0x00000
    Payload Length: 7
    Next Header: Unknown (253)
    Hop Limit: 255
    Source: 1c00:f4:301:2100:ab:2d10:: (1c00:f4:301:2100:ab:2d10::)
    Destination: ::12:200:18:200:1:0 (::12:200:18:200:1:0)
Data (7 bytes)
    Data: 000000217fe00b
    [Length: 7]

Frame (53 bytes):
0000  61 88 49 32 33 03 02 03 01 7b 00 fd 1c 00 00 f4   a.I23....{......
0010  03 01 21 00 00 ab 2d 10 00 00 00 00 00 00 00 00   ..!...-.........
0020  00 12 02 00 00 18 02 00 00 01 00 00 00 00 00 21   ...............!
0030  7f e0 0b 35 a7                                    ...5.
Decompressed 6LoWPAN IPHC (47 bytes):
0000  60 00 00 00 00 07 fd ff 1c 00 00 f4 03 01 21 00   `.............!.
0010  00 ab 2d 10 00 00 00 00 00 00 00 00 00 12 02 00   ..-.............
0020  00 18 02 00 00 01 00 00 00 00 00 21 7f e0 0b      ...........!...

No.     Time           Source                Destination           Protocol Length Info
    434 17.623447                                                  IEEE 802.15.4 5      Ack

Frame 434: 5 bytes on wire (40 bits), 5 bytes captured (40 bits)
    Encapsulation type: IEEE 802.15.4 Wireless PAN (104)
    Arrival Time: Mar  3, 2023 16:19:13.674910000 CST
    [Time shift for this packet: 0.000000000 seconds]
    Epoch Time: 1677881953.674910000 seconds
    [Time delta from previous captured frame: 0.000518000 seconds]
    [Time delta from previous displayed frame: 0.000518000 seconds]
    [Time since reference or first frame: 17.623447000 seconds]
    Frame Number: 434
    Frame Length: 5 bytes (40 bits)
    Capture Length: 5 bytes (40 bits)
    [Frame is marked: False]
    [Frame is ignored: False]
    [Protocols in frame: wpan]
IEEE 802.15.4 Ack, Sequence Number: 73
    Frame Control Field: 0x0002, Frame Type: Ack, Destination Addressing Mode: None, Frame Version: IEEE Std 802.15.4-2003, Source Addressing Mode: None
        .... .... .... .010 = Frame Type: Ack (0x2)
        .... .... .... 0... = Security Enabled: False
        .... .... ...0 .... = Frame Pending: False
        .... .... ..0. .... = Acknowledge Request: False
        .... .... .0.. .... = PAN ID Compression: False
        .... .... 0... .... = Reserved: False
        .... ...0 .... .... = Sequence Number Suppression: False
        .... ..0. .... .... = Information Elements Present: False
        .... 00.. .... .... = Destination Addressing Mode: None (0x0)
        ..00 .... .... .... = Frame Version: IEEE Std 802.15.4-2003 (0)
        00.. .... .... .... = Source Addressing Mode: None (0x0)
    Sequence Number: 73
    FCS: 0x6a7d (Correct)
    [Ack To: 433]
    [Ack Time: 0.518 ms]

0000  02 00 49 7d 6a                                    ..I}j

No.     Time           Source                Destination           Protocol Length Info
    435 17.753592      1c00:f5:301:1e00:29:2e10:e0:e7a2 3dc8:f91f:3b74:6f1a:bff7:5283:39b1:ffcf IPv6     77     IPv6 no next header

Frame 435: 77 bytes on wire (616 bits), 77 bytes captured (616 bits)
    Encapsulation type: IEEE 802.15.4 Wireless PAN (104)
    Arrival Time: Mar  3, 2023 16:19:13.805055000 CST
    [Time shift for this packet: 0.000000000 seconds]
    Epoch Time: 1677881953.805055000 seconds
    [Time delta from previous captured frame: 0.130145000 seconds]
    [Time delta from previous displayed frame: 0.130145000 seconds]
    [Time since reference or first frame: 17.753592000 seconds]
    Frame Number: 435
    Frame Length: 77 bytes (616 bits)
    Capture Length: 77 bytes (616 bits)
    [Frame is marked: False]
    [Frame is ignored: False]
    [Protocols in frame: wpan:6lowpan:ipv6]
IEEE 802.15.4 Data, Dst: 0x0203, Src: 0x0103
    Frame Control Field: 0x8861, Frame Type: Data, Acknowledge Request, PAN ID Compression, Destination Addressing Mode: Short/16-bit, Frame Version: IEEE Std 802.15.4-2003, Source Addressing Mode: Short/16-bit
        .... .... .... .001 = Frame Type: Data (0x1)
        .... .... .... 0... = Security Enabled: False
        .... .... ...0 .... = Frame Pending: False
        .... .... ..1. .... = Acknowledge Request: True
        .... .... .1.. .... = PAN ID Compression: True
        .... .... 0... .... = Reserved: False
        .... ...0 .... .... = Sequence Number Suppression: False
        .... ..0. .... .... = Information Elements Present: False
        .... 10.. .... .... = Destination Addressing Mode: Short/16-bit (0x2)
        ..00 .... .... .... = Frame Version: IEEE Std 802.15.4-2003 (0)
        10.. .... .... .... = Source Addressing Mode: Short/16-bit (0x2)
    Sequence Number: 74
    Destination PAN: 0x3332
    Destination: 0x0203
    Source: 0x0103
    FCS: 0x4c62 (Correct)
    [Ack In: 436]
6LoWPAN, Src: 1c00:f5:301:1e00:29:2e10:e0:e7a2 (1c00:f5:301:1e00:29:2e10:e0:e7a2), Dest: 3dc8:f91f:3b74:6f1a:bff7:5283:39b1:ffcf (3dc8:f91f:3b74:6f1a:bff7:5283:39b1:ffcf)
    IPHC Header
        011. .... = Pattern: IP header compression (0x03)
        ...1 1... .... .... = Traffic class and flow label: Version, traffic class, and flow label compressed (0x3)
        .... .1.. .... .... = Next header: Compressed
        .... ..00 .... .... = Hop limit: Inline (0x0)
        .... .... 0... .... = Context identifier extension: False
        .... .... .0.. .... = Source address compression: Stateless
        .... .... ..00 .... = Source address mode: Inline (0x0000)
        .... .... .... 0... = Multicast address compression: False
        .... .... .... .0.. = Destination address compression: Stateless
        .... .... .... ..00 = Destination address mode: Inline (0x0000)
    Hop limit: 253
    Source: 1c00:f5:301:1e00:29:2e10:e0:e7a2 (1c00:f5:301:1e00:29:2e10:e0:e7a2)
    Destination: 3dc8:f91f:3b74:6f1a:bff7:5283:39b1:ffcf (3dc8:f91f:3b74:6f1a:bff7:5283:39b1:ffcf)
Internet Protocol Version 6, Src: 1c00:f5:301:1e00:29:2e10:e0:e7a2 (1c00:f5:301:1e00:29:2e10:e0:e7a2), Dst: 3dc8:f91f:3b74:6f1a:bff7:5283:39b1:ffcf (3dc8:f91f:3b74:6f1a:bff7:5283:39b1:ffcf)
    0110 .... = Version: 6
    .... 0000 0000 .... .... .... .... .... = Traffic Class: 0x00 (DSCP: CS0, ECN: Not-ECT)
        .... 0000 00.. .... .... .... .... .... = Differentiated Services Codepoint: Default (0)
        .... .... ..00 .... .... .... .... .... = Explicit Congestion Notification: Not ECN-Capable Transport (0)
    .... .... .... 0000 0000 0000 0000 0000 = Flow Label: 0x00000
    Payload Length: 0
    Next Header: No Next Header for IPv6 (59)
    Hop Limit: 253
    Source: 1c00:f5:301:1e00:29:2e10:e0:e7a2 (1c00:f5:301:1e00:29:2e10:e0:e7a2)
    Destination: 3dc8:f91f:3b74:6f1a:bff7:5283:39b1:ffcf (3dc8:f91f:3b74:6f1a:bff7:5283:39b1:ffcf)

Frame (77 bytes):
0000  61 88 4a 32 33 03 02 03 01 7c 00 fd 1c 00 00 f5   a.J23....|......
0010  03 01 1e 00 00 29 2e 10 00 e0 e7 a2 3d c8 f9 1f   .....)......=...
0020  3b 74 6f 1a bf f7 52 83 39 b1 ff cf 39 ac 25 7d   ;to...R.9...9.%}
0030  3b ae a3 fd 1c 00 00 f6 03 01 21 00 00 29 2e 10   ;.........!..)..
0040  00 00 00 00 00 00 00 00 00 40 01 62 4c            .........@.bL
Decompressed 6LoWPAN IPHC (40 bytes):
0000  60 00 00 00 00 00 3b fd 1c 00 00 f5 03 01 1e 00   `.....;.........
0010  00 29 2e 10 00 e0 e7 a2 3d c8 f9 1f 3b 74 6f 1a   .)......=...;to.
0020  bf f7 52 83 39 b1 ff cf                           ..R.9...

No.     Time           Source                Destination           Protocol Length Info
    436 17.754106                                                  IEEE 802.15.4 5      Ack

Frame 436: 5 bytes on wire (40 bits), 5 bytes captured (40 bits)
    Encapsulation type: IEEE 802.15.4 Wireless PAN (104)
    Arrival Time: Mar  3, 2023 16:19:13.805569000 CST
    [Time shift for this packet: 0.000000000 seconds]
    Epoch Time: 1677881953.805569000 seconds
    [Time delta from previous captured frame: 0.000514000 seconds]
    [Time delta from previous displayed frame: 0.000514000 seconds]
    [Time since reference or first frame: 17.754106000 seconds]
    Frame Number: 436
    Frame Length: 5 bytes (40 bits)
    Capture Length: 5 bytes (40 bits)
    [Frame is marked: False]
    [Frame is ignored: False]
    [Protocols in frame: wpan]
IEEE 802.15.4 Ack, Sequence Number: 74
    Frame Control Field: 0x0002, Frame Type: Ack, Destination Addressing Mode: None, Frame Version: IEEE Std 802.15.4-2003, Source Addressing Mode: None
        .... .... .... .010 = Frame Type: Ack (0x2)
        .... .... .... 0... = Security Enabled: False
        .... .... ...0 .... = Frame Pending: False
        .... .... ..0. .... = Acknowledge Request: False
        .... .... .0.. .... = PAN ID Compression: False
        .... .... 0... .... = Reserved: False
        .... ...0 .... .... = Sequence Number Suppression: False
        .... ..0. .... .... = Information Elements Present: False
        .... 00.. .... .... = Destination Addressing Mode: None (0x0)
        ..00 .... .... .... = Frame Version: IEEE Std 802.15.4-2003 (0)
        00.. .... .... .... = Source Addressing Mode: None (0x0)
    Sequence Number: 74
    FCS: 0x58e6 (Correct)
    [Ack To: 435]
    [Ack Time: 0.514 ms]

0000  02 00 4a e6 58                                    ..J.X

No.     Time           Source                Destination           Protocol Length Info
    437 17.757555      0x0103                0x0203                6LoWPAN  29     Data, Dst: 0x0203, Src: 0x0103[Malformed Packet]

Frame 437: 29 bytes on wire (232 bits), 29 bytes captured (232 bits)
    Encapsulation type: IEEE 802.15.4 Wireless PAN (104)
    Arrival Time: Mar  3, 2023 16:19:13.809018000 CST
    [Time shift for this packet: 0.000000000 seconds]
    Epoch Time: 1677881953.809018000 seconds
    [Time delta from previous captured frame: 0.003449000 seconds]
    [Time delta from previous displayed frame: 0.003449000 seconds]
    [Time since reference or first frame: 17.757555000 seconds]
    Frame Number: 437
    Frame Length: 29 bytes (232 bits)
    Capture Length: 29 bytes (232 bits)
    [Frame is marked: False]
    [Frame is ignored: False]
    [Protocols in frame: wpan:6lowpan]
IEEE 802.15.4 Data, Dst: 0x0203, Src: 0x0103
    Frame Control Field: 0x8861, Frame Type: Data, Acknowledge Request, PAN ID Compression, Destination Addressing Mode: Short/16-bit, Frame Version: IEEE Std 802.15.4-2003, Source Addressing Mode: Short/16-bit
        .... .... .... .001 = Frame Type: Data (0x1)
        .... .... .... 0... = Security Enabled: False
        .... .... ...0 .... = Frame Pending: False
        .... .... ..1. .... = Acknowledge Request: True
        .... .... .1.. .... = PAN ID Compression: True
        .... .... 0... .... = Reserved: False
        .... ...0 .... .... = Sequence Number Suppression: False
        .... ..0. .... .... = Information Elements Present: False
        .... 10.. .... .... = Destination Addressing Mode: Short/16-bit (0x2)
        ..00 .... .... .... = Frame Version: IEEE Std 802.15.4-2003 (0)
        10.. .... .... .... = Source Addressing Mode: Short/16-bit (0x2)
    Sequence Number: 75
    Destination PAN: 0x3332
    Destination: 0x0203
    Source: 0x0103
    FCS: 0x6638 (Correct)
    [Ack In: 438]
6LoWPAN, Src: 0:4201:0:100::207f:685 (0:4201:0:100::207f:685)
    IPHC Header
        011. .... = Pattern: IP header compression (0x03)
        ...1 1... .... .... = Traffic class and flow label: Version, traffic class, and flow label compressed (0x3)
        .... .1.. .... .... = Next header: Compressed
        .... ..01 .... .... = Hop limit: 1 (0x1)
        .... .... 0... .... = Context identifier extension: False
        .... .... .0.. .... = Source address compression: Stateless
        .... .... ..00 .... = Source address mode: Inline (0x0000)
        .... .... .... 0... = Multicast address compression: False
        .... .... .... .0.. = Destination address compression: Stateless
        .... .... .... ..00 = Destination address mode: Inline (0x0000)
    Source: 0:4201:0:100::207f:685 (0:4201:0:100::207f:685)
[Malformed Packet: 6LoWPAN]
    [Expert Info (Error/Malformed): Malformed Packet (Exception occurred)]
        [Malformed Packet (Exception occurred)]
        [Severity level: Error]
        [Group: Malformed]

0000  61 88 4b 32 33 03 02 03 01 7d 00 00 00 42 01 00   a.K23....}...B..
0010  00 01 00 00 00 00 00 20 7f 06 85 38 66            ....... ...8f

No.     Time           Source                Destination           Protocol Length Info
    438 17.758100                                                  IEEE 802.15.4 5      Ack

Frame 438: 5 bytes on wire (40 bits), 5 bytes captured (40 bits)
    Encapsulation type: IEEE 802.15.4 Wireless PAN (104)
    Arrival Time: Mar  3, 2023 16:19:13.809563000 CST
    [Time shift for this packet: 0.000000000 seconds]
    Epoch Time: 1677881953.809563000 seconds
    [Time delta from previous captured frame: 0.000545000 seconds]
    [Time delta from previous displayed frame: 0.000545000 seconds]
    [Time since reference or first frame: 17.758100000 seconds]
    Frame Number: 438
    Frame Length: 5 bytes (40 bits)
    Capture Length: 5 bytes (40 bits)
    [Frame is marked: False]
    [Frame is ignored: False]
    [Protocols in frame: wpan]
IEEE 802.15.4 Ack, Sequence Number: 75
    Frame Control Field: 0x0002, Frame Type: Ack, Destination Addressing Mode: None, Frame Version: IEEE Std 802.15.4-2003, Source Addressing Mode: None
        .... .... .... .010 = Frame Type: Ack (0x2)
        .... .... .... 0... = Security Enabled: False
        .... .... ...0 .... = Frame Pending: False
        .... .... ..0. .... = Acknowledge Request: False
        .... .... .0.. .... = PAN ID Compression: False
        .... .... 0... .... = Reserved: False
        .... ...0 .... .... = Sequence Number Suppression: False
        .... ..0. .... .... = Information Elements Present: False
        .... 00.. .... .... = Destination Addressing Mode: None (0x0)
        ..00 .... .... .... = Frame Version: IEEE Std 802.15.4-2003 (0)
        00.. .... .... .... = Source Addressing Mode: None (0x0)
    Sequence Number: 75
    FCS: 0x496f (Correct)
    [Ack To: 437]
    [Ack Time: 0.545 ms]

0000  02 00 4b 6f 49                                    ..KoI

No.     Time           Source                Destination           Protocol Length Info
    439 17.824657      0x0203                0x0103                IEEE 802.15.4 34     Data, Dst: 0x0103, Src: 0x0203

Frame 439: 34 bytes on wire (272 bits), 34 bytes captured (272 bits)
    Encapsulation type: IEEE 802.15.4 Wireless PAN (104)
    Arrival Time: Mar  3, 2023 16:19:13.876120000 CST
    [Time shift for this packet: 0.000000000 seconds]
    Epoch Time: 1677881953.876120000 seconds
    [Time delta from previous captured frame: 0.066557000 seconds]
    [Time delta from previous displayed frame: 0.066557000 seconds]
    [Time since reference or first frame: 17.824657000 seconds]
    Frame Number: 439
    Frame Length: 34 bytes (272 bits)
    Capture Length: 34 bytes (272 bits)
    [Frame is marked: False]
    [Frame is ignored: False]
    [Protocols in frame: wpan:data]
IEEE 802.15.4 Data, Dst: 0x0103, Src: 0x0203
    Frame Control Field: 0x8861, Frame Type: Data, Acknowledge Request, PAN ID Compression, Destination Addressing Mode: Short/16-bit, Frame Version: IEEE Std 802.15.4-2003, Source Addressing Mode: Short/16-bit
        .... .... .... .001 = Frame Type: Data (0x1)
        .... .... .... 0... = Security Enabled: False
        .... .... ...0 .... = Frame Pending: False
        .... .... ..1. .... = Acknowledge Request: True
        .... .... .1.. .... = PAN ID Compression: True
        .... .... 0... .... = Reserved: False
        .... ...0 .... .... = Sequence Number Suppression: False
        .... ..0. .... .... = Information Elements Present: False
        .... 10.. .... .... = Destination Addressing Mode: Short/16-bit (0x2)
        ..00 .... .... .... = Frame Version: IEEE Std 802.15.4-2003 (0)
        10.. .... .... .... = Source Addressing Mode: Short/16-bit (0x2)
    Sequence Number: 226
    Destination PAN: 0x3332
    Destination: 0x0103
    Source: 0x0203
    FCS: 0x2599 (Correct)
    [Ack In: 440]
Data (23 bytes)
    Data: 1600fd09000012ffbe000000000000000608c004035dc6
    [Length: 23]

0000  61 88 e2 32 33 03 01 03 02 16 00 fd 09 00 00 12   a..23...........
0010  ff be 00 00 00 00 00 00 00 06 08 c0 04 03 5d c6   ..............].
0020  99 25                                             .%

No.     Time           Source                Destination           Protocol Length Info
    440 17.825125                                                  IEEE 802.15.4 5      Ack

Frame 440: 5 bytes on wire (40 bits), 5 bytes captured (40 bits)
    Encapsulation type: IEEE 802.15.4 Wireless PAN (104)
    Arrival Time: Mar  3, 2023 16:19:13.876588000 CST
    [Time shift for this packet: 0.000000000 seconds]
    Epoch Time: 1677881953.876588000 seconds
    [Time delta from previous captured frame: 0.000468000 seconds]
    [Time delta from previous displayed frame: 0.000468000 seconds]
    [Time since reference or first frame: 17.825125000 seconds]
    Frame Number: 440
    Frame Length: 5 bytes (40 bits)
    Capture Length: 5 bytes (40 bits)
    [Frame is marked: False]
    [Frame is ignored: False]
    [Protocols in frame: wpan]
IEEE 802.15.4 Ack, Sequence Number: 226
    Frame Control Field: 0x0002, Frame Type: Ack, Destination Addressing Mode: None, Frame Version: IEEE Std 802.15.4-2003, Source Addressing Mode: None
        .... .... .... .010 = Frame Type: Ack (0x2)
        .... .... .... 0... = Security Enabled: False
        .... .... ...0 .... = Frame Pending: False
        .... .... ..0. .... = Acknowledge Request: False
        .... .... .0.. .... = PAN ID Compression: False
        .... .... 0... .... = Reserved: False
        .... ...0 .... .... = Sequence Number Suppression: False
        .... ..0. .... .... = Information Elements Present: False
        .... 00.. .... .... = Destination Addressing Mode: None (0x0)
        ..00 .... .... .... = Frame Version: IEEE Std 802.15.4-2003 (0)
        00.. .... .... .... = Source Addressing Mode: None (0x0)
    Sequence Number: 226
    FCS: 0x71a4 (Correct)
    [Ack To: 439]
    [Ack Time: 0.468 ms]

0000  02 00 e2 a4 71                                    ....q

No.     Time           Source                Destination           Protocol Length Info
    441 17.873211      fd1c:0:f703:121:0:a52e:1000:0 ::3a02:0:3a02:0:100   IPv6     53     IPv6 no next header

Frame 441: 53 bytes on wire (424 bits), 53 bytes captured (424 bits)
    Encapsulation type: IEEE 802.15.4 Wireless PAN (104)
    Arrival Time: Mar  3, 2023 16:19:13.924674000 CST
    [Time shift for this packet: 0.000000000 seconds]
    Epoch Time: 1677881953.924674000 seconds
    [Time delta from previous captured frame: 0.048086000 seconds]
    [Time delta from previous displayed frame: 0.048086000 seconds]
    [Time since reference or first frame: 17.873211000 seconds]
    Frame Number: 441
    Frame Length: 53 bytes (424 bits)
    Capture Length: 53 bytes (424 bits)
    [Frame is marked: False]
    [Frame is ignored: False]
    [Protocols in frame: wpan:6lowpan:ipv6]
IEEE 802.15.4 Data, Dst: 0x0203, Src: 0x0103
    Frame Control Field: 0x8861, Frame Type: Data, Acknowledge Request, PAN ID Compression, Destination Addressing Mode: Short/16-bit, Frame Version: IEEE Std 802.15.4-2003, Source Addressing Mode: Short/16-bit
        .... .... .... .001 = Frame Type: Data (0x1)
        .... .... .... 0... = Security Enabled: False
        .... .... ...0 .... = Frame Pending: False
        .... .... ..1. .... = Acknowledge Request: True
        .... .... .1.. .... = PAN ID Compression: True
        .... .... 0... .... = Reserved: False
        .... ...0 .... .... = Sequence Number Suppression: False
        .... ..0. .... .... = Information Elements Present: False
        .... 10.. .... .... = Destination Addressing Mode: Short/16-bit (0x2)
        ..00 .... .... .... = Frame Version: IEEE Std 802.15.4-2003 (0)
        10.. .... .... .... = Source Addressing Mode: Short/16-bit (0x2)
    Sequence Number: 76
    Destination PAN: 0x3332
    Destination: 0x0203
    Source: 0x0103
    FCS: 0xa111 (Correct)
    [Ack In: 442]
6LoWPAN, Src: fd1c:0:f703:121:0:a52e:1000:0 (fd1c:0:f703:121:0:a52e:1000:0), Dest: ::3a02:0:3a02:0:100 (::3a02:0:3a02:0:100)
    IPHC Header
        011. .... = Pattern: IP header compression (0x03)
        ...1 1... .... .... = Traffic class and flow label: Version, traffic class, and flow label compressed (0x3)
        .... .1.. .... .... = Next header: Compressed
        .... ..10 .... .... = Hop limit: 64 (0x2)
        .... .... 0... .... = Context identifier extension: False
        .... .... .0.. .... = Source address compression: Stateless
        .... .... ..00 .... = Source address mode: Inline (0x0000)
        .... .... .... 0... = Multicast address compression: False
        .... .... .... .0.. = Destination address compression: Stateless
        .... .... .... ..00 = Destination address mode: Inline (0x0000)
    Source: fd1c:0:f703:121:0:a52e:1000:0 (fd1c:0:f703:121:0:a52e:1000:0)
    Destination: ::3a02:0:3a02:0:100 (::3a02:0:3a02:0:100)
Internet Protocol Version 6, Src: fd1c:0:f703:121:0:a52e:1000:0 (fd1c:0:f703:121:0:a52e:1000:0), Dst: ::3a02:0:3a02:0:100 (::3a02:0:3a02:0:100)
    0110 .... = Version: 6
    .... 0000 0000 .... .... .... .... .... = Traffic Class: 0x00 (DSCP: CS0, ECN: Not-ECT)
        .... 0000 00.. .... .... .... .... .... = Differentiated Services Codepoint: Default (0)
        .... .... ..00 .... .... .... .... .... = Explicit Congestion Notification: Not ECN-Capable Transport (0)
    .... .... .... 0000 0000 0000 0000 0000 = Flow Label: 0x00000
    Payload Length: 0
    Next Header: No Next Header for IPv6 (59)
    Hop Limit: 64
    Source: fd1c:0:f703:121:0:a52e:1000:0 (fd1c:0:f703:121:0:a52e:1000:0)
    Destination: ::3a02:0:3a02:0:100 (::3a02:0:3a02:0:100)

Frame (53 bytes):
0000  61 88 4c 32 33 03 02 03 01 7e 00 fd 1c 00 00 f7   a.L23....~......
0010  03 01 21 00 00 a5 2e 10 00 00 00 00 00 00 00 00   ..!.............
0020  00 3a 02 00 00 3a 02 00 00 01 00 00 00 00 00 1f   .:...:..........
0030  7f 16 08 11 a1                                    .....
Decompressed 6LoWPAN IPHC (40 bytes):
0000  60 00 00 00 00 00 3b 40 fd 1c 00 00 f7 03 01 21   `.....;@.......!
0010  00 00 a5 2e 10 00 00 00 00 00 00 00 00 00 3a 02   ..............:.
0020  00 00 3a 02 00 00 01 00                           ..:.....

No.     Time           Source                Destination           Protocol Length Info
    442 17.873723                                                  IEEE 802.15.4 5      Ack

Frame 442: 5 bytes on wire (40 bits), 5 bytes captured (40 bits)
    Encapsulation type: IEEE 802.15.4 Wireless PAN (104)
    Arrival Time: Mar  3, 2023 16:19:13.925186000 CST
    [Time shift for this packet: 0.000000000 seconds]
    Epoch Time: 1677881953.925186000 seconds
    [Time delta from previous captured frame: 0.000512000 seconds]
    [Time delta from previous displayed frame: 0.000512000 seconds]
    [Time since reference or first frame: 17.873723000 seconds]
    Frame Number: 442
    Frame Length: 5 bytes (40 bits)
    Capture Length: 5 bytes (40 bits)
    [Frame is marked: False]
    [Frame is ignored: False]
    [Protocols in frame: wpan]
IEEE 802.15.4 Ack, Sequence Number: 76
    Frame Control Field: 0x0002, Frame Type: Ack, Destination Addressing Mode: None, Frame Version: IEEE Std 802.15.4-2003, Source Addressing Mode: None
        .... .... .... .010 = Frame Type: Ack (0x2)
        .... .... .... 0... = Security Enabled: False
        .... .... ...0 .... = Frame Pending: False
        .... .... ..0. .... = Acknowledge Request: False
        .... .... .0.. .... = PAN ID Compression: False
        .... .... 0... .... = Reserved: False
        .... ...0 .... .... = Sequence Number Suppression: False
        .... ..0. .... .... = Information Elements Present: False
        .... 00.. .... .... = Destination Addressing Mode: None (0x0)
        ..00 .... .... .... = Frame Version: IEEE Std 802.15.4-2003 (0)
        00.. .... .... .... = Source Addressing Mode: None (0x0)
    Sequence Number: 76
    FCS: 0x3dd0 (Correct)
    [Ack To: 441]
    [Ack Time: 0.512 ms]

0000  02 00 4c d0 3d                                    ..L.=

No.     Time           Source                Destination           Protocol Length Info
    443 17.998982      fd1c:0:f803:121:0:232f:1000:0 ::9001:0:9101:0:100   IPv6     53     IPv6 no next header

Frame 443: 53 bytes on wire (424 bits), 53 bytes captured (424 bits)
    Encapsulation type: IEEE 802.15.4 Wireless PAN (104)
    Arrival Time: Mar  3, 2023 16:19:14.050445000 CST
    [Time shift for this packet: 0.000000000 seconds]
    Epoch Time: 1677881954.050445000 seconds
    [Time delta from previous captured frame: 0.125259000 seconds]
    [Time delta from previous displayed frame: 0.125259000 seconds]
    [Time since reference or first frame: 17.998982000 seconds]
    Frame Number: 443
    Frame Length: 53 bytes (424 bits)
    Capture Length: 53 bytes (424 bits)
    [Frame is marked: False]
    [Frame is ignored: False]
    [Protocols in frame: wpan:6lowpan:ipv6]
IEEE 802.15.4 Data, Dst: 0x0203, Src: 0x0103
    Frame Control Field: 0x8861, Frame Type: Data, Acknowledge Request, PAN ID Compression, Destination Addressing Mode: Short/16-bit, Frame Version: IEEE Std 802.15.4-2003, Source Addressing Mode: Short/16-bit
        .... .... .... .001 = Frame Type: Data (0x1)
        .... .... .... 0... = Security Enabled: False
        .... .... ...0 .... = Frame Pending: False
        .... .... ..1. .... = Acknowledge Request: True
        .... .... .1.. .... = PAN ID Compression: True
        .... .... 0... .... = Reserved: False
        .... ...0 .... .... = Sequence Number Suppression: False
        .... ..0. .... .... = Information Elements Present: False
        .... 10.. .... .... = Destination Addressing Mode: Short/16-bit (0x2)
        ..00 .... .... .... = Frame Version: IEEE Std 802.15.4-2003 (0)
        10.. .... .... .... = Source Addressing Mode: Short/16-bit (0x2)
    Sequence Number: 77
    Destination PAN: 0x3332
    Destination: 0x0203
    Source: 0x0103
    FCS: 0x0744 (Correct)
    [Ack In: 444]
6LoWPAN, Src: fd1c:0:f803:121:0:232f:1000:0 (fd1c:0:f803:121:0:232f:1000:0), Dest: ::9001:0:9101:0:100 (::9001:0:9101:0:100)
    IPHC Header
        011. .... = Pattern: IP header compression (0x03)
        ...1 1... .... .... = Traffic class and flow label: Version, traffic class, and flow label compressed (0x3)
        .... .1.. .... .... = Next header: Compressed
        .... ..11 .... .... = Hop limit: 255 (0x3)
        .... .... 0... .... = Context identifier extension: False
        .... .... .0.. .... = Source address compression: Stateless
        .... .... ..00 .... = Source address mode: Inline (0x0000)
        .... .... .... 0... = Multicast address compression: False
        .... .... .... .0.. = Destination address compression: Stateless
        .... .... .... ..00 = Destination address mode: Inline (0x0000)
    Source: fd1c:0:f803:121:0:232f:1000:0 (fd1c:0:f803:121:0:232f:1000:0)
    Destination: ::9001:0:9101:0:100 (::9001:0:9101:0:100)
Internet Protocol Version 6, Src: fd1c:0:f803:121:0:232f:1000:0 (fd1c:0:f803:121:0:232f:1000:0), Dst: ::9001:0:9101:0:100 (::9001:0:9101:0:100)
    0110 .... = Version: 6
    .... 0000 0000 .... .... .... .... .... = Traffic Class: 0x00 (DSCP: CS0, ECN: Not-ECT)
        .... 0000 00.. .... .... .... .... .... = Differentiated Services Codepoint: Default (0)
        .... .... ..00 .... .... .... .... .... = Explicit Congestion Notification: Not ECN-Capable Transport (0)
    .... .... .... 0000 0000 0000 0000 0000 = Flow Label: 0x00000
    Payload Length: 0
    Next Header: No Next Header for IPv6 (59)
    Hop Limit: 255
    Source: fd1c:0:f803:121:0:232f:1000:0 (fd1c:0:f803:121:0:232f:1000:0)
    Destination: ::9001:0:9101:0:100 (::9001:0:9101:0:100)

Frame (53 bytes):
0000  61 88 4d 32 33 03 02 03 01 7f 00 fd 1c 00 00 f8   a.M23...........
0010  03 01 21 00 00 23 2f 10 00 00 00 00 00 00 00 00   ..!..#/.........
0020  00 90 01 00 00 91 01 00 00 01 00 00 00 00 00 1f   ................
0030  7f 1a 56 44 07                                    ..VD.
Decompressed 6LoWPAN IPHC (40 bytes):
0000  60 00 00 00 00 00 3b ff fd 1c 00 00 f8 03 01 21   `.....;........!
0010  00 00 23 2f 10 00 00 00 00 00 00 00 00 00 90 01   ..#/............
0020  00 00 91 01 00 00 01 00                           ........

No.     Time           Source                Destination           Protocol Length Info
    444 17.999517                                                  IEEE 802.15.4 5      Ack

Frame 444: 5 bytes on wire (40 bits), 5 bytes captured (40 bits)
    Encapsulation type: IEEE 802.15.4 Wireless PAN (104)
    Arrival Time: Mar  3, 2023 16:19:14.050980000 CST
    [Time shift for this packet: 0.000000000 seconds]
    Epoch Time: 1677881954.050980000 seconds
    [Time delta from previous captured frame: 0.000535000 seconds]
    [Time delta from previous displayed frame: 0.000535000 seconds]
    [Time since reference or first frame: 17.999517000 seconds]
    Frame Number: 444
    Frame Length: 5 bytes (40 bits)
    Capture Length: 5 bytes (40 bits)
    [Frame is marked: False]
    [Frame is ignored: False]
    [Protocols in frame: wpan]
IEEE 802.15.4 Ack, Sequence Number: 77
    Frame Control Field: 0x0002, Frame Type: Ack, Destination Addressing Mode: None, Frame Version: IEEE Std 802.15.4-2003, Source Addressing Mode: None
        .... .... .... .010 = Frame Type: Ack (0x2)
        .... .... .... 0... = Security Enabled: False
        .... .... ...0 .... = Frame Pending: False
        .... .... ..0. .... = Acknowledge Request: False
        .... .... .0.. .... = PAN ID Compression: False
        .... .... 0... .... = Reserved: False
        .... ...0 .... .... = Sequence Number Suppression: False
        .... ..0. .... .... = Information Elements Present: False
        .... 00.. .... .... = Destination Addressing Mode: None (0x0)
        ..00 .... .... .... = Frame Version: IEEE Std 802.15.4-2003 (0)
        00.. .... .... .... = Source Addressing Mode: None (0x0)
    Sequence Number: 77
    FCS: 0x2c59 (Correct)
    [Ack To: 443]
    [Ack Time: 0.535 ms]

0000  02 00 4d 59 2c                                    ..MY,

No.     Time           Source                Destination           Protocol Length Info
    445 18.122951      0x0103                0x0203                IEEE 802.15.4 53     Data, Dst: 0x0203, Src: 0x0103

Frame 445: 53 bytes on wire (424 bits), 53 bytes captured (424 bits)
    Encapsulation type: IEEE 802.15.4 Wireless PAN (104)
    Arrival Time: Mar  3, 2023 16:19:14.174414000 CST
    [Time shift for this packet: 0.000000000 seconds]
    Epoch Time: 1677881954.174414000 seconds
    [Time delta from previous captured frame: 0.123434000 seconds]
    [Time delta from previous displayed frame: 0.123434000 seconds]
    [Time since reference or first frame: 18.122951000 seconds]
    Frame Number: 445
    Frame Length: 53 bytes (424 bits)
    Capture Length: 53 bytes (424 bits)
    [Frame is marked: False]
    [Frame is ignored: False]
    [Protocols in frame: wpan:data]
IEEE 802.15.4 Data, Dst: 0x0203, Src: 0x0103
    Frame Control Field: 0x8861, Frame Type: Data, Acknowledge Request, PAN ID Compression, Destination Addressing Mode: Short/16-bit, Frame Version: IEEE Std 802.15.4-2003, Source Addressing Mode: Short/16-bit
        .... .... .... .001 = Frame Type: Data (0x1)
        .... .... .... 0... = Security Enabled: False
        .... .... ...0 .... = Frame Pending: False
        .... .... ..1. .... = Acknowledge Request: True
        .... .... .1.. .... = PAN ID Compression: True
        .... .... 0... .... = Reserved: False
        .... ...0 .... .... = Sequence Number Suppression: False
        .... ..0. .... .... = Information Elements Present: False
        .... 10.. .... .... = Destination Addressing Mode: Short/16-bit (0x2)
        ..00 .... .... .... = Frame Version: IEEE Std 802.15.4-2003 (0)
        10.. .... .... .... = Source Addressing Mode: Short/16-bit (0x2)
    Sequence Number: 78
    Destination PAN: 0x3332
    Destination: 0x0203
    Source: 0x0103
    FCS: 0xfac7 (Correct)
    [Ack In: 446]
Data (42 bytes)
    Data: 8000fd1c0000f903012100009f2f10000000000000000000
    [Length: 42]

0000  61 88 4e 32 33 03 02 03 01 80 00 fd 1c 00 00 f9   a.N23...........
0010  03 01 21 00 00 9f 2f 10 00 00 00 00 00 00 00 00   ..!.../.........
0020  00 fa 00 00 00 03 01 00 00 01 00 00 00 00 00 1e   ................
0030  7f c0 d4 c7 fa                                    .....

No.     Time           Source                Destination           Protocol Length Info
    446 18.123484                                                  IEEE 802.15.4 5      Ack

Frame 446: 5 bytes on wire (40 bits), 5 bytes captured (40 bits)
    Encapsulation type: IEEE 802.15.4 Wireless PAN (104)
    Arrival Time: Mar  3, 2023 16:19:14.174947000 CST
    [Time shift for this packet: 0.000000000 seconds]
    Epoch Time: 1677881954.174947000 seconds
    [Time delta from previous captured frame: 0.000533000 seconds]
    [Time delta from previous displayed frame: 0.000533000 seconds]
    [Time since reference or first frame: 18.123484000 seconds]
    Frame Number: 446
    Frame Length: 5 bytes (40 bits)
    Capture Length: 5 bytes (40 bits)
    [Frame is marked: False]
    [Frame is ignored: False]
    [Protocols in frame: wpan]
IEEE 802.15.4 Ack, Sequence Number: 78
    Frame Control Field: 0x0002, Frame Type: Ack, Destination Addressing Mode: None, Frame Version: IEEE Std 802.15.4-2003, Source Addressing Mode: None
        .... .... .... .010 = Frame Type: Ack (0x2)
        .... .... .... 0... = Security Enabled: False
        .... .... ...0 .... = Frame Pending: False
        .... .... ..0. .... = Acknowledge Request: False
        .... .... .0.. .... = PAN ID Compression: False
        .... .... 0... .... = Reserved: False
        .... ...0 .... .... = Sequence Number Suppression: False
        .... ..0. .... .... = Information Elements Present: False
        .... 00.. .... .... = Destination Addressing Mode: None (0x0)
        ..00 .... .... .... = Frame Version: IEEE Std 802.15.4-2003 (0)
        00.. .... .... .... = Source Addressing Mode: None (0x0)
    Sequence Number: 78
    FCS: 0x1ec2 (Correct)
    [Ack To: 445]
    [Ack Time: 0.533 ms]

0000  02 00 4e c2 1e                                    ..N..

No.     Time           Source                Destination           Protocol Length Info
    447 18.255653      0x0103                0x0203                IEEE 802.15.4 77     Data, Dst: 0x0203, Src: 0x0103

Frame 447: 77 bytes on wire (616 bits), 77 bytes captured (616 bits)
    Encapsulation type: IEEE 802.15.4 Wireless PAN (104)
    Arrival Time: Mar  3, 2023 16:19:14.307116000 CST
    [Time shift for this packet: 0.000000000 seconds]
    Epoch Time: 1677881954.307116000 seconds
    [Time delta from previous captured frame: 0.132169000 seconds]
    [Time delta from previous displayed frame: 0.132169000 seconds]
    [Time since reference or first frame: 18.255653000 seconds]
    Frame Number: 447
    Frame Length: 77 bytes (616 bits)
    Capture Length: 77 bytes (616 bits)
    [Frame is marked: False]
    [Frame is ignored: False]
    [Protocols in frame: wpan:data]
IEEE 802.15.4 Data, Dst: 0x0203, Src: 0x0103
    Frame Control Field: 0x8861, Frame Type: Data, Acknowledge Request, PAN ID Compression, Destination Addressing Mode: Short/16-bit, Frame Version: IEEE Std 802.15.4-2003, Source Addressing Mode: Short/16-bit
        .... .... .... .001 = Frame Type: Data (0x1)
        .... .... .... 0... = Security Enabled: False
        .... .... ...0 .... = Frame Pending: False
        .... .... ..1. .... = Acknowledge Request: True
        .... .... .1.. .... = PAN ID Compression: True
        .... .... 0... .... = Reserved: False
        .... ...0 .... .... = Sequence Number Suppression: False
        .... ..0. .... .... = Information Elements Present: False
        .... 10.. .... .... = Destination Addressing Mode: Short/16-bit (0x2)
        ..00 .... .... .... = Frame Version: IEEE Std 802.15.4-2003 (0)
        10.. .... .... .... = Source Addressing Mode: Short/16-bit (0x2)
    Sequence Number: 79
    Destination PAN: 0x3332
    Destination: 0x0203
    Source: 0x0103
    FCS: 0x3215 (Correct)
    [Ack In: 448]
Data (66 bytes)
    Data: 8100fd1f0000fa03010100000ffc60130f1c60100f9c5001
    [Length: 66]

0000  61 88 4f 32 33 03 02 03 01 81 00 fd 1f 00 00 fa   a.O23...........
0010  03 01 01 00 00 0f fc 60 13 0f 1c 60 10 0f 9c 50   .......`...`...P
0020  01 f2 01 00 00 ff ff 00 00 00 00 00 00 00 00 00   ................
0030  00 00 00 ff 27 e8 fd 16 00 00 fb 03 01 c1 00 00   ....'...........
0040  00 00 00 00 c4 dd 48 3b c7 71 8f 15 32            ......H;.q..2

No.     Time           Source                Destination           Protocol Length Info
    448 18.256151                                                  IEEE 802.15.4 5      Ack

Frame 448: 5 bytes on wire (40 bits), 5 bytes captured (40 bits)
    Encapsulation type: IEEE 802.15.4 Wireless PAN (104)
    Arrival Time: Mar  3, 2023 16:19:14.307614000 CST
    [Time shift for this packet: 0.000000000 seconds]
    Epoch Time: 1677881954.307614000 seconds
    [Time delta from previous captured frame: 0.000498000 seconds]
    [Time delta from previous displayed frame: 0.000498000 seconds]
    [Time since reference or first frame: 18.256151000 seconds]
    Frame Number: 448
    Frame Length: 5 bytes (40 bits)
    Capture Length: 5 bytes (40 bits)
    [Frame is marked: False]
    [Frame is ignored: False]
    [Protocols in frame: wpan]
IEEE 802.15.4 Ack, Sequence Number: 79
    Frame Control Field: 0x0002, Frame Type: Ack, Destination Addressing Mode: None, Frame Version: IEEE Std 802.15.4-2003, Source Addressing Mode: None
        .... .... .... .010 = Frame Type: Ack (0x2)
        .... .... .... 0... = Security Enabled: False
        .... .... ...0 .... = Frame Pending: False
        .... .... ..0. .... = Acknowledge Request: False
        .... .... .0.. .... = PAN ID Compression: False
        .... .... 0... .... = Reserved: False
        .... ...0 .... .... = Sequence Number Suppression: False
        .... ..0. .... .... = Information Elements Present: False
        .... 00.. .... .... = Destination Addressing Mode: None (0x0)
        ..00 .... .... .... = Frame Version: IEEE Std 802.15.4-2003 (0)
        00.. .... .... .... = Source Addressing Mode: None (0x0)
    Sequence Number: 79
    FCS: 0x0f4b (Correct)
    [Ack To: 447]
    [Ack Time: 0.498 ms]

0000  02 00 4f 4b 0f                                    ..OK.

No.     Time           Source                Destination           Protocol Length Info
    449 18.274111      0x0103                0x0203                IEEE 802.15.4 106    Data, Dst: 0x0203, Src: 0x0103

Frame 449: 106 bytes on wire (848 bits), 106 bytes captured (848 bits)
    Encapsulation type: IEEE 802.15.4 Wireless PAN (104)
    Arrival Time: Mar  3, 2023 16:19:14.325574000 CST
    [Time shift for this packet: 0.000000000 seconds]
    Epoch Time: 1677881954.325574000 seconds
    [Time delta from previous captured frame: 0.017960000 seconds]
    [Time delta from previous displayed frame: 0.017960000 seconds]
    [Time since reference or first frame: 18.274111000 seconds]
    Frame Number: 449
    Frame Length: 106 bytes (848 bits)
    Capture Length: 106 bytes (848 bits)
    [Frame is marked: False]
    [Frame is ignored: False]
    [Protocols in frame: wpan:data]
IEEE 802.15.4 Data, Dst: 0x0203, Src: 0x0103
    Frame Control Field: 0x8861, Frame Type: Data, Acknowledge Request, PAN ID Compression, Destination Addressing Mode: Short/16-bit, Frame Version: IEEE Std 802.15.4-2003, Source Addressing Mode: Short/16-bit
        .... .... .... .001 = Frame Type: Data (0x1)
        .... .... .... 0... = Security Enabled: False
        .... .... ...0 .... = Frame Pending: False
        .... .... ..1. .... = Acknowledge Request: True
        .... .... .1.. .... = PAN ID Compression: True
        .... .... 0... .... = Reserved: False
        .... ...0 .... .... = Sequence Number Suppression: False
        .... ..0. .... .... = Information Elements Present: False
        .... 10.. .... .... = Destination Addressing Mode: Short/16-bit (0x2)
        ..00 .... .... .... = Frame Version: IEEE Std 802.15.4-2003 (0)
        10.. .... .... .... = Source Addressing Mode: Short/16-bit (0x2)
    Sequence Number: 80
    Destination PAN: 0x3332
    Destination: 0x0203
    Source: 0x0103
    FCS: 0x2a42 (Correct)
    [Ack In: 450]
Data (95 bytes)
    Data: 82003c09a2d13d00000000a501e5f6fd1c0000fc03011e00
    [Length: 95]

0000  61 88 50 32 33 03 02 03 01 82 00 3c 09 a2 d1 3d   a.P23......<...=
0010  00 00 00 00 a5 01 e5 f6 fd 1c 00 00 fc 03 01 1e   ................
0020  00 00 1f 30 10 00 35 17 a3 3d 62 79 27 3b 6e 88   ...0..5..=by';n.
0030  1a bf 26 64 5a b9 d0 75 d3 39 97 6c 65 3b 45 3f   ..&dZ..u.9.le;E?
0040  fd 1c 00 00 fd 03 01 21 00 00 21 30 10 00 00 00   .......!..!0....
0050  00 00 00 00 00 00 18 01 00 00 1a 01 00 00 01 00   ................
0060  00 00 00 00 1e 7f e7 56 42 2a                     .......VB*

No.     Time           Source                Destination           Protocol Length Info
    450 18.274647                                                  IEEE 802.15.4 5      Ack

Frame 450: 5 bytes on wire (40 bits), 5 bytes captured (40 bits)
    Encapsulation type: IEEE 802.15.4 Wireless PAN (104)
    Arrival Time: Mar  3, 2023 16:19:14.326110000 CST
    [Time shift for this packet: 0.000000000 seconds]
    Epoch Time: 1677881954.326110000 seconds
    [Time delta from previous captured frame: 0.000536000 seconds]
    [Time delta from previous displayed frame: 0.000536000 seconds]
    [Time since reference or first frame: 18.274647000 seconds]
    Frame Number: 450
    Frame Length: 5 bytes (40 bits)
    Capture Length: 5 bytes (40 bits)
    [Frame is marked: False]
    [Frame is ignored: False]
    [Protocols in frame: wpan]
IEEE 802.15.4 Ack, Sequence Number: 80
    Frame Control Field: 0x0002, Frame Type: Ack, Destination Addressing Mode: None, Frame Version: IEEE Std 802.15.4-2003, Source Addressing Mode: None
        .... .... .... .010 = Frame Type: Ack (0x2)
        .... .... .... 0... = Security Enabled: False
        .... .... ...0 .... = Frame Pending: False
        .... .... ..0. .... = Acknowledge Request: False
        .... .... .0.. .... = PAN ID Compression: False
        .... .... 0... .... = Reserved: False
        .... ...0 .... .... = Sequence Number Suppression: False
        .... ..0. .... .... = Information Elements Present: False
        .... 00.. .... .... = Destination Addressing Mode: None (0x0)
        ..00 .... .... .... = Frame Version: IEEE Std 802.15.4-2003 (0)
        00.. .... .... .... = Source Addressing Mode: None (0x0)
    Sequence Number: 80
    FCS: 0xe73d (Correct)
    [Ack To: 449]
    [Ack Time: 0.536 ms]

0000  02 00 50 3d e7                                    ..P=.

No.     Time           Source                Destination           Protocol Length Info
    451 18.286808      0x0103                0x0203                IEEE 802.15.4 59     Data, Dst: 0x0203, Src: 0x0103

Frame 451: 59 bytes on wire (472 bits), 59 bytes captured (472 bits)
    Encapsulation type: IEEE 802.15.4 Wireless PAN (104)
    Arrival Time: Mar  3, 2023 16:19:14.338271000 CST
    [Time shift for this packet: 0.000000000 seconds]
    Epoch Time: 1677881954.338271000 seconds
    [Time delta from previous captured frame: 0.012161000 seconds]
    [Time delta from previous displayed frame: 0.012161000 seconds]
    [Time since reference or first frame: 18.286808000 seconds]
    Frame Number: 451
    Frame Length: 59 bytes (472 bits)
    Capture Length: 59 bytes (472 bits)
    [Frame is marked: False]
    [Frame is ignored: False]
    [Protocols in frame: wpan:data]
IEEE 802.15.4 Data, Dst: 0x0203, Src: 0x0103
    Frame Control Field: 0x8861, Frame Type: Data, Acknowledge Request, PAN ID Compression, Destination Addressing Mode: Short/16-bit, Frame Version: IEEE Std 802.15.4-2003, Source Addressing Mode: Short/16-bit
        .... .... .... .001 = Frame Type: Data (0x1)
        .... .... .... 0... = Security Enabled: False
        .... .... ...0 .... = Frame Pending: False
        .... .... ..1. .... = Acknowledge Request: True
        .... .... .1.. .... = PAN ID Compression: True
        .... .... 0... .... = Reserved: False
        .... ...0 .... .... = Sequence Number Suppression: False
        .... ..0. .... .... = Information Elements Present: False
        .... 10.. .... .... = Destination Addressing Mode: Short/16-bit (0x2)
        ..00 .... .... .... = Frame Version: IEEE Std 802.15.4-2003 (0)
        10.. .... .... .... = Source Addressing Mode: Short/16-bit (0x2)
    Sequence Number: 81
    Destination PAN: 0x3332
    Destination: 0x0203
    Source: 0x0103
    FCS: 0xa11e (Correct)
    [Ack In: 452]
Data (48 bytes)
    Data: 8300fd220000fe0301fd000006454b463220494d55312074
    [Length: 48]

0000  61 88 51 32 33 03 02 03 01 83 00 fd 22 00 00 fe   a.Q23......."...
0010  03 01 fd 00 00 06 45 4b 46 32 20 49 4d 55 31 20   ......EKF2 IMU1 
0020  74 69 6c 74 20 61 6c 69 67 6e 6d 65 6e 74 20 63   tilt alignment c
0030  6f 6d 70 6c 65 74 65 88 25 1e a1                  omplete.%..

No.     Time           Source                Destination           Protocol Length Info
    452 18.287349                                                  IEEE 802.15.4 5      Ack

Frame 452: 5 bytes on wire (40 bits), 5 bytes captured (40 bits)
    Encapsulation type: IEEE 802.15.4 Wireless PAN (104)
    Arrival Time: Mar  3, 2023 16:19:14.338812000 CST
    [Time shift for this packet: 0.000000000 seconds]
    Epoch Time: 1677881954.338812000 seconds
    [Time delta from previous captured frame: 0.000541000 seconds]
    [Time delta from previous displayed frame: 0.000541000 seconds]
    [Time since reference or first frame: 18.287349000 seconds]
    Frame Number: 452
    Frame Length: 5 bytes (40 bits)
    Capture Length: 5 bytes (40 bits)
    [Frame is marked: False]
    [Frame is ignored: False]
    [Protocols in frame: wpan]
IEEE 802.15.4 Ack, Sequence Number: 81
    Frame Control Field: 0x0002, Frame Type: Ack, Destination Addressing Mode: None, Frame Version: IEEE Std 802.15.4-2003, Source Addressing Mode: None
        .... .... .... .010 = Frame Type: Ack (0x2)
        .... .... .... 0... = Security Enabled: False
        .... .... ...0 .... = Frame Pending: False
        .... .... ..0. .... = Acknowledge Request: False
        .... .... .0.. .... = PAN ID Compression: False
        .... .... 0... .... = Reserved: False
        .... ...0 .... .... = Sequence Number Suppression: False
        .... ..0. .... .... = Information Elements Present: False
        .... 00.. .... .... = Destination Addressing Mode: None (0x0)
        ..00 .... .... .... = Frame Version: IEEE Std 802.15.4-2003 (0)
        00.. .... .... .... = Source Addressing Mode: None (0x0)
    Sequence Number: 81
    FCS: 0xf6b4 (Correct)
    [Ack To: 451]
    [Ack Time: 0.541 ms]

0000  02 00 51 b4 f6                                    ..Q..

No.     Time           Source                Destination           Protocol Length Info
    453 18.321492      0x0000                0x09fd                ZigBee   34     Unknown Command

Frame 453: 34 bytes on wire (272 bits), 34 bytes captured (272 bits)
    Encapsulation type: IEEE 802.15.4 Wireless PAN (104)
    Arrival Time: Mar  3, 2023 16:19:14.372955000 CST
    [Time shift for this packet: 0.000000000 seconds]
    Epoch Time: 1677881954.372955000 seconds
    [Time delta from previous captured frame: 0.034143000 seconds]
    [Time delta from previous displayed frame: 0.034143000 seconds]
    [Time since reference or first frame: 18.321492000 seconds]
    Frame Number: 453
    Frame Length: 34 bytes (272 bits)
    Capture Length: 34 bytes (272 bits)
    [Frame is marked: False]
    [Frame is ignored: False]
    [Protocols in frame: wpan:zbee_nwk:zbee_aps:data]
IEEE 802.15.4 Data, Dst: 0x0203, Src: 0x0103
    Frame Control Field: 0x8861, Frame Type: Data, Acknowledge Request, PAN ID Compression, Destination Addressing Mode: Short/16-bit, Frame Version: IEEE Std 802.15.4-2003, Source Addressing Mode: Short/16-bit
        .... .... .... .001 = Frame Type: Data (0x1)
        .... .... .... 0... = Security Enabled: False
        .... .... ...0 .... = Frame Pending: False
        .... .... ..1. .... = Acknowledge Request: True
        .... .... .1.. .... = PAN ID Compression: True
        .... .... 0... .... = Reserved: False
        .... ...0 .... .... = Sequence Number Suppression: False
        .... ..0. .... .... = Information Elements Present: False
        .... 10.. .... .... = Destination Addressing Mode: Short/16-bit (0x2)
        ..00 .... .... .... = Frame Version: IEEE Std 802.15.4-2003 (0)
        10.. .... .... .... = Source Addressing Mode: Short/16-bit (0x2)
    Sequence Number: 82
    Destination PAN: 0x3332
    Destination: 0x0203
    Source: 0x0103
    FCS: 0x588d (Correct)
    [Ack In: 454]
ZigBee Network Layer Data, Dst: 0x09fd, Src: 0x0000
    Frame Control Field: 0x0084, Frame Type: Data, Discover Route: Unknown Data
        .... .... .... ..00 = Frame Type: Data (0x0)
        .... .... ..00 01.. = Protocol Version: 1
        .... .... 10.. .... = Discover Route: Unknown (0x2)
        .... ..0. .... .... = Security: False
    Destination: 0x09fd
    Source: 0x0000
    Radius: 255
    Sequence Number: 3
ZigBee Application Support Layer Command
    Frame Control Field: Command (0x01)
        .... ..01 = Frame Type: Command (0x1)
        .... 00.. = Delivery Mode: Unicast (0x0)
        ..0. .... = Security: False
        .0.. .... = Acknowledgement Request: False
        0... .... = Extended Header: False
    Command Frame: Unknown
        Command Identifier: Unknown (0x00)
Data (13 bytes)
    Data: 0000000000000203510303afb8
    [Length: 13]

0000  61 88 52 32 33 03 02 03 01 84 00 fd 09 00 00 ff   a.R23...........
0010  03 01 00 00 00 00 00 00 00 02 03 51 03 03 af b8   ...........Q....
0020  8d 58                                             .X

No.     Time           Source                Destination           Protocol Length Info
    454 18.321861                                                  IEEE 802.15.4 5      Ack

Frame 454: 5 bytes on wire (40 bits), 5 bytes captured (40 bits)
    Encapsulation type: IEEE 802.15.4 Wireless PAN (104)
    Arrival Time: Mar  3, 2023 16:19:14.373324000 CST
    [Time shift for this packet: 0.000000000 seconds]
    Epoch Time: 1677881954.373324000 seconds
    [Time delta from previous captured frame: 0.000369000 seconds]
    [Time delta from previous displayed frame: 0.000369000 seconds]
    [Time since reference or first frame: 18.321861000 seconds]
    Frame Number: 454
    Frame Length: 5 bytes (40 bits)
    Capture Length: 5 bytes (40 bits)
    [Frame is marked: False]
    [Frame is ignored: False]
    [Protocols in frame: wpan]
IEEE 802.15.4 Ack, Sequence Number: 82
    Frame Control Field: 0x0002, Frame Type: Ack, Destination Addressing Mode: None, Frame Version: IEEE Std 802.15.4-2003, Source Addressing Mode: None
        .... .... .... .010 = Frame Type: Ack (0x2)
        .... .... .... 0... = Security Enabled: False
        .... .... ...0 .... = Frame Pending: False
        .... .... ..0. .... = Acknowledge Request: False
        .... .... .0.. .... = PAN ID Compression: False
        .... .... 0... .... = Reserved: False
        .... ...0 .... .... = Sequence Number Suppression: False
        .... ..0. .... .... = Information Elements Present: False
        .... 00.. .... .... = Destination Addressing Mode: None (0x0)
        ..00 .... .... .... = Frame Version: IEEE Std 802.15.4-2003 (0)
        00.. .... .... .... = Source Addressing Mode: None (0x0)
    Sequence Number: 82
    FCS: 0xc42f (Correct)
    [Ack To: 453]
    [Ack Time: 0.369 ms]

0000  02 00 52 2f c4                                    ..R/.

No.     Time           Source                Destination           Protocol Length Info
    455 18.373047      0x0000                0x1cfd                ZigBee   53     Route Request, Dst: 0x9900, Src: 0x0000

Frame 455: 53 bytes on wire (424 bits), 53 bytes captured (424 bits)
    Encapsulation type: IEEE 802.15.4 Wireless PAN (104)
    Arrival Time: Mar  3, 2023 16:19:14.424510000 CST
    [Time shift for this packet: 0.000000000 seconds]
    Epoch Time: 1677881954.424510000 seconds
    [Time delta from previous captured frame: 0.051186000 seconds]
    [Time delta from previous displayed frame: 0.051186000 seconds]
    [Time since reference or first frame: 18.373047000 seconds]
    Frame Number: 455
    Frame Length: 53 bytes (424 bits)
    Capture Length: 53 bytes (424 bits)
    [Frame is marked: False]
    [Frame is ignored: False]
    [Protocols in frame: wpan:zbee_nwk:data]
IEEE 802.15.4 Data, Dst: 0x0203, Src: 0x0103
    Frame Control Field: 0x8861, Frame Type: Data, Acknowledge Request, PAN ID Compression, Destination Addressing Mode: Short/16-bit, Frame Version: IEEE Std 802.15.4-2003, Source Addressing Mode: Short/16-bit
        .... .... .... .001 = Frame Type: Data (0x1)
        .... .... .... 0... = Security Enabled: False
        .... .... ...0 .... = Frame Pending: False
        .... .... ..1. .... = Acknowledge Request: True
        .... .... .1.. .... = PAN ID Compression: True
        .... .... 0... .... = Reserved: False
        .... ...0 .... .... = Sequence Number Suppression: False
        .... ..0. .... .... = Information Elements Present: False
        .... 10.. .... .... = Destination Addressing Mode: Short/16-bit (0x2)
        ..00 .... .... .... = Frame Version: IEEE Std 802.15.4-2003 (0)
        10.. .... .... .... = Source Addressing Mode: Short/16-bit (0x2)
    Sequence Number: 83
    Destination PAN: 0x3332
    Destination: 0x0203
    Source: 0x0103
    FCS: 0x9e2d (Correct)
    [Ack In: 456]
ZigBee Network Layer Command, Dst: 0x1cfd, Src: 0x0000
    Frame Control Field: 0x0085, Frame Type: Command, Discover Route: Unknown Command
        .... .... .... ..01 = Frame Type: Command (0x1)
        .... .... ..00 01.. = Protocol Version: 1
        .... .... 10.. .... = Discover Route: Unknown (0x2)
        .... ..0. .... .... = Security: False
    Destination: 0x1cfd
    Source: 0x0000
    Radius: 0
    Sequence Number: 3
    Command Frame: Route Request
        Command Identifier: Route Request (0x01)
        Command Options: 0x21
            0... .... = Route Repair: False
        Route ID: 0
        Destination: 0x9900
        Path Cost: 48
        Extended Destination: 00:00:00_00:00:00:00:10 (00:00:00:00:00:00:00:10)
Data (20 bytes)
    Data: 000072010000740100000100000000001d7f25b9
    [Length: 20]

0000  61 88 53 32 33 03 02 03 01 85 00 fd 1c 00 00 00   a.S23...........
0010  03 01 21 00 00 99 30 10 00 00 00 00 00 00 00 00   ..!...0.........
0020  00 72 01 00 00 74 01 00 00 01 00 00 00 00 00 1d   .r...t..........
0030  7f 25 b9 2d 9e                                    .%.-.

No.     Time           Source                Destination           Protocol Length Info
    456 18.373569                                                  IEEE 802.15.4 5      Ack

Frame 456: 5 bytes on wire (40 bits), 5 bytes captured (40 bits)
    Encapsulation type: IEEE 802.15.4 Wireless PAN (104)
    Arrival Time: Mar  3, 2023 16:19:14.425032000 CST
    [Time shift for this packet: 0.000000000 seconds]
    Epoch Time: 1677881954.425032000 seconds
    [Time delta from previous captured frame: 0.000522000 seconds]
    [Time delta from previous displayed frame: 0.000522000 seconds]
    [Time since reference or first frame: 18.373569000 seconds]
    Frame Number: 456
    Frame Length: 5 bytes (40 bits)
    Capture Length: 5 bytes (40 bits)
    [Frame is marked: False]
    [Frame is ignored: False]
    [Protocols in frame: wpan]
IEEE 802.15.4 Ack, Sequence Number: 83
    Frame Control Field: 0x0002, Frame Type: Ack, Destination Addressing Mode: None, Frame Version: IEEE Std 802.15.4-2003, Source Addressing Mode: None
        .... .... .... .010 = Frame Type: Ack (0x2)
        .... .... .... 0... = Security Enabled: False
        .... .... ...0 .... = Frame Pending: False
        .... .... ..0. .... = Acknowledge Request: False
        .... .... .0.. .... = PAN ID Compression: False
        .... .... 0... .... = Reserved: False
        .... ...0 .... .... = Sequence Number Suppression: False
        .... ..0. .... .... = Information Elements Present: False
        .... 00.. .... .... = Destination Addressing Mode: None (0x0)
        ..00 .... .... .... = Frame Version: IEEE Std 802.15.4-2003 (0)
        00.. .... .... .... = Source Addressing Mode: None (0x0)
    Sequence Number: 83
    FCS: 0xd5a6 (Correct)
    [Ack To: 455]
    [Ack Time: 0.522 ms]

0000  02 00 53 a6 d5                                    ..S..

No.     Time           Source                Destination           Protocol Length Info
    457 18.498649      0x0103                0x0203                IEEE 802.15.4 53     Data, Dst: 0x0203, Src: 0x0103

Frame 457: 53 bytes on wire (424 bits), 53 bytes captured (424 bits)
    Encapsulation type: IEEE 802.15.4 Wireless PAN (104)
    Arrival Time: Mar  3, 2023 16:19:14.550112000 CST
    [Time shift for this packet: 0.000000000 seconds]
    Epoch Time: 1677881954.550112000 seconds
    [Time delta from previous captured frame: 0.125080000 seconds]
    [Time delta from previous displayed frame: 0.125080000 seconds]
    [Time since reference or first frame: 18.498649000 seconds]
    Frame Number: 457
    Frame Length: 53 bytes (424 bits)
    Capture Length: 53 bytes (424 bits)
    [Frame is marked: False]
    [Frame is ignored: False]
    [Protocols in frame: wpan:data]
IEEE 802.15.4 Data, Dst: 0x0203, Src: 0x0103
    Frame Control Field: 0x8861, Frame Type: Data, Acknowledge Request, PAN ID Compression, Destination Addressing Mode: Short/16-bit, Frame Version: IEEE Std 802.15.4-2003, Source Addressing Mode: Short/16-bit
        .... .... .... .001 = Frame Type: Data (0x1)
        .... .... .... 0... = Security Enabled: False
        .... .... ...0 .... = Frame Pending: False
        .... .... ..1. .... = Acknowledge Request: True
        .... .... .1.. .... = PAN ID Compression: True
        .... .... 0... .... = Reserved: False
        .... ...0 .... .... = Sequence Number Suppression: False
        .... ..0. .... .... = Information Elements Present: False
        .... 10.. .... .... = Destination Addressing Mode: Short/16-bit (0x2)
        ..00 .... .... .... = Frame Version: IEEE Std 802.15.4-2003 (0)
        10.. .... .... .... = Source Addressing Mode: Short/16-bit (0x2)
    Sequence Number: 84
    Destination PAN: 0x3332
    Destination: 0x0203
    Source: 0x0103
    FCS: 0x1282 (Correct)
    [Ack In: 458]
Data (42 bytes)
    Data: 8600fd1c0000010301210000173110000000000000000000
    [Length: 42]

0000  61 88 54 32 33 03 02 03 01 86 00 fd 1c 00 00 01   a.T23...........
0010  03 01 21 00 00 17 31 10 00 00 00 00 00 00 00 00   ..!...1.........
0020  00 ae 01 00 00 b0 01 00 00 01 00 00 00 00 00 1d   ................
0030  7f 18 f5 82 12                                    .....

No.     Time           Source                Destination           Protocol Length Info
    458 18.499192                                                  IEEE 802.15.4 5      Ack

Frame 458: 5 bytes on wire (40 bits), 5 bytes captured (40 bits)
    Encapsulation type: IEEE 802.15.4 Wireless PAN (104)
    Arrival Time: Mar  3, 2023 16:19:14.550655000 CST
    [Time shift for this packet: 0.000000000 seconds]
    Epoch Time: 1677881954.550655000 seconds
    [Time delta from previous captured frame: 0.000543000 seconds]
    [Time delta from previous displayed frame: 0.000543000 seconds]
    [Time since reference or first frame: 18.499192000 seconds]
    Frame Number: 458
    Frame Length: 5 bytes (40 bits)
    Capture Length: 5 bytes (40 bits)
    [Frame is marked: False]
    [Frame is ignored: False]
    [Protocols in frame: wpan]
IEEE 802.15.4 Ack, Sequence Number: 84
    Frame Control Field: 0x0002, Frame Type: Ack, Destination Addressing Mode: None, Frame Version: IEEE Std 802.15.4-2003, Source Addressing Mode: None
        .... .... .... .010 = Frame Type: Ack (0x2)
        .... .... .... 0... = Security Enabled: False
        .... .... ...0 .... = Frame Pending: False
        .... .... ..0. .... = Acknowledge Request: False
        .... .... .0.. .... = PAN ID Compression: False
        .... .... 0... .... = Reserved: False
        .... ...0 .... .... = Sequence Number Suppression: False
        .... ..0. .... .... = Information Elements Present: False
        .... 00.. .... .... = Destination Addressing Mode: None (0x0)
        ..00 .... .... .... = Frame Version: IEEE Std 802.15.4-2003 (0)
        00.. .... .... .... = Source Addressing Mode: None (0x0)
    Sequence Number: 84
    FCS: 0xa119 (Correct)
    [Ack To: 457]
    [Ack Time: 0.543 ms]

0000  02 00 54 19 a1                                    ..T..

No.     Time           Source                Destination           Protocol Length Info
    459 18.622839      0x0103                0x0203                IEEE 802.15.4 53     Data, Dst: 0x0203, Src: 0x0103

Frame 459: 53 bytes on wire (424 bits), 53 bytes captured (424 bits)
    Encapsulation type: IEEE 802.15.4 Wireless PAN (104)
    Arrival Time: Mar  3, 2023 16:19:14.674302000 CST
    [Time shift for this packet: 0.000000000 seconds]
    Epoch Time: 1677881954.674302000 seconds
    [Time delta from previous captured frame: 0.123647000 seconds]
    [Time delta from previous displayed frame: 0.123647000 seconds]
    [Time since reference or first frame: 18.622839000 seconds]
    Frame Number: 459
    Frame Length: 53 bytes (424 bits)
    Capture Length: 53 bytes (424 bits)
    [Frame is marked: False]
    [Frame is ignored: False]
    [Protocols in frame: wpan:data]
IEEE 802.15.4 Data, Dst: 0x0203, Src: 0x0103
    Frame Control Field: 0x8861, Frame Type: Data, Acknowledge Request, PAN ID Compression, Destination Addressing Mode: Short/16-bit, Frame Version: IEEE Std 802.15.4-2003, Source Addressing Mode: Short/16-bit
        .... .... .... .001 = Frame Type: Data (0x1)
        .... .... .... 0... = Security Enabled: False
        .... .... ...0 .... = Frame Pending: False
        .... .... ..1. .... = Acknowledge Request: True
        .... .... .1.. .... = PAN ID Compression: True
        .... .... 0... .... = Reserved: False
        .... ...0 .... .... = Sequence Number Suppression: False
        .... ..0. .... .... = Information Elements Present: False
        .... 10.. .... .... = Destination Addressing Mode: Short/16-bit (0x2)
        ..00 .... .... .... = Frame Version: IEEE Std 802.15.4-2003 (0)
        10.. .... .... .... = Source Addressing Mode: Short/16-bit (0x2)
    Sequence Number: 85
    Destination PAN: 0x3332
    Destination: 0x0203
    Source: 0x0103
    FCS: 0xf74a (Correct)
    [Ack In: 460]
Data (42 bytes)
    Data: 8700fd1c0000020301210000933110000000000000000000
    [Length: 42]

0000  61 88 55 32 33 03 02 03 01 87 00 fd 1c 00 00 02   a.U23...........
0010  03 01 21 00 00 93 31 10 00 00 00 00 00 00 00 00   ..!...1.........
0020  00 2c 01 00 00 31 01 00 00 00 00 00 00 00 00 1c   .,...1..........
0030  7f 93 ca 4a f7                                    ...J.

No.     Time           Source                Destination           Protocol Length Info
    460 18.623308                                                  IEEE 802.15.4 5      Ack

Frame 460: 5 bytes on wire (40 bits), 5 bytes captured (40 bits)
    Encapsulation type: IEEE 802.15.4 Wireless PAN (104)
    Arrival Time: Mar  3, 2023 16:19:14.674771000 CST
    [Time shift for this packet: 0.000000000 seconds]
    Epoch Time: 1677881954.674771000 seconds
    [Time delta from previous captured frame: 0.000469000 seconds]
    [Time delta from previous displayed frame: 0.000469000 seconds]
    [Time since reference or first frame: 18.623308000 seconds]
    Frame Number: 460
    Frame Length: 5 bytes (40 bits)
    Capture Length: 5 bytes (40 bits)
    [Frame is marked: False]
    [Frame is ignored: False]
    [Protocols in frame: wpan]
IEEE 802.15.4 Ack, Sequence Number: 85
    Frame Control Field: 0x0002, Frame Type: Ack, Destination Addressing Mode: None, Frame Version: IEEE Std 802.15.4-2003, Source Addressing Mode: None
        .... .... .... .010 = Frame Type: Ack (0x2)
        .... .... .... 0... = Security Enabled: False
        .... .... ...0 .... = Frame Pending: False
        .... .... ..0. .... = Acknowledge Request: False
        .... .... .0.. .... = PAN ID Compression: False
        .... .... 0... .... = Reserved: False
        .... ...0 .... .... = Sequence Number Suppression: False
        .... ..0. .... .... = Information Elements Present: False
        .... 00.. .... .... = Destination Addressing Mode: None (0x0)
        ..00 .... .... .... = Frame Version: IEEE Std 802.15.4-2003 (0)
        00.. .... .... .... = Source Addressing Mode: None (0x0)
    Sequence Number: 85
    FCS: 0xb090 (Correct)
    [Ack To: 459]
    [Ack Time: 0.469 ms]

0000  02 00 55 90 b0                                    ..U..

No.     Time           Source                Destination           Protocol Length Info
    461 18.757473      0x0000                0x1cfd                ZigBee   93     Unknown Command

Frame 461: 93 bytes on wire (744 bits), 93 bytes captured (744 bits)
    Encapsulation type: IEEE 802.15.4 Wireless PAN (104)
    Arrival Time: Mar  3, 2023 16:19:14.808936000 CST
    [Time shift for this packet: 0.000000000 seconds]
    Epoch Time: 1677881954.808936000 seconds
    [Time delta from previous captured frame: 0.134165000 seconds]
    [Time delta from previous displayed frame: 0.134165000 seconds]
    [Time since reference or first frame: 18.757473000 seconds]
    Frame Number: 461
    Frame Length: 93 bytes (744 bits)
    Capture Length: 93 bytes (744 bits)
    [Frame is marked: False]
    [Frame is ignored: False]
    [Protocols in frame: wpan:zbee_nwk:zbee_aps:data]
IEEE 802.15.4 Data, Dst: 0x0203, Src: 0x0103
    Frame Control Field: 0x8861, Frame Type: Data, Acknowledge Request, PAN ID Compression, Destination Addressing Mode: Short/16-bit, Frame Version: IEEE Std 802.15.4-2003, Source Addressing Mode: Short/16-bit
        .... .... .... .001 = Frame Type: Data (0x1)
        .... .... .... 0... = Security Enabled: False
        .... .... ...0 .... = Frame Pending: False
        .... .... ..1. .... = Acknowledge Request: True
        .... .... .1.. .... = PAN ID Compression: True
        .... .... 0... .... = Reserved: False
        .... ...0 .... .... = Sequence Number Suppression: False
        .... ..0. .... .... = Information Elements Present: False
        .... 10.. .... .... = Destination Addressing Mode: Short/16-bit (0x2)
        ..00 .... .... .... = Frame Version: IEEE Std 802.15.4-2003 (0)
        10.. .... .... .... = Source Addressing Mode: Short/16-bit (0x2)
    Sequence Number: 86
    Destination PAN: 0x3332
    Destination: 0x0203
    Source: 0x0103
    FCS: 0xf4db (Correct)
    [Ack In: 462]
ZigBee Network Layer Data, Dst: 0x1cfd, Src: 0x0000
    Frame Control Field: 0x0088, Frame Type: Data, Discover Route: Unknown Data
        .... .... .... ..00 = Frame Type: Data (0x0)
        .... .... ..00 10.. = Protocol Version: 2
        .... .... 10.. .... = Discover Route: Unknown (0x2)
        .... ...0 .... .... = Multicast: False
        .... ..0. .... .... = Security: False
        .... .0.. .... .... = Source Route: False
        .... 0... .... .... = Destination: False
        ...0 .... .... .... = Extended Source: False
        ..0. .... .... .... = End Device Initiator: False
    Destination: 0x1cfd
    Source: 0x0000
    Radius: 3
    Sequence Number: 3
ZigBee Application Support Layer Command
    Frame Control Field: Command (0x01)
        .... ..01 = Frame Type: Command (0x1)
        .... 00.. = Delivery Mode: Unicast (0x0)
        ..0. .... = Security: False
        .0.. .... = Acknowledgement Request: False
        0... .... = Extended Header: False
    Counter: 30
    Command Frame: Unknown
        Command Identifier: Unknown (0x00)
Data (71 bytes)
    Data: 00113210008416a33de658283be7a11abfc03f593af78918
    [Length: 71]

0000  61 88 56 32 33 03 02 03 01 88 00 fd 1c 00 00 03   a.V23...........
0010  03 01 1e 00 00 11 32 10 00 84 16 a3 3d e6 58 28   ......2.....=.X(
0020  3b e7 a1 1a bf c0 3f 59 3a f7 89 18 b9 06 f0 6b   ;.....?Y:......k
0030  3b c2 8e fd 1c 00 00 04 03 01 21 00 00 11 32 10   ;.........!...2.
0040  00 00 00 00 00 00 00 00 00 86 01 00 00 8b 01 00   ................
0050  00 00 00 00 00 00 00 1c 7f 06 da db f4            .............

No.     Time           Source                Destination           Protocol Length Info
    462 18.757984                                                  IEEE 802.15.4 5      Ack

Frame 462: 5 bytes on wire (40 bits), 5 bytes captured (40 bits)
    Encapsulation type: IEEE 802.15.4 Wireless PAN (104)
    Arrival Time: Mar  3, 2023 16:19:14.809447000 CST
    [Time shift for this packet: 0.000000000 seconds]
    Epoch Time: 1677881954.809447000 seconds
    [Time delta from previous captured frame: 0.000511000 seconds]
    [Time delta from previous displayed frame: 0.000511000 seconds]
    [Time since reference or first frame: 18.757984000 seconds]
    Frame Number: 462
    Frame Length: 5 bytes (40 bits)
    Capture Length: 5 bytes (40 bits)
    [Frame is marked: False]
    [Frame is ignored: False]
    [Protocols in frame: wpan]
IEEE 802.15.4 Ack, Sequence Number: 86
    Frame Control Field: 0x0002, Frame Type: Ack, Destination Addressing Mode: None, Frame Version: IEEE Std 802.15.4-2003, Source Addressing Mode: None
        .... .... .... .010 = Frame Type: Ack (0x2)
        .... .... .... 0... = Security Enabled: False
        .... .... ...0 .... = Frame Pending: False
        .... .... ..0. .... = Acknowledge Request: False
        .... .... .0.. .... = PAN ID Compression: False
        .... .... 0... .... = Reserved: False
        .... ...0 .... .... = Sequence Number Suppression: False
        .... ..0. .... .... = Information Elements Present: False
        .... 00.. .... .... = Destination Addressing Mode: None (0x0)
        ..00 .... .... .... = Frame Version: IEEE Std 802.15.4-2003 (0)
        00.. .... .... .... = Source Addressing Mode: None (0x0)
    Sequence Number: 86
    FCS: 0x820b (Correct)
    [Ack To: 461]
    [Ack Time: 0.511 ms]

0000  02 00 56 0b 82                                    ..V..

No.     Time           Source                Destination           Protocol Length Info
    463 18.823195      0x0203                0x0103                IEEE 802.15.4 34     Data, Dst: 0x0103, Src: 0x0203

Frame 463: 34 bytes on wire (272 bits), 34 bytes captured (272 bits)
    Encapsulation type: IEEE 802.15.4 Wireless PAN (104)
    Arrival Time: Mar  3, 2023 16:19:14.874658000 CST
    [Time shift for this packet: 0.000000000 seconds]
    Epoch Time: 1677881954.874658000 seconds
    [Time delta from previous captured frame: 0.065211000 seconds]
    [Time delta from previous displayed frame: 0.065211000 seconds]
    [Time since reference or first frame: 18.823195000 seconds]
    Frame Number: 463
    Frame Length: 34 bytes (272 bits)
    Capture Length: 34 bytes (272 bits)
    [Frame is marked: False]
    [Frame is ignored: False]
    [Protocols in frame: wpan:data]
IEEE 802.15.4 Data, Dst: 0x0103, Src: 0x0203
    Frame Control Field: 0x8861, Frame Type: Data, Acknowledge Request, PAN ID Compression, Destination Addressing Mode: Short/16-bit, Frame Version: IEEE Std 802.15.4-2003, Source Addressing Mode: Short/16-bit
        .... .... .... .001 = Frame Type: Data (0x1)
        .... .... .... 0... = Security Enabled: False
        .... .... ...0 .... = Frame Pending: False
        .... .... ..1. .... = Acknowledge Request: True
        .... .... .1.. .... = PAN ID Compression: True
        .... .... 0... .... = Reserved: False
        .... ...0 .... .... = Sequence Number Suppression: False
        .... ..0. .... .... = Information Elements Present: False
        .... 10.. .... .... = Destination Addressing Mode: Short/16-bit (0x2)
        ..00 .... .... .... = Frame Version: IEEE Std 802.15.4-2003 (0)
        10.. .... .... .... = Source Addressing Mode: Short/16-bit (0x2)
    Sequence Number: 227
    Destination PAN: 0x3332
    Destination: 0x0103
    Source: 0x0203
    FCS: 0x644b (Correct)
    [Ack In: 464]
Data (23 bytes)
    Data: 1700fd09000013ffbe000000000000000608c004034d48
    [Length: 23]

0000  61 88 e3 32 33 03 01 03 02 17 00 fd 09 00 00 13   a..23...........
0010  ff be 00 00 00 00 00 00 00 06 08 c0 04 03 4d 48   ..............MH
0020  4b 64                                             Kd

No.     Time           Source                Destination           Protocol Length Info
    464 18.823521                                                  IEEE 802.15.4 5      Ack

Frame 464: 5 bytes on wire (40 bits), 5 bytes captured (40 bits)
    Encapsulation type: IEEE 802.15.4 Wireless PAN (104)
    Arrival Time: Mar  3, 2023 16:19:14.874984000 CST
    [Time shift for this packet: 0.000000000 seconds]
    Epoch Time: 1677881954.874984000 seconds
    [Time delta from previous captured frame: 0.000326000 seconds]
    [Time delta from previous displayed frame: 0.000326000 seconds]
    [Time since reference or first frame: 18.823521000 seconds]
    Frame Number: 464
    Frame Length: 5 bytes (40 bits)
    Capture Length: 5 bytes (40 bits)
    [Frame is marked: False]
    [Frame is ignored: False]
    [Protocols in frame: wpan]
IEEE 802.15.4 Ack, Sequence Number: 227
    Frame Control Field: 0x0002, Frame Type: Ack, Destination Addressing Mode: None, Frame Version: IEEE Std 802.15.4-2003, Source Addressing Mode: None
        .... .... .... .010 = Frame Type: Ack (0x2)
        .... .... .... 0... = Security Enabled: False
        .... .... ...0 .... = Frame Pending: False
        .... .... ..0. .... = Acknowledge Request: False
        .... .... .0.. .... = PAN ID Compression: False
        .... .... 0... .... = Reserved: False
        .... ...0 .... .... = Sequence Number Suppression: False
        .... ..0. .... .... = Information Elements Present: False
        .... 00.. .... .... = Destination Addressing Mode: None (0x0)
        ..00 .... .... .... = Frame Version: IEEE Std 802.15.4-2003 (0)
        00.. .... .... .... = Source Addressing Mode: None (0x0)
    Sequence Number: 227
    FCS: 0x602d (Correct)
    [Ack To: 463]
    [Ack Time: 0.326 ms]

0000  02 00 e3 2d 60                                    ...-`

No.     Time           Source                Destination           Protocol Length Info
    465 18.872723      0x0000                0x1cfd                ZigBee   53     Route Request, Dst: 0x8d00, Src: 0x0000

Frame 465: 53 bytes on wire (424 bits), 53 bytes captured (424 bits)
    Encapsulation type: IEEE 802.15.4 Wireless PAN (104)
    Arrival Time: Mar  3, 2023 16:19:14.924186000 CST
    [Time shift for this packet: 0.000000000 seconds]
    Epoch Time: 1677881954.924186000 seconds
    [Time delta from previous captured frame: 0.049202000 seconds]
    [Time delta from previous displayed frame: 0.049202000 seconds]
    [Time since reference or first frame: 18.872723000 seconds]
    Frame Number: 465
    Frame Length: 53 bytes (424 bits)
    Capture Length: 53 bytes (424 bits)
    [Frame is marked: False]
    [Frame is ignored: False]
    [Protocols in frame: wpan:zbee_nwk:data]
IEEE 802.15.4 Data, Dst: 0x0203, Src: 0x0103
    Frame Control Field: 0x8861, Frame Type: Data, Acknowledge Request, PAN ID Compression, Destination Addressing Mode: Short/16-bit, Frame Version: IEEE Std 802.15.4-2003, Source Addressing Mode: Short/16-bit
        .... .... .... .001 = Frame Type: Data (0x1)
        .... .... .... 0... = Security Enabled: False
        .... .... ...0 .... = Frame Pending: False
        .... .... ..1. .... = Acknowledge Request: True
        .... .... .1.. .... = PAN ID Compression: True
        .... .... 0... .... = Reserved: False
        .... ...0 .... .... = Sequence Number Suppression: False
        .... ..0. .... .... = Information Elements Present: False
        .... 10.. .... .... = Destination Addressing Mode: Short/16-bit (0x2)
        ..00 .... .... .... = Frame Version: IEEE Std 802.15.4-2003 (0)
        10.. .... .... .... = Source Addressing Mode: Short/16-bit (0x2)
    Sequence Number: 87
    Destination PAN: 0x3332
    Destination: 0x0203
    Source: 0x0103
    FCS: 0xbab9 (Correct)
    [Ack In: 466]
ZigBee Network Layer Command, Dst: 0x1cfd, Src: 0x0000
    Frame Control Field: 0x0089, Frame Type: Command, Discover Route: Unknown Command
        .... .... .... ..01 = Frame Type: Command (0x1)
        .... .... ..00 10.. = Protocol Version: 2
        .... .... 10.. .... = Discover Route: Unknown (0x2)
        .... ...0 .... .... = Multicast: False
        .... ..0. .... .... = Security: False
        .... .0.. .... .... = Source Route: False
        .... 0... .... .... = Destination: False
        ...0 .... .... .... = Extended Source: False
        ..0. .... .... .... = End Device Initiator: False
    Destination: 0x1cfd
    Source: 0x0000
    Radius: 5
    Sequence Number: 3
    Command Frame: Route Request
        Command Identifier: Route Request (0x01)
        Command Options: 0x21, Extended Destination, Many-to-One Discovery: Not Many-to-One
            .0.. .... = Multicast: False
            ..1. .... = Extended Destination: True
            ...0 0... = Many-to-One Discovery: Not Many-to-One (0x0)
        Route ID: 0
        Destination: 0x8d00
        Path Cost: 50
        Extended Destination: 00:00:00_00:00:00:00:10 (00:00:00:00:00:00:00:10)
Data (20 bytes)
    Data: 000072010000720100000000000000001b7f0785
    [Length: 20]

0000  61 88 57 32 33 03 02 03 01 89 00 fd 1c 00 00 05   a.W23...........
0010  03 01 21 00 00 8d 32 10 00 00 00 00 00 00 00 00   ..!...2.........
0020  00 72 01 00 00 72 01 00 00 00 00 00 00 00 00 1b   .r...r..........
0030  7f 07 85 b9 ba                                    .....

No.     Time           Source                Destination           Protocol Length Info
    466 18.873278                                                  IEEE 802.15.4 5      Ack

Frame 466: 5 bytes on wire (40 bits), 5 bytes captured (40 bits)
    Encapsulation type: IEEE 802.15.4 Wireless PAN (104)
    Arrival Time: Mar  3, 2023 16:19:14.924741000 CST
    [Time shift for this packet: 0.000000000 seconds]
    Epoch Time: 1677881954.924741000 seconds
    [Time delta from previous captured frame: 0.000555000 seconds]
    [Time delta from previous displayed frame: 0.000555000 seconds]
    [Time since reference or first frame: 18.873278000 seconds]
    Frame Number: 466
    Frame Length: 5 bytes (40 bits)
    Capture Length: 5 bytes (40 bits)
    [Frame is marked: False]
    [Frame is ignored: False]
    [Protocols in frame: wpan]
IEEE 802.15.4 Ack, Sequence Number: 87
    Frame Control Field: 0x0002, Frame Type: Ack, Destination Addressing Mode: None, Frame Version: IEEE Std 802.15.4-2003, Source Addressing Mode: None
        .... .... .... .010 = Frame Type: Ack (0x2)
        .... .... .... 0... = Security Enabled: False
        .... .... ...0 .... = Frame Pending: False
        .... .... ..0. .... = Acknowledge Request: False
        .... .... .0.. .... = PAN ID Compression: False
        .... .... 0... .... = Reserved: False
        .... ...0 .... .... = Sequence Number Suppression: False
        .... ..0. .... .... = Information Elements Present: False
        .... 00.. .... .... = Destination Addressing Mode: None (0x0)
        ..00 .... .... .... = Frame Version: IEEE Std 802.15.4-2003 (0)
        00.. .... .... .... = Source Addressing Mode: None (0x0)
    Sequence Number: 87
    FCS: 0x9382 (Correct)
    [Ack To: 465]
    [Ack Time: 0.555 ms]

0000  02 00 57 82 93                                    ..W..

No.     Time           Source                Destination           Protocol Length Info
    467 18.998868      0x0103                0x0203                IEEE 802.15.4 53     Data, Dst: 0x0203, Src: 0x0103

Frame 467: 53 bytes on wire (424 bits), 53 bytes captured (424 bits)
    Encapsulation type: IEEE 802.15.4 Wireless PAN (104)
    Arrival Time: Mar  3, 2023 16:19:15.050331000 CST
    [Time shift for this packet: 0.000000000 seconds]
    Epoch Time: 1677881955.050331000 seconds
    [Time delta from previous captured frame: 0.125590000 seconds]
    [Time delta from previous displayed frame: 0.125590000 seconds]
    [Time since reference or first frame: 18.998868000 seconds]
    Frame Number: 467
    Frame Length: 53 bytes (424 bits)
    Capture Length: 53 bytes (424 bits)
    [Frame is marked: False]
    [Frame is ignored: False]
    [Protocols in frame: wpan:data]
IEEE 802.15.4 Data, Dst: 0x0203, Src: 0x0103
    Frame Control Field: 0x8861, Frame Type: Data, Acknowledge Request, PAN ID Compression, Destination Addressing Mode: Short/16-bit, Frame Version: IEEE Std 802.15.4-2003, Source Addressing Mode: Short/16-bit
        .... .... .... .001 = Frame Type: Data (0x1)
        .... .... .... 0... = Security Enabled: False
        .... .... ...0 .... = Frame Pending: False
        .... .... ..1. .... = Acknowledge Request: True
        .... .... .1.. .... = PAN ID Compression: True
        .... .... 0... .... = Reserved: False
        .... ...0 .... .... = Sequence Number Suppression: False
        .... ..0. .... .... = Information Elements Present: False
        .... 10.. .... .... = Destination Addressing Mode: Short/16-bit (0x2)
        ..00 .... .... .... = Frame Version: IEEE Std 802.15.4-2003 (0)
        10.. .... .... .... = Source Addressing Mode: Short/16-bit (0x2)
    Sequence Number: 88
    Destination PAN: 0x3332
    Destination: 0x0203
    Source: 0x0103
    FCS: 0xda85 (Correct)
    [Ack In: 468]
Data (42 bytes)
    Data: 8a00fd1c00000603012100000b3310000000000000000000
    [Length: 42]

0000  61 88 58 32 33 03 02 03 01 8a 00 fd 1c 00 00 06   a.X23...........
0010  03 01 21 00 00 0b 33 10 00 00 00 00 00 00 00 00   ..!...3.........
0020  00 36 01 00 00 36 01 00 00 00 00 00 00 00 00 1b   .6...6..........
0030  7f 84 2b 85 da                                    ..+..

No.     Time           Source                Destination           Protocol Length Info
    468 18.999381                                                  IEEE 802.15.4 5      Ack

Frame 468: 5 bytes on wire (40 bits), 5 bytes captured (40 bits)
    Encapsulation type: IEEE 802.15.4 Wireless PAN (104)
    Arrival Time: Mar  3, 2023 16:19:15.050844000 CST
    [Time shift for this packet: 0.000000000 seconds]
    Epoch Time: 1677881955.050844000 seconds
    [Time delta from previous captured frame: 0.000513000 seconds]
    [Time delta from previous displayed frame: 0.000513000 seconds]
    [Time since reference or first frame: 18.999381000 seconds]
    Frame Number: 468
    Frame Length: 5 bytes (40 bits)
    Capture Length: 5 bytes (40 bits)
    [Frame is marked: False]
    [Frame is ignored: False]
    [Protocols in frame: wpan]
IEEE 802.15.4 Ack, Sequence Number: 88
    Frame Control Field: 0x0002, Frame Type: Ack, Destination Addressing Mode: None, Frame Version: IEEE Std 802.15.4-2003, Source Addressing Mode: None
        .... .... .... .010 = Frame Type: Ack (0x2)
        .... .... .... 0... = Security Enabled: False
        .... .... ...0 .... = Frame Pending: False
        .... .... ..0. .... = Acknowledge Request: False
        .... .... .0.. .... = PAN ID Compression: False
        .... .... 0... .... = Reserved: False
        .... ...0 .... .... = Sequence Number Suppression: False
        .... ..0. .... .... = Information Elements Present: False
        .... 00.. .... .... = Destination Addressing Mode: None (0x0)
        ..00 .... .... .... = Frame Version: IEEE Std 802.15.4-2003 (0)
        00.. .... .... .... = Source Addressing Mode: None (0x0)
    Sequence Number: 88
    FCS: 0x6b75 (Correct)
    [Ack To: 467]
    [Ack Time: 0.513 ms]

0000  02 00 58 75 6b                                    ..Xuk

No.     Time           Source                Destination           Protocol Length Info
    469 19.122849      0x0103                0x0203                IEEE 802.15.4 53     Data, Dst: 0x0203, Src: 0x0103

Frame 469: 53 bytes on wire (424 bits), 53 bytes captured (424 bits)
    Encapsulation type: IEEE 802.15.4 Wireless PAN (104)
    Arrival Time: Mar  3, 2023 16:19:15.174312000 CST
    [Time shift for this packet: 0.000000000 seconds]
    Epoch Time: 1677881955.174312000 seconds
    [Time delta from previous captured frame: 0.123468000 seconds]
    [Time delta from previous displayed frame: 0.123468000 seconds]
    [Time since reference or first frame: 19.122849000 seconds]
    Frame Number: 469
    Frame Length: 53 bytes (424 bits)
    Capture Length: 53 bytes (424 bits)
    [Frame is marked: False]
    [Frame is ignored: False]
    [Protocols in frame: wpan:data]
IEEE 802.15.4 Data, Dst: 0x0203, Src: 0x0103
    Frame Control Field: 0x8861, Frame Type: Data, Acknowledge Request, PAN ID Compression, Destination Addressing Mode: Short/16-bit, Frame Version: IEEE Std 802.15.4-2003, Source Addressing Mode: Short/16-bit
        .... .... .... .001 = Frame Type: Data (0x1)
        .... .... .... 0... = Security Enabled: False
        .... .... ...0 .... = Frame Pending: False
        .... .... ..1. .... = Acknowledge Request: True
        .... .... .1.. .... = PAN ID Compression: True
        .... .... 0... .... = Reserved: False
        .... ...0 .... .... = Sequence Number Suppression: False
        .... ..0. .... .... = Information Elements Present: False
        .... 10.. .... .... = Destination Addressing Mode: Short/16-bit (0x2)
        ..00 .... .... .... = Frame Version: IEEE Std 802.15.4-2003 (0)
        10.. .... .... .... = Source Addressing Mode: Short/16-bit (0x2)
    Sequence Number: 89
    Destination PAN: 0x3332
    Destination: 0x0203
    Source: 0x0103
    FCS: 0x7af1 (Correct)
    [Ack In: 470]
Data (42 bytes)
    Data: 8b00fd1c0000070301210000873310000000000000000000
    [Length: 42]

0000  61 88 59 32 33 03 02 03 01 8b 00 fd 1c 00 00 07   a.Y23...........
0010  03 01 21 00 00 87 33 10 00 00 00 00 00 00 00 00   ..!...3.........
0020  00 dc 00 00 00 e4 00 00 00 00 00 00 00 00 00 1a   ................
0030  7f 72 3c f1 7a                                    .r<.z

No.     Time           Source                Destination           Protocol Length Info
    470 19.123345                                                  IEEE 802.15.4 5      Ack

Frame 470: 5 bytes on wire (40 bits), 5 bytes captured (40 bits)
    Encapsulation type: IEEE 802.15.4 Wireless PAN (104)
    Arrival Time: Mar  3, 2023 16:19:15.174808000 CST
    [Time shift for this packet: 0.000000000 seconds]
    Epoch Time: 1677881955.174808000 seconds
    [Time delta from previous captured frame: 0.000496000 seconds]
    [Time delta from previous displayed frame: 0.000496000 seconds]
    [Time since reference or first frame: 19.123345000 seconds]
    Frame Number: 470
    Frame Length: 5 bytes (40 bits)
    Capture Length: 5 bytes (40 bits)
    [Frame is marked: False]
    [Frame is ignored: False]
    [Protocols in frame: wpan]
IEEE 802.15.4 Ack, Sequence Number: 89
    Frame Control Field: 0x0002, Frame Type: Ack, Destination Addressing Mode: None, Frame Version: IEEE Std 802.15.4-2003, Source Addressing Mode: None
        .... .... .... .010 = Frame Type: Ack (0x2)
        .... .... .... 0... = Security Enabled: False
        .... .... ...0 .... = Frame Pending: False
        .... .... ..0. .... = Acknowledge Request: False
        .... .... .0.. .... = PAN ID Compression: False
        .... .... 0... .... = Reserved: False
        .... ...0 .... .... = Sequence Number Suppression: False
        .... ..0. .... .... = Information Elements Present: False
        .... 00.. .... .... = Destination Addressing Mode: None (0x0)
        ..00 .... .... .... = Frame Version: IEEE Std 802.15.4-2003 (0)
        00.. .... .... .... = Source Addressing Mode: None (0x0)
    Sequence Number: 89
    FCS: 0x7afc (Correct)
    [Ack To: 469]
    [Ack Time: 0.496 ms]

0000  02 00 59 fc 7a                                    ..Y.z

No.     Time           Source                Destination           Protocol Length Info
    471 19.260405      0x0103                0x0203                IEEE 802.15.4 113    Data, Dst: 0x0203, Src: 0x0103

Frame 471: 113 bytes on wire (904 bits), 113 bytes captured (904 bits)
    Encapsulation type: IEEE 802.15.4 Wireless PAN (104)
    Arrival Time: Mar  3, 2023 16:19:15.311868000 CST
    [Time shift for this packet: 0.000000000 seconds]
    Epoch Time: 1677881955.311868000 seconds
    [Time delta from previous captured frame: 0.137060000 seconds]
    [Time delta from previous displayed frame: 0.137060000 seconds]
    [Time since reference or first frame: 19.260405000 seconds]
    Frame Number: 471
    Frame Length: 113 bytes (904 bits)
    Capture Length: 113 bytes (904 bits)
    [Frame is marked: False]
    [Frame is ignored: False]
    [Protocols in frame: wpan:data]
IEEE 802.15.4 Data, Dst: 0x0203, Src: 0x0103
    Frame Control Field: 0x8861, Frame Type: Data, Acknowledge Request, PAN ID Compression, Destination Addressing Mode: Short/16-bit, Frame Version: IEEE Std 802.15.4-2003, Source Addressing Mode: Short/16-bit
        .... .... .... .001 = Frame Type: Data (0x1)
        .... .... .... 0... = Security Enabled: False
        .... .... ...0 .... = Frame Pending: False
        .... .... ..1. .... = Acknowledge Request: True
        .... .... .1.. .... = PAN ID Compression: True
        .... .... 0... .... = Reserved: False
        .... ...0 .... .... = Sequence Number Suppression: False
        .... ..0. .... .... = Information Elements Present: False
        .... 10.. .... .... = Destination Addressing Mode: Short/16-bit (0x2)
        ..00 .... .... .... = Frame Version: IEEE Std 802.15.4-2003 (0)
        10.. .... .... .... = Source Addressing Mode: Short/16-bit (0x2)
    Sequence Number: 90
    Destination PAN: 0x3332
    Destination: 0x0203
    Source: 0x0103
    FCS: 0xb3f7 (Correct)
    [Ack In: 472]
Data (102 bytes)
    Data: 8c00fd1f00000803010100000ffc60130f1c60100f9c5001
    [Length: 102]

0000  61 88 5a 32 33 03 02 03 01 8c 00 fd 1f 00 00 08   a.Z23...........
0010  03 01 01 00 00 0f fc 60 13 0f 1c 60 10 0f 9c 50   .......`...`...P
0020  01 ec 01 00 00 ff ff 00 00 00 00 00 00 00 00 00   ................
0030  00 00 00 ff c8 0c fd 16 00 00 09 03 01 c1 00 00   ................
0040  00 00 00 00 31 ce 1d 3b 9a d5 4b 3b 58 50 eb 3d   ....1..;..K;XP.=
0050  00 00 00 00 a5 01 15 17 fd 1c 00 00 0a 03 01 1e   ................
0060  00 00 05 34 10 00 ee 23 a3 3d f2 6f 29 3b 95 f7   ...4...#.=.o);..
0070  b3                                                .

No.     Time           Source                Destination           Protocol Length Info
    472 19.260917                                                  IEEE 802.15.4 5      Ack

Frame 472: 5 bytes on wire (40 bits), 5 bytes captured (40 bits)
    Encapsulation type: IEEE 802.15.4 Wireless PAN (104)
    Arrival Time: Mar  3, 2023 16:19:15.312380000 CST
    [Time shift for this packet: 0.000000000 seconds]
    Epoch Time: 1677881955.312380000 seconds
    [Time delta from previous captured frame: 0.000512000 seconds]
    [Time delta from previous displayed frame: 0.000512000 seconds]
    [Time since reference or first frame: 19.260917000 seconds]
    Frame Number: 472
    Frame Length: 5 bytes (40 bits)
    Capture Length: 5 bytes (40 bits)
    [Frame is marked: False]
    [Frame is ignored: False]
    [Protocols in frame: wpan]
IEEE 802.15.4 Ack, Sequence Number: 90
    Frame Control Field: 0x0002, Frame Type: Ack, Destination Addressing Mode: None, Frame Version: IEEE Std 802.15.4-2003, Source Addressing Mode: None
        .... .... .... .010 = Frame Type: Ack (0x2)
        .... .... .... 0... = Security Enabled: False
        .... .... ...0 .... = Frame Pending: False
        .... .... ..0. .... = Acknowledge Request: False
        .... .... .0.. .... = PAN ID Compression: False
        .... .... 0... .... = Reserved: False
        .... ...0 .... .... = Sequence Number Suppression: False
        .... ..0. .... .... = Information Elements Present: False
        .... 00.. .... .... = Destination Addressing Mode: None (0x0)
        ..00 .... .... .... = Frame Version: IEEE Std 802.15.4-2003 (0)
        00.. .... .... .... = Source Addressing Mode: None (0x0)
    Sequence Number: 90
    FCS: 0x4867 (Correct)
    [Ack To: 471]
    [Ack Time: 0.512 ms]

0000  02 00 5a 67 48                                    ..ZgH

No.     Time           Source                Destination           Protocol Length Info
    473 19.265459                                                  IEEE 802.15.4 5      Ack

Frame 473: 5 bytes on wire (40 bits), 5 bytes captured (40 bits)
    Encapsulation type: IEEE 802.15.4 Wireless PAN (104)
    Arrival Time: Mar  3, 2023 16:19:15.316922000 CST
    [Time shift for this packet: 0.000000000 seconds]
    Epoch Time: 1677881955.316922000 seconds
    [Time delta from previous captured frame: 0.004542000 seconds]
    [Time delta from previous displayed frame: 0.004542000 seconds]
    [Time since reference or first frame: 19.265459000 seconds]
    Frame Number: 473
    Frame Length: 5 bytes (40 bits)
    Capture Length: 5 bytes (40 bits)
    [Frame is marked: False]
    [Frame is ignored: False]
    [Protocols in frame: wpan]
IEEE 802.15.4 Ack, Sequence Number: 91
    Frame Control Field: 0x0002, Frame Type: Ack, Destination Addressing Mode: None, Frame Version: IEEE Std 802.15.4-2003, Source Addressing Mode: None
        .... .... .... .010 = Frame Type: Ack (0x2)
        .... .... .... 0... = Security Enabled: False
        .... .... ...0 .... = Frame Pending: False
        .... .... ..0. .... = Acknowledge Request: False
        .... .... .0.. .... = PAN ID Compression: False
        .... .... 0... .... = Reserved: False
        .... ...0 .... .... = Sequence Number Suppression: False
        .... ..0. .... .... = Information Elements Present: False
        .... 00.. .... .... = Destination Addressing Mode: None (0x0)
        ..00 .... .... .... = Frame Version: IEEE Std 802.15.4-2003 (0)
        00.. .... .... .... = Source Addressing Mode: None (0x0)
    Sequence Number: 91
    FCS: 0x59ee (Correct)
    [No ack request found]
        [Expert Info (Note/Sequence): No ack request found to ack in frame 473]
            [No ack request found to ack in frame 473]
            [Severity level: Note]
            [Group: Sequence]

0000  02 00 5b ee 59                                    ..[.Y

No.     Time           Source                Destination           Protocol Length Info
    474 19.269429      0x0103                0x0203                IEEE 802.15.4 42     Data, Dst: 0x0203, Src: 0x0103

Frame 474: 42 bytes on wire (336 bits), 42 bytes captured (336 bits)
    Encapsulation type: IEEE 802.15.4 Wireless PAN (104)
    Arrival Time: Mar  3, 2023 16:19:15.320892000 CST
    [Time shift for this packet: 0.000000000 seconds]
    Epoch Time: 1677881955.320892000 seconds
    [Time delta from previous captured frame: 0.003970000 seconds]
    [Time delta from previous displayed frame: 0.003970000 seconds]
    [Time since reference or first frame: 19.269429000 seconds]
    Frame Number: 474
    Frame Length: 42 bytes (336 bits)
    Capture Length: 42 bytes (336 bits)
    [Frame is marked: False]
    [Frame is ignored: False]
    [Protocols in frame: wpan:data]
IEEE 802.15.4 Data, Dst: 0x0203, Src: 0x0103
    Frame Control Field: 0x8861, Frame Type: Data, Acknowledge Request, PAN ID Compression, Destination Addressing Mode: Short/16-bit, Frame Version: IEEE Std 802.15.4-2003, Source Addressing Mode: Short/16-bit
        .... .... .... .001 = Frame Type: Data (0x1)
        .... .... .... 0... = Security Enabled: False
        .... .... ...0 .... = Frame Pending: False
        .... .... ..1. .... = Acknowledge Request: True
        .... .... .1.. .... = PAN ID Compression: True
        .... .... 0... .... = Reserved: False
        .... ...0 .... .... = Sequence Number Suppression: False
        .... ..0. .... .... = Information Elements Present: False
        .... 10.. .... .... = Destination Addressing Mode: Short/16-bit (0x2)
        ..00 .... .... .... = Frame Version: IEEE Std 802.15.4-2003 (0)
        10.. .... .... .... = Source Addressing Mode: Short/16-bit (0x2)
    Sequence Number: 92
    Destination PAN: 0x3332
    Destination: 0x0203
    Source: 0x0103
    FCS: 0x43fd (Correct)
    [Ack In: 475]
Data (31 bytes)
    Data: 8e003410000000000000000000c2010000c6010000000000
    [Length: 31]

0000  61 88 5c 32 33 03 02 03 01 8e 00 34 10 00 00 00   a.\23......4....
0010  00 00 00 00 00 00 c2 01 00 00 c6 01 00 00 00 00   ................
0020  00 00 00 00 19 7f 3a 34 fd 43                     ......:4.C

No.     Time           Source                Destination           Protocol Length Info
    475 19.269990                                                  IEEE 802.15.4 5      Ack

Frame 475: 5 bytes on wire (40 bits), 5 bytes captured (40 bits)
    Encapsulation type: IEEE 802.15.4 Wireless PAN (104)
    Arrival Time: Mar  3, 2023 16:19:15.321453000 CST
    [Time shift for this packet: 0.000000000 seconds]
    Epoch Time: 1677881955.321453000 seconds
    [Time delta from previous captured frame: 0.000561000 seconds]
    [Time delta from previous displayed frame: 0.000561000 seconds]
    [Time since reference or first frame: 19.269990000 seconds]
    Frame Number: 475
    Frame Length: 5 bytes (40 bits)
    Capture Length: 5 bytes (40 bits)
    [Frame is marked: False]
    [Frame is ignored: False]
    [Protocols in frame: wpan]
IEEE 802.15.4 Ack, Sequence Number: 92
    Frame Control Field: 0x0002, Frame Type: Ack, Destination Addressing Mode: None, Frame Version: IEEE Std 802.15.4-2003, Source Addressing Mode: None
        .... .... .... .010 = Frame Type: Ack (0x2)
        .... .... .... 0... = Security Enabled: False
        .... .... ...0 .... = Frame Pending: False
        .... .... ..0. .... = Acknowledge Request: False
        .... .... .0.. .... = PAN ID Compression: False
        .... .... 0... .... = Reserved: False
        .... ...0 .... .... = Sequence Number Suppression: False
        .... ..0. .... .... = Information Elements Present: False
        .... 00.. .... .... = Destination Addressing Mode: None (0x0)
        ..00 .... .... .... = Frame Version: IEEE Std 802.15.4-2003 (0)
        00.. .... .... .... = Source Addressing Mode: None (0x0)
    Sequence Number: 92
    FCS: 0x2d51 (Correct)
    [Ack To: 474]
    [Ack Time: 0.561 ms]

0000  02 00 5c 51 2d                                    ..\Q-

No.     Time           Source                Destination           Protocol Length Info
    476 19.318851      0x0103                0x0203                IEEE 802.15.4 34     Data, Dst: 0x0203, Src: 0x0103

Frame 476: 34 bytes on wire (272 bits), 34 bytes captured (272 bits)
    Encapsulation type: IEEE 802.15.4 Wireless PAN (104)
    Arrival Time: Mar  3, 2023 16:19:15.370314000 CST
    [Time shift for this packet: 0.000000000 seconds]
    Epoch Time: 1677881955.370314000 seconds
    [Time delta from previous captured frame: 0.048861000 seconds]
    [Time delta from previous displayed frame: 0.048861000 seconds]
    [Time since reference or first frame: 19.318851000 seconds]
    Frame Number: 476
    Frame Length: 34 bytes (272 bits)
    Capture Length: 34 bytes (272 bits)
    [Frame is marked: False]
    [Frame is ignored: False]
    [Protocols in frame: wpan:data]
IEEE 802.15.4 Data, Dst: 0x0203, Src: 0x0103
    Frame Control Field: 0x8861, Frame Type: Data, Acknowledge Request, PAN ID Compression, Destination Addressing Mode: Short/16-bit, Frame Version: IEEE Std 802.15.4-2003, Source Addressing Mode: Short/16-bit
        .... .... .... .001 = Frame Type: Data (0x1)
        .... .... .... 0... = Security Enabled: False
        .... .... ...0 .... = Frame Pending: False
        .... .... ..1. .... = Acknowledge Request: True
        .... .... .1.. .... = PAN ID Compression: True
        .... .... 0... .... = Reserved: False
        .... ...0 .... .... = Sequence Number Suppression: False
        .... ..0. .... .... = Information Elements Present: False
        .... 10.. .... .... = Destination Addressing Mode: Short/16-bit (0x2)
        ..00 .... .... .... = Frame Version: IEEE Std 802.15.4-2003 (0)
        10.. .... .... .... = Source Addressing Mode: Short/16-bit (0x2)
    Sequence Number: 93
    Destination PAN: 0x3332
    Destination: 0x0203
    Source: 0x0103
    FCS: 0x589d (Correct)
    [Ack In: 477]
Data (23 bytes)
    Data: 8f00fd0900000c0301000000000000000203510303107a
    [Length: 23]

0000  61 88 5d 32 33 03 02 03 01 8f 00 fd 09 00 00 0c   a.]23...........
0010  03 01 00 00 00 00 00 00 00 02 03 51 03 03 10 7a   ...........Q...z
0020  9d 58                                             .X

No.     Time           Source                Destination           Protocol Length Info
    477 19.319363                                                  IEEE 802.15.4 5      Ack

Frame 477: 5 bytes on wire (40 bits), 5 bytes captured (40 bits)
    Encapsulation type: IEEE 802.15.4 Wireless PAN (104)
    Arrival Time: Mar  3, 2023 16:19:15.370826000 CST
    [Time shift for this packet: 0.000000000 seconds]
    Epoch Time: 1677881955.370826000 seconds
    [Time delta from previous captured frame: 0.000512000 seconds]
    [Time delta from previous displayed frame: 0.000512000 seconds]
    [Time since reference or first frame: 19.319363000 seconds]
    Frame Number: 477
    Frame Length: 5 bytes (40 bits)
    Capture Length: 5 bytes (40 bits)
    [Frame is marked: False]
    [Frame is ignored: False]
    [Protocols in frame: wpan]
IEEE 802.15.4 Ack, Sequence Number: 93
    Frame Control Field: 0x0002, Frame Type: Ack, Destination Addressing Mode: None, Frame Version: IEEE Std 802.15.4-2003, Source Addressing Mode: None
        .... .... .... .010 = Frame Type: Ack (0x2)
        .... .... .... 0... = Security Enabled: False
        .... .... ...0 .... = Frame Pending: False
        .... .... ..0. .... = Acknowledge Request: False
        .... .... .0.. .... = PAN ID Compression: False
        .... .... 0... .... = Reserved: False
        .... ...0 .... .... = Sequence Number Suppression: False
        .... ..0. .... .... = Information Elements Present: False
        .... 00.. .... .... = Destination Addressing Mode: None (0x0)
        ..00 .... .... .... = Frame Version: IEEE Std 802.15.4-2003 (0)
        00.. .... .... .... = Source Addressing Mode: None (0x0)
    Sequence Number: 93
    FCS: 0x3cd8 (Correct)
    [Ack To: 476]
    [Ack Time: 0.512 ms]

0000  02 00 5d d8 3c                                    ..].<

No.     Time           Source                Destination           Protocol Length Info
    478 19.378034      0x0103                0x0203                IEEE 802.15.4 53     Data, Dst: 0x0203, Src: 0x0103

Frame 478: 53 bytes on wire (424 bits), 53 bytes captured (424 bits)
    Encapsulation type: IEEE 802.15.4 Wireless PAN (104)
    Arrival Time: Mar  3, 2023 16:19:15.429497000 CST
    [Time shift for this packet: 0.000000000 seconds]
    Epoch Time: 1677881955.429497000 seconds
    [Time delta from previous captured frame: 0.058671000 seconds]
    [Time delta from previous displayed frame: 0.058671000 seconds]
    [Time since reference or first frame: 19.378034000 seconds]
    Frame Number: 478
    Frame Length: 53 bytes (424 bits)
    Capture Length: 53 bytes (424 bits)
    [Frame is marked: False]
    [Frame is ignored: False]
    [Protocols in frame: wpan:data]
IEEE 802.15.4 Data, Dst: 0x0203, Src: 0x0103
    Frame Control Field: 0x8861, Frame Type: Data, Acknowledge Request, PAN ID Compression, Destination Addressing Mode: Short/16-bit, Frame Version: IEEE Std 802.15.4-2003, Source Addressing Mode: Short/16-bit
        .... .... .... .001 = Frame Type: Data (0x1)
        .... .... .... 0... = Security Enabled: False
        .... .... ...0 .... = Frame Pending: False
        .... .... ..1. .... = Acknowledge Request: True
        .... .... .1.. .... = PAN ID Compression: True
        .... .... 0... .... = Reserved: False
        .... ...0 .... .... = Sequence Number Suppression: False
        .... ..0. .... .... = Information Elements Present: False
        .... 10.. .... .... = Destination Addressing Mode: Short/16-bit (0x2)
        ..00 .... .... .... = Frame Version: IEEE Std 802.15.4-2003 (0)
        10.. .... .... .... = Source Addressing Mode: Short/16-bit (0x2)
    Sequence Number: 94
    Destination PAN: 0x3332
    Destination: 0x0203
    Source: 0x0103
    FCS: 0xe647 (Correct)
    [Ack In: 479]
Data (42 bytes)
    Data: 9000fd1c00000d0301210000873410000000000000000000
    [Length: 42]

0000  61 88 5e 32 33 03 02 03 01 90 00 fd 1c 00 00 0d   a.^23...........
0010  03 01 21 00 00 87 34 10 00 00 00 00 00 00 00 00   ..!...4.........
0020  00 68 01 00 00 6f 01 00 00 00 00 00 00 00 00 19   .h...o..........
0030  7f bb 2a 47 e6                                    ..*G.

No.     Time           Source                Destination           Protocol Length Info
    479 19.378726                                                  IEEE 802.15.4 5      Ack

Frame 479: 5 bytes on wire (40 bits), 5 bytes captured (40 bits)
    Encapsulation type: IEEE 802.15.4 Wireless PAN (104)
    Arrival Time: Mar  3, 2023 16:19:15.430189000 CST
    [Time shift for this packet: 0.000000000 seconds]
    Epoch Time: 1677881955.430189000 seconds
    [Time delta from previous captured frame: 0.000692000 seconds]
    [Time delta from previous displayed frame: 0.000692000 seconds]
    [Time since reference or first frame: 19.378726000 seconds]
    Frame Number: 479
    Frame Length: 5 bytes (40 bits)
    Capture Length: 5 bytes (40 bits)
    [Frame is marked: False]
    [Frame is ignored: False]
    [Protocols in frame: wpan]
IEEE 802.15.4 Ack, Sequence Number: 94
    Frame Control Field: 0x0002, Frame Type: Ack, Destination Addressing Mode: None, Frame Version: IEEE Std 802.15.4-2003, Source Addressing Mode: None
        .... .... .... .010 = Frame Type: Ack (0x2)
        .... .... .... 0... = Security Enabled: False
        .... .... ...0 .... = Frame Pending: False
        .... .... ..0. .... = Acknowledge Request: False
        .... .... .0.. .... = PAN ID Compression: False
        .... .... 0... .... = Reserved: False
        .... ...0 .... .... = Sequence Number Suppression: False
        .... ..0. .... .... = Information Elements Present: False
        .... 00.. .... .... = Destination Addressing Mode: None (0x0)
        ..00 .... .... .... = Frame Version: IEEE Std 802.15.4-2003 (0)
        00.. .... .... .... = Source Addressing Mode: None (0x0)
    Sequence Number: 94
    FCS: 0x0e43 (Correct)
    [Ack To: 478]
    [Ack Time: 0.692 ms]

0000  02 00 5e 43 0e                                    ..^C.

No.     Time           Source                Destination           Protocol Length Info
    480 19.498552      0x0103                0x0203                IEEE 802.15.4 53     Data, Dst: 0x0203, Src: 0x0103

Frame 480: 53 bytes on wire (424 bits), 53 bytes captured (424 bits)
    Encapsulation type: IEEE 802.15.4 Wireless PAN (104)
    Arrival Time: Mar  3, 2023 16:19:15.550015000 CST
    [Time shift for this packet: 0.000000000 seconds]
    Epoch Time: 1677881955.550015000 seconds
    [Time delta from previous captured frame: 0.119826000 seconds]
    [Time delta from previous displayed frame: 0.119826000 seconds]
    [Time since reference or first frame: 19.498552000 seconds]
    Frame Number: 480
    Frame Length: 53 bytes (424 bits)
    Capture Length: 53 bytes (424 bits)
    [Frame is marked: False]
    [Frame is ignored: False]
    [Protocols in frame: wpan:data]
IEEE 802.15.4 Data, Dst: 0x0203, Src: 0x0103
    Frame Control Field: 0x8861, Frame Type: Data, Acknowledge Request, PAN ID Compression, Destination Addressing Mode: Short/16-bit, Frame Version: IEEE Std 802.15.4-2003, Source Addressing Mode: Short/16-bit
        .... .... .... .001 = Frame Type: Data (0x1)
        .... .... .... 0... = Security Enabled: False
        .... .... ...0 .... = Frame Pending: False
        .... .... ..1. .... = Acknowledge Request: True
        .... .... .1.. .... = PAN ID Compression: True
        .... .... 0... .... = Reserved: False
        .... ...0 .... .... = Sequence Number Suppression: False
        .... ..0. .... .... = Information Elements Present: False
        .... 10.. .... .... = Destination Addressing Mode: Short/16-bit (0x2)
        ..00 .... .... .... = Frame Version: IEEE Std 802.15.4-2003 (0)
        10.. .... .... .... = Source Addressing Mode: Short/16-bit (0x2)
    Sequence Number: 95
    Destination PAN: 0x3332
    Destination: 0x0203
    Source: 0x0103
    FCS: 0x4f2e (Correct)
    [Ack In: 481]
Data (42 bytes)
    Data: 9100fd1c00000e0301210000ff3410000000000000000000
    [Length: 42]

0000  61 88 5f 32 33 03 02 03 01 91 00 fd 1c 00 00 0e   a._23...........
0010  03 01 21 00 00 ff 34 10 00 00 00 00 00 00 00 00   ..!...4.........
0020  00 b8 01 00 00 be 01 00 00 00 00 01 00 00 00 18   ................
0030  7f 4a 1c 2e 4f                                    .J..O

No.     Time           Source                Destination           Protocol Length Info
    481 19.499050                                                  IEEE 802.15.4 5      Ack

Frame 481: 5 bytes on wire (40 bits), 5 bytes captured (40 bits)
    Encapsulation type: IEEE 802.15.4 Wireless PAN (104)
    Arrival Time: Mar  3, 2023 16:19:15.550513000 CST
    [Time shift for this packet: 0.000000000 seconds]
    Epoch Time: 1677881955.550513000 seconds
    [Time delta from previous captured frame: 0.000498000 seconds]
    [Time delta from previous displayed frame: 0.000498000 seconds]
    [Time since reference or first frame: 19.499050000 seconds]
    Frame Number: 481
    Frame Length: 5 bytes (40 bits)
    Capture Length: 5 bytes (40 bits)
    [Frame is marked: False]
    [Frame is ignored: False]
    [Protocols in frame: wpan]
IEEE 802.15.4 Ack, Sequence Number: 95
    Frame Control Field: 0x0002, Frame Type: Ack, Destination Addressing Mode: None, Frame Version: IEEE Std 802.15.4-2003, Source Addressing Mode: None
        .... .... .... .010 = Frame Type: Ack (0x2)
        .... .... .... 0... = Security Enabled: False
        .... .... ...0 .... = Frame Pending: False
        .... .... ..0. .... = Acknowledge Request: False
        .... .... .0.. .... = PAN ID Compression: False
        .... .... 0... .... = Reserved: False
        .... ...0 .... .... = Sequence Number Suppression: False
        .... ..0. .... .... = Information Elements Present: False
        .... 00.. .... .... = Destination Addressing Mode: None (0x0)
        ..00 .... .... .... = Frame Version: IEEE Std 802.15.4-2003 (0)
        00.. .... .... .... = Source Addressing Mode: None (0x0)
    Sequence Number: 95
    FCS: 0x1fca (Correct)
    [Ack To: 480]
    [Ack Time: 0.498 ms]

0000  02 00 5f ca 1f                                    .._..

No.     Time           Source                Destination           Protocol Length Info
    482 19.622722      0x0103                0x0203                IEEE 802.15.4 53     Data, Dst: 0x0203, Src: 0x0103

Frame 482: 53 bytes on wire (424 bits), 53 bytes captured (424 bits)
    Encapsulation type: IEEE 802.15.4 Wireless PAN (104)
    Arrival Time: Mar  3, 2023 16:19:15.674185000 CST
    [Time shift for this packet: 0.000000000 seconds]
    Epoch Time: 1677881955.674185000 seconds
    [Time delta from previous captured frame: 0.123672000 seconds]
    [Time delta from previous displayed frame: 0.123672000 seconds]
    [Time since reference or first frame: 19.622722000 seconds]
    Frame Number: 482
    Frame Length: 53 bytes (424 bits)
    Capture Length: 53 bytes (424 bits)
    [Frame is marked: False]
    [Frame is ignored: False]
    [Protocols in frame: wpan:data]
IEEE 802.15.4 Data, Dst: 0x0203, Src: 0x0103
    Frame Control Field: 0x8861, Frame Type: Data, Acknowledge Request, PAN ID Compression, Destination Addressing Mode: Short/16-bit, Frame Version: IEEE Std 802.15.4-2003, Source Addressing Mode: Short/16-bit
        .... .... .... .001 = Frame Type: Data (0x1)
        .... .... .... 0... = Security Enabled: False
        .... .... ...0 .... = Frame Pending: False
        .... .... ..1. .... = Acknowledge Request: True
        .... .... .1.. .... = PAN ID Compression: True
        .... .... 0... .... = Reserved: False
        .... ...0 .... .... = Sequence Number Suppression: False
        .... ..0. .... .... = Information Elements Present: False
        .... 10.. .... .... = Destination Addressing Mode: Short/16-bit (0x2)
        ..00 .... .... .... = Frame Version: IEEE Std 802.15.4-2003 (0)
        10.. .... .... .... = Source Addressing Mode: Short/16-bit (0x2)
    Sequence Number: 96
    Destination PAN: 0x3332
    Destination: 0x0203
    Source: 0x0103
    FCS: 0xb168 (Correct)
    [Ack In: 483]
Data (42 bytes)
    Data: 9200fd1c00000f03012100007b3510000000000000000000
    [Length: 42]

0000  61 88 60 32 33 03 02 03 01 92 00 fd 1c 00 00 0f   a.`23...........
0010  03 01 21 00 00 7b 35 10 00 00 00 00 00 00 00 00   ..!..{5.........
0020  00 54 01 00 00 55 01 00 00 00 00 01 00 00 00 17   .T...U..........
0030  7f 94 88 68 b1                                    ...h.

No.     Time           Source                Destination           Protocol Length Info
    483 19.623229                                                  IEEE 802.15.4 5      Ack

Frame 483: 5 bytes on wire (40 bits), 5 bytes captured (40 bits)
    Encapsulation type: IEEE 802.15.4 Wireless PAN (104)
    Arrival Time: Mar  3, 2023 16:19:15.674692000 CST
    [Time shift for this packet: 0.000000000 seconds]
    Epoch Time: 1677881955.674692000 seconds
    [Time delta from previous captured frame: 0.000507000 seconds]
    [Time delta from previous displayed frame: 0.000507000 seconds]
    [Time since reference or first frame: 19.623229000 seconds]
    Frame Number: 483
    Frame Length: 5 bytes (40 bits)
    Capture Length: 5 bytes (40 bits)
    [Frame is marked: False]
    [Frame is ignored: False]
    [Protocols in frame: wpan]
IEEE 802.15.4 Ack, Sequence Number: 96
    Frame Control Field: 0x0002, Frame Type: Ack, Destination Addressing Mode: None, Frame Version: IEEE Std 802.15.4-2003, Source Addressing Mode: None
        .... .... .... .010 = Frame Type: Ack (0x2)
        .... .... .... 0... = Security Enabled: False
        .... .... ...0 .... = Frame Pending: False
        .... .... ..0. .... = Acknowledge Request: False
        .... .... .0.. .... = PAN ID Compression: False
        .... .... 0... .... = Reserved: False
        .... ...0 .... .... = Sequence Number Suppression: False
        .... ..0. .... .... = Information Elements Present: False
        .... 00.. .... .... = Destination Addressing Mode: None (0x0)
        ..00 .... .... .... = Frame Version: IEEE Std 802.15.4-2003 (0)
        00.. .... .... .... = Source Addressing Mode: None (0x0)
    Sequence Number: 96
    FCS: 0xd6be (Correct)
    [Ack To: 482]
    [Ack Time: 0.507 ms]

0000  02 00 60 be d6                                    ..`..

No.     Time           Source                Destination           Protocol Length Info
    484 19.755539      0x0103                0x0203                IEEE 802.15.4 77     Data, Dst: 0x0203, Src: 0x0103

Frame 484: 77 bytes on wire (616 bits), 77 bytes captured (616 bits)
    Encapsulation type: IEEE 802.15.4 Wireless PAN (104)
    Arrival Time: Mar  3, 2023 16:19:15.807002000 CST
    [Time shift for this packet: 0.000000000 seconds]
    Epoch Time: 1677881955.807002000 seconds
    [Time delta from previous captured frame: 0.132310000 seconds]
    [Time delta from previous displayed frame: 0.132310000 seconds]
    [Time since reference or first frame: 19.755539000 seconds]
    Frame Number: 484
    Frame Length: 77 bytes (616 bits)
    Capture Length: 77 bytes (616 bits)
    [Frame is marked: False]
    [Frame is ignored: False]
    [Protocols in frame: wpan:data]
IEEE 802.15.4 Data, Dst: 0x0203, Src: 0x0103
    Frame Control Field: 0x8861, Frame Type: Data, Acknowledge Request, PAN ID Compression, Destination Addressing Mode: Short/16-bit, Frame Version: IEEE Std 802.15.4-2003, Source Addressing Mode: Short/16-bit
        .... .... .... .001 = Frame Type: Data (0x1)
        .... .... .... 0... = Security Enabled: False
        .... .... ...0 .... = Frame Pending: False
        .... .... ..1. .... = Acknowledge Request: True
        .... .... .1.. .... = PAN ID Compression: True
        .... .... 0... .... = Reserved: False
        .... ...0 .... .... = Sequence Number Suppression: False
        .... ..0. .... .... = Information Elements Present: False
        .... 10.. .... .... = Destination Addressing Mode: Short/16-bit (0x2)
        ..00 .... .... .... = Frame Version: IEEE Std 802.15.4-2003 (0)
        10.. .... .... .... = Source Addressing Mode: Short/16-bit (0x2)
    Sequence Number: 97
    Destination PAN: 0x3332
    Destination: 0x0203
    Source: 0x0103
    FCS: 0x2cc0 (Correct)
    [Ack In: 485]
Data (66 bytes)
    Data: 9300fd1c00001003011e0000fb351000392ea33d82c6243b
    [Length: 66]

0000  61 88 61 32 33 03 02 03 01 93 00 fd 1c 00 00 10   a.a23...........
0010  03 01 1e 00 00 fb 35 10 00 39 2e a3 3d 82 c6 24   ......5..9..=..$
0020  3b c6 dd 1a bf af 3c 68 3a 46 4f 81 b9 c6 7c 64   ;.....<h:FO...|d
0030  3b 8b c0 fd 1c 00 00 11 03 01 21 00 00 fb 35 10   ;.........!...5.
0040  00 00 00 00 00 00 00 00 00 d6 01 c0 2c            ............,

No.     Time           Source                Destination           Protocol Length Info
    485 19.756044                                                  IEEE 802.15.4 5      Ack

Frame 485: 5 bytes on wire (40 bits), 5 bytes captured (40 bits)
    Encapsulation type: IEEE 802.15.4 Wireless PAN (104)
    Arrival Time: Mar  3, 2023 16:19:15.807507000 CST
    [Time shift for this packet: 0.000000000 seconds]
    Epoch Time: 1677881955.807507000 seconds
    [Time delta from previous captured frame: 0.000505000 seconds]
    [Time delta from previous displayed frame: 0.000505000 seconds]
    [Time since reference or first frame: 19.756044000 seconds]
    Frame Number: 485
    Frame Length: 5 bytes (40 bits)
    Capture Length: 5 bytes (40 bits)
    [Frame is marked: False]
    [Frame is ignored: False]
    [Protocols in frame: wpan]
IEEE 802.15.4 Ack, Sequence Number: 97
    Frame Control Field: 0x0002, Frame Type: Ack, Destination Addressing Mode: None, Frame Version: IEEE Std 802.15.4-2003, Source Addressing Mode: None
        .... .... .... .010 = Frame Type: Ack (0x2)
        .... .... .... 0... = Security Enabled: False
        .... .... ...0 .... = Frame Pending: False
        .... .... ..0. .... = Acknowledge Request: False
        .... .... .0.. .... = PAN ID Compression: False
        .... .... 0... .... = Reserved: False
        .... ...0 .... .... = Sequence Number Suppression: False
        .... ..0. .... .... = Information Elements Present: False
        .... 00.. .... .... = Destination Addressing Mode: None (0x0)
        ..00 .... .... .... = Frame Version: IEEE Std 802.15.4-2003 (0)
        00.. .... .... .... = Source Addressing Mode: None (0x0)
    Sequence Number: 97
    FCS: 0xc737 (Correct)
    [Ack To: 484]
    [Ack Time: 0.505 ms]

0000  02 00 61 37 c7                                    ..a7.

No.     Time           Source                Destination           Protocol Length Info
    486 19.759504      0x0103                0x0203                IEEE 802.15.4 29     Data, Dst: 0x0203, Src: 0x0103

Frame 486: 29 bytes on wire (232 bits), 29 bytes captured (232 bits)
    Encapsulation type: IEEE 802.15.4 Wireless PAN (104)
    Arrival Time: Mar  3, 2023 16:19:15.810967000 CST
    [Time shift for this packet: 0.000000000 seconds]
    Epoch Time: 1677881955.810967000 seconds
    [Time delta from previous captured frame: 0.003460000 seconds]
    [Time delta from previous displayed frame: 0.003460000 seconds]
    [Time since reference or first frame: 19.759504000 seconds]
    Frame Number: 486
    Frame Length: 29 bytes (232 bits)
    Capture Length: 29 bytes (232 bits)
    [Frame is marked: False]
    [Frame is ignored: False]
    [Protocols in frame: wpan:data]
IEEE 802.15.4 Data, Dst: 0x0203, Src: 0x0103
    Frame Control Field: 0x8861, Frame Type: Data, Acknowledge Request, PAN ID Compression, Destination Addressing Mode: Short/16-bit, Frame Version: IEEE Std 802.15.4-2003, Source Addressing Mode: Short/16-bit
        .... .... .... .001 = Frame Type: Data (0x1)
        .... .... .... 0... = Security Enabled: False
        .... .... ...0 .... = Frame Pending: False
        .... .... ..1. .... = Acknowledge Request: True
        .... .... .1.. .... = PAN ID Compression: True
        .... .... 0... .... = Reserved: False
        .... ...0 .... .... = Sequence Number Suppression: False
        .... ..0. .... .... = Information Elements Present: False
        .... 10.. .... .... = Destination Addressing Mode: Short/16-bit (0x2)
        ..00 .... .... .... = Frame Version: IEEE Std 802.15.4-2003 (0)
        10.. .... .... .... = Source Addressing Mode: Short/16-bit (0x2)
    Sequence Number: 98
    Destination PAN: 0x3332
    Destination: 0x0203
    Source: 0x0103
    FCS: 0x4c47 (Correct)
    [Ack In: 487]
Data (18 bytes)
    Data: 94000000d7010000000000000000167fb214
    [Length: 18]

0000  61 88 62 32 33 03 02 03 01 94 00 00 00 d7 01 00   a.b23...........
0010  00 00 00 00 00 00 00 16 7f b2 14 47 4c            ...........GL

No.     Time           Source                Destination           Protocol Length Info
    487 19.760043                                                  IEEE 802.15.4 5      Ack

Frame 487: 5 bytes on wire (40 bits), 5 bytes captured (40 bits)
    Encapsulation type: IEEE 802.15.4 Wireless PAN (104)
    Arrival Time: Mar  3, 2023 16:19:15.811506000 CST
    [Time shift for this packet: 0.000000000 seconds]
    Epoch Time: 1677881955.811506000 seconds
    [Time delta from previous captured frame: 0.000539000 seconds]
    [Time delta from previous displayed frame: 0.000539000 seconds]
    [Time since reference or first frame: 19.760043000 seconds]
    Frame Number: 487
    Frame Length: 5 bytes (40 bits)
    Capture Length: 5 bytes (40 bits)
    [Frame is marked: False]
    [Frame is ignored: False]
    [Protocols in frame: wpan]
IEEE 802.15.4 Ack, Sequence Number: 98
    Frame Control Field: 0x0002, Frame Type: Ack, Destination Addressing Mode: None, Frame Version: IEEE Std 802.15.4-2003, Source Addressing Mode: None
        .... .... .... .010 = Frame Type: Ack (0x2)
        .... .... .... 0... = Security Enabled: False
        .... .... ...0 .... = Frame Pending: False
        .... .... ..0. .... = Acknowledge Request: False
        .... .... .0.. .... = PAN ID Compression: False
        .... .... 0... .... = Reserved: False
        .... ...0 .... .... = Sequence Number Suppression: False
        .... ..0. .... .... = Information Elements Present: False
        .... 00.. .... .... = Destination Addressing Mode: None (0x0)
        ..00 .... .... .... = Frame Version: IEEE Std 802.15.4-2003 (0)
        00.. .... .... .... = Source Addressing Mode: None (0x0)
    Sequence Number: 98
    FCS: 0xf5ac (Correct)
    [Ack To: 486]
    [Ack Time: 0.539 ms]

0000  02 00 62 ac f5                                    ..b..

No.     Time           Source                Destination           Protocol Length Info
    488 19.823043      0x0203                0x0103                IEEE 802.15.4 34     Data, Dst: 0x0103, Src: 0x0203

Frame 488: 34 bytes on wire (272 bits), 34 bytes captured (272 bits)
    Encapsulation type: IEEE 802.15.4 Wireless PAN (104)
    Arrival Time: Mar  3, 2023 16:19:15.874506000 CST
    [Time shift for this packet: 0.000000000 seconds]
    Epoch Time: 1677881955.874506000 seconds
    [Time delta from previous captured frame: 0.063000000 seconds]
    [Time delta from previous displayed frame: 0.063000000 seconds]
    [Time since reference or first frame: 19.823043000 seconds]
    Frame Number: 488
    Frame Length: 34 bytes (272 bits)
    Capture Length: 34 bytes (272 bits)
    [Frame is marked: False]
    [Frame is ignored: False]
    [Protocols in frame: wpan:data]
IEEE 802.15.4 Data, Dst: 0x0103, Src: 0x0203
    Frame Control Field: 0x8861, Frame Type: Data, Acknowledge Request, PAN ID Compression, Destination Addressing Mode: Short/16-bit, Frame Version: IEEE Std 802.15.4-2003, Source Addressing Mode: Short/16-bit
        .... .... .... .001 = Frame Type: Data (0x1)
        .... .... .... 0... = Security Enabled: False
        .... .... ...0 .... = Frame Pending: False
        .... .... ..1. .... = Acknowledge Request: True
        .... .... .1.. .... = PAN ID Compression: True
        .... .... 0... .... = Reserved: False
        .... ...0 .... .... = Sequence Number Suppression: False
        .... ..0. .... .... = Information Elements Present: False
        .... 10.. .... .... = Destination Addressing Mode: Short/16-bit (0x2)
        ..00 .... .... .... = Frame Version: IEEE Std 802.15.4-2003 (0)
        10.. .... .... .... = Source Addressing Mode: Short/16-bit (0x2)
    Sequence Number: 228
    Destination PAN: 0x3332
    Destination: 0x0103
    Source: 0x0203
    FCS: 0xc768 (Correct)
    [Ack In: 489]
Data (23 bytes)
    Data: 1800fd09000014ffbe000000000000000608c004030efa
    [Length: 23]

0000  61 88 e4 32 33 03 01 03 02 18 00 fd 09 00 00 14   a..23...........
0010  ff be 00 00 00 00 00 00 00 06 08 c0 04 03 0e fa   ................
0020  68 c7                                             h.

No.     Time           Source                Destination           Protocol Length Info
    489 19.823394                                                  IEEE 802.15.4 5      Ack

Frame 489: 5 bytes on wire (40 bits), 5 bytes captured (40 bits)
    Encapsulation type: IEEE 802.15.4 Wireless PAN (104)
    Arrival Time: Mar  3, 2023 16:19:15.874857000 CST
    [Time shift for this packet: 0.000000000 seconds]
    Epoch Time: 1677881955.874857000 seconds
    [Time delta from previous captured frame: 0.000351000 seconds]
    [Time delta from previous displayed frame: 0.000351000 seconds]
    [Time since reference or first frame: 19.823394000 seconds]
    Frame Number: 489
    Frame Length: 5 bytes (40 bits)
    Capture Length: 5 bytes (40 bits)
    [Frame is marked: False]
    [Frame is ignored: False]
    [Protocols in frame: wpan]
IEEE 802.15.4 Ack, Sequence Number: 228
    Frame Control Field: 0x0002, Frame Type: Ack, Destination Addressing Mode: None, Frame Version: IEEE Std 802.15.4-2003, Source Addressing Mode: None
        .... .... .... .010 = Frame Type: Ack (0x2)
        .... .... .... 0... = Security Enabled: False
        .... .... ...0 .... = Frame Pending: False
        .... .... ..0. .... = Acknowledge Request: False
        .... .... .0.. .... = PAN ID Compression: False
        .... .... 0... .... = Reserved: False
        .... ...0 .... .... = Sequence Number Suppression: False
        .... ..0. .... .... = Information Elements Present: False
        .... 00.. .... .... = Destination Addressing Mode: None (0x0)
        ..00 .... .... .... = Frame Version: IEEE Std 802.15.4-2003 (0)
        00.. .... .... .... = Source Addressing Mode: None (0x0)
    Sequence Number: 228
    FCS: 0x1492 (Correct)
    [Ack To: 488]
    [Ack Time: 0.351 ms]

0000  02 00 e4 92 14                                    .....

No.     Time           Source                Destination           Protocol Length Info
    490 19.872604      0x0103                0x0203                IEEE 802.15.4 53     Data, Dst: 0x0203, Src: 0x0103

Frame 490: 53 bytes on wire (424 bits), 53 bytes captured (424 bits)
    Encapsulation type: IEEE 802.15.4 Wireless PAN (104)
    Arrival Time: Mar  3, 2023 16:19:15.924067000 CST
    [Time shift for this packet: 0.000000000 seconds]
    Epoch Time: 1677881955.924067000 seconds
    [Time delta from previous captured frame: 0.049210000 seconds]
    [Time delta from previous displayed frame: 0.049210000 seconds]
    [Time since reference or first frame: 19.872604000 seconds]
    Frame Number: 490
    Frame Length: 53 bytes (424 bits)
    Capture Length: 53 bytes (424 bits)
    [Frame is marked: False]
    [Frame is ignored: False]
    [Protocols in frame: wpan:data]
IEEE 802.15.4 Data, Dst: 0x0203, Src: 0x0103
    Frame Control Field: 0x8861, Frame Type: Data, Acknowledge Request, PAN ID Compression, Destination Addressing Mode: Short/16-bit, Frame Version: IEEE Std 802.15.4-2003, Source Addressing Mode: Short/16-bit
        .... .... .... .001 = Frame Type: Data (0x1)
        .... .... .... 0... = Security Enabled: False
        .... .... ...0 .... = Frame Pending: False
        .... .... ..1. .... = Acknowledge Request: True
        .... .... .1.. .... = PAN ID Compression: True
        .... .... 0... .... = Reserved: False
        .... ...0 .... .... = Sequence Number Suppression: False
        .... ..0. .... .... = Information Elements Present: False
        .... 10.. .... .... = Destination Addressing Mode: Short/16-bit (0x2)
        ..00 .... .... .... = Frame Version: IEEE Std 802.15.4-2003 (0)
        10.. .... .... .... = Source Addressing Mode: Short/16-bit (0x2)
    Sequence Number: 99
    Destination PAN: 0x3332
    Destination: 0x0203
    Source: 0x0103
    FCS: 0x42d8 (Correct)
    [Ack In: 491]
Data (42 bytes)
    Data: 9500fd1c0000120301210000753610000000000000000000
    [Length: 42]

0000  61 88 63 32 33 03 02 03 01 95 00 fd 1c 00 00 12   a.c23...........
0010  03 01 21 00 00 75 36 10 00 00 00 00 00 00 00 00   ..!..u6.........
0020  00 4a 01 00 00 50 01 00 00 00 00 01 00 00 00 16   .J...P..........
0030  7f 27 07 d8 42                                    .'..B

No.     Time           Source                Destination           Protocol Length Info
    491 19.873119                                                  IEEE 802.15.4 5      Ack

Frame 491: 5 bytes on wire (40 bits), 5 bytes captured (40 bits)
    Encapsulation type: IEEE 802.15.4 Wireless PAN (104)
    Arrival Time: Mar  3, 2023 16:19:15.924582000 CST
    [Time shift for this packet: 0.000000000 seconds]
    Epoch Time: 1677881955.924582000 seconds
    [Time delta from previous captured frame: 0.000515000 seconds]
    [Time delta from previous displayed frame: 0.000515000 seconds]
    [Time since reference or first frame: 19.873119000 seconds]
    Frame Number: 491
    Frame Length: 5 bytes (40 bits)
    Capture Length: 5 bytes (40 bits)
    [Frame is marked: False]
    [Frame is ignored: False]
    [Protocols in frame: wpan]
IEEE 802.15.4 Ack, Sequence Number: 99
    Frame Control Field: 0x0002, Frame Type: Ack, Destination Addressing Mode: None, Frame Version: IEEE Std 802.15.4-2003, Source Addressing Mode: None
        .... .... .... .010 = Frame Type: Ack (0x2)
        .... .... .... 0... = Security Enabled: False
        .... .... ...0 .... = Frame Pending: False
        .... .... ..0. .... = Acknowledge Request: False
        .... .... .0.. .... = PAN ID Compression: False
        .... .... 0... .... = Reserved: False
        .... ...0 .... .... = Sequence Number Suppression: False
        .... ..0. .... .... = Information Elements Present: False
        .... 00.. .... .... = Destination Addressing Mode: None (0x0)
        ..00 .... .... .... = Frame Version: IEEE Std 802.15.4-2003 (0)
        00.. .... .... .... = Source Addressing Mode: None (0x0)
    Sequence Number: 99
    FCS: 0xe425 (Correct)
    [Ack To: 490]
    [Ack Time: 0.515 ms]

0000  02 00 63 25 e4                                    ..c%.

No.     Time           Source                Destination           Protocol Length Info
    492 19.998574      0x0103                0x0203                IEEE 802.15.4 53     Data, Dst: 0x0203, Src: 0x0103

Frame 492: 53 bytes on wire (424 bits), 53 bytes captured (424 bits)
    Encapsulation type: IEEE 802.15.4 Wireless PAN (104)
    Arrival Time: Mar  3, 2023 16:19:16.050037000 CST
    [Time shift for this packet: 0.000000000 seconds]
    Epoch Time: 1677881956.050037000 seconds
    [Time delta from previous captured frame: 0.125455000 seconds]
    [Time delta from previous displayed frame: 0.125455000 seconds]
    [Time since reference or first frame: 19.998574000 seconds]
    Frame Number: 492
    Frame Length: 53 bytes (424 bits)
    Capture Length: 53 bytes (424 bits)
    [Frame is marked: False]
    [Frame is ignored: False]
    [Protocols in frame: wpan:data]
IEEE 802.15.4 Data, Dst: 0x0203, Src: 0x0103
    Frame Control Field: 0x8861, Frame Type: Data, Acknowledge Request, PAN ID Compression, Destination Addressing Mode: Short/16-bit, Frame Version: IEEE Std 802.15.4-2003, Source Addressing Mode: Short/16-bit
        .... .... .... .001 = Frame Type: Data (0x1)
        .... .... .... 0... = Security Enabled: False
        .... .... ...0 .... = Frame Pending: False
        .... .... ..1. .... = Acknowledge Request: True
        .... .... .1.. .... = PAN ID Compression: True
        .... .... 0... .... = Reserved: False
        .... ...0 .... .... = Sequence Number Suppression: False
        .... ..0. .... .... = Information Elements Present: False
        .... 10.. .... .... = Destination Addressing Mode: Short/16-bit (0x2)
        ..00 .... .... .... = Frame Version: IEEE Std 802.15.4-2003 (0)
        10.. .... .... .... = Source Addressing Mode: Short/16-bit (0x2)
    Sequence Number: 100
    Destination PAN: 0x3332
    Destination: 0x0203
    Source: 0x0103
    FCS: 0xf93b (Correct)
    [Ack In: 493]
Data (42 bytes)
    Data: 9600fd1c0000130301210000f33610000000000000000000
    [Length: 42]

0000  61 88 64 32 33 03 02 03 01 96 00 fd 1c 00 00 13   a.d23...........
0010  03 01 21 00 00 f3 36 10 00 00 00 00 00 00 00 00   ..!...6.........
0020  00 f4 01 00 00 f4 01 00 00 00 00 01 00 00 00 15   ................
0030  7f 36 5f 3b f9                                    .6_;.

No.     Time           Source                Destination           Protocol Length Info
    493 19.999078                                                  IEEE 802.15.4 5      Ack

Frame 493: 5 bytes on wire (40 bits), 5 bytes captured (40 bits)
    Encapsulation type: IEEE 802.15.4 Wireless PAN (104)
    Arrival Time: Mar  3, 2023 16:19:16.050541000 CST
    [Time shift for this packet: 0.000000000 seconds]
    Epoch Time: 1677881956.050541000 seconds
    [Time delta from previous captured frame: 0.000504000 seconds]
    [Time delta from previous displayed frame: 0.000504000 seconds]
    [Time since reference or first frame: 19.999078000 seconds]
    Frame Number: 493
    Frame Length: 5 bytes (40 bits)
    Capture Length: 5 bytes (40 bits)
    [Frame is marked: False]
    [Frame is ignored: False]
    [Protocols in frame: wpan]
IEEE 802.15.4 Ack, Sequence Number: 100
    Frame Control Field: 0x0002, Frame Type: Ack, Destination Addressing Mode: None, Frame Version: IEEE Std 802.15.4-2003, Source Addressing Mode: None
        .... .... .... .010 = Frame Type: Ack (0x2)
        .... .... .... 0... = Security Enabled: False
        .... .... ...0 .... = Frame Pending: False
        .... .... ..0. .... = Acknowledge Request: False
        .... .... .0.. .... = PAN ID Compression: False
        .... .... 0... .... = Reserved: False
        .... ...0 .... .... = Sequence Number Suppression: False
        .... ..0. .... .... = Information Elements Present: False
        .... 00.. .... .... = Destination Addressing Mode: None (0x0)
        ..00 .... .... .... = Frame Version: IEEE Std 802.15.4-2003 (0)
        00.. .... .... .... = Source Addressing Mode: None (0x0)
    Sequence Number: 100
    FCS: 0x909a (Correct)
    [Ack To: 492]
    [Ack Time: 0.504 ms]

0000  02 00 64 9a 90                                    ..d..

No.     Time           Source                Destination           Protocol Length Info
    494 20.125396      0x0103                0x0203                IEEE 802.15.4 53     Data, Dst: 0x0203, Src: 0x0103

Frame 494: 53 bytes on wire (424 bits), 53 bytes captured (424 bits)
    Encapsulation type: IEEE 802.15.4 Wireless PAN (104)
    Arrival Time: Mar  3, 2023 16:19:16.176859000 CST
    [Time shift for this packet: 0.000000000 seconds]
    Epoch Time: 1677881956.176859000 seconds
    [Time delta from previous captured frame: 0.126318000 seconds]
    [Time delta from previous displayed frame: 0.126318000 seconds]
    [Time since reference or first frame: 20.125396000 seconds]
    Frame Number: 494
    Frame Length: 53 bytes (424 bits)
    Capture Length: 53 bytes (424 bits)
    [Frame is marked: False]
    [Frame is ignored: False]
    [Protocols in frame: wpan:data]
IEEE 802.15.4 Data, Dst: 0x0203, Src: 0x0103
    Frame Control Field: 0x8861, Frame Type: Data, Acknowledge Request, PAN ID Compression, Destination Addressing Mode: Short/16-bit, Frame Version: IEEE Std 802.15.4-2003, Source Addressing Mode: Short/16-bit
        .... .... .... .001 = Frame Type: Data (0x1)
        .... .... .... 0... = Security Enabled: False
        .... .... ...0 .... = Frame Pending: False
        .... .... ..1. .... = Acknowledge Request: True
        .... .... .1.. .... = PAN ID Compression: True
        .... .... 0... .... = Reserved: False
        .... ...0 .... .... = Sequence Number Suppression: False
        .... ..0. .... .... = Information Elements Present: False
        .... 10.. .... .... = Destination Addressing Mode: Short/16-bit (0x2)
        ..00 .... .... .... = Frame Version: IEEE Std 802.15.4-2003 (0)
        10.. .... .... .... = Source Addressing Mode: Short/16-bit (0x2)
    Sequence Number: 101
    Destination PAN: 0x3332
    Destination: 0x0203
    Source: 0x0103
    FCS: 0xc670 (Correct)
    [Ack In: 495]
Data (42 bytes)
    Data: 9700fd1c0000140301210000723710000000000000000000
    [Length: 42]

0000  61 88 65 32 33 03 02 03 01 97 00 fd 1c 00 00 14   a.e23...........
0010  03 01 21 00 00 72 37 10 00 00 00 00 00 00 00 00   ..!..r7.........
0020  00 b8 01 00 00 b8 01 00 00 00 00 01 00 00 00 14   ................
0030  7f 28 cd 70 c6                                    .(.p.

No.     Time           Source                Destination           Protocol Length Info
    495 20.125774                                                  IEEE 802.15.4 5      Ack

Frame 495: 5 bytes on wire (40 bits), 5 bytes captured (40 bits)
    Encapsulation type: IEEE 802.15.4 Wireless PAN (104)
    Arrival Time: Mar  3, 2023 16:19:16.177237000 CST
    [Time shift for this packet: 0.000000000 seconds]
    Epoch Time: 1677881956.177237000 seconds
    [Time delta from previous captured frame: 0.000378000 seconds]
    [Time delta from previous displayed frame: 0.000378000 seconds]
    [Time since reference or first frame: 20.125774000 seconds]
    Frame Number: 495
    Frame Length: 5 bytes (40 bits)
    Capture Length: 5 bytes (40 bits)
    [Frame is marked: False]
    [Frame is ignored: False]
    [Protocols in frame: wpan]
IEEE 802.15.4 Ack, Sequence Number: 101
    Frame Control Field: 0x0002, Frame Type: Ack, Destination Addressing Mode: None, Frame Version: IEEE Std 802.15.4-2003, Source Addressing Mode: None
        .... .... .... .010 = Frame Type: Ack (0x2)
        .... .... .... 0... = Security Enabled: False
        .... .... ...0 .... = Frame Pending: False
        .... .... ..0. .... = Acknowledge Request: False
        .... .... .0.. .... = PAN ID Compression: False
        .... .... 0... .... = Reserved: False
        .... ...0 .... .... = Sequence Number Suppression: False
        .... ..0. .... .... = Information Elements Present: False
        .... 00.. .... .... = Destination Addressing Mode: None (0x0)
        ..00 .... .... .... = Frame Version: IEEE Std 802.15.4-2003 (0)
        00.. .... .... .... = Source Addressing Mode: None (0x0)
    Sequence Number: 101
    FCS: 0x8113 (Correct)
    [Ack To: 494]
    [Ack Time: 0.378 ms]

0000  02 00 65 13 81                                    ..e..

No.     Time           Source                Destination           Protocol Length Info
    496 20.255572      0x0103                0x0203                IEEE 802.15.4 77     Data, Dst: 0x0203, Src: 0x0103

Frame 496: 77 bytes on wire (616 bits), 77 bytes captured (616 bits)
    Encapsulation type: IEEE 802.15.4 Wireless PAN (104)
    Arrival Time: Mar  3, 2023 16:19:16.307035000 CST
    [Time shift for this packet: 0.000000000 seconds]
    Epoch Time: 1677881956.307035000 seconds
    [Time delta from previous captured frame: 0.129798000 seconds]
    [Time delta from previous displayed frame: 0.129798000 seconds]
    [Time since reference or first frame: 20.255572000 seconds]
    Frame Number: 496
    Frame Length: 77 bytes (616 bits)
    Capture Length: 77 bytes (616 bits)
    [Frame is marked: False]
    [Frame is ignored: False]
    [Protocols in frame: wpan:data]
IEEE 802.15.4 Data, Dst: 0x0203, Src: 0x0103
    Frame Control Field: 0x8861, Frame Type: Data, Acknowledge Request, PAN ID Compression, Destination Addressing Mode: Short/16-bit, Frame Version: IEEE Std 802.15.4-2003, Source Addressing Mode: Short/16-bit
        .... .... .... .001 = Frame Type: Data (0x1)
        .... .... .... 0... = Security Enabled: False
        .... .... ...0 .... = Frame Pending: False
        .... .... ..1. .... = Acknowledge Request: True
        .... .... .1.. .... = PAN ID Compression: True
        .... .... 0... .... = Reserved: False
        .... ...0 .... .... = Sequence Number Suppression: False
        .... ..0. .... .... = Information Elements Present: False
        .... 10.. .... .... = Destination Addressing Mode: Short/16-bit (0x2)
        ..00 .... .... .... = Frame Version: IEEE Std 802.15.4-2003 (0)
        10.. .... .... .... = Source Addressing Mode: Short/16-bit (0x2)
    Sequence Number: 102
    Destination PAN: 0x3332
    Destination: 0x0203
    Source: 0x0103
    FCS: 0x3cee (Correct)
    [Ack In: 497]
Data (66 bytes)
    Data: 9800fd1f00001503010100000ffc60130f1c60100f9c5001
    [Length: 66]

0000  61 88 66 32 33 03 02 03 01 98 00 fd 1f 00 00 15   a.f23...........
0010  03 01 01 00 00 0f fc 60 13 0f 1c 60 10 0f 9c 50   .......`...`...P
0020  01 f2 01 00 00 ff ff 00 00 00 00 00 00 00 00 00   ................
0030  00 00 00 ff 80 1b fd 16 00 00 16 03 01 c1 00 00   ................
0040  00 00 00 00 06 a2 15 3b 10 4a 3d ee 3c            .......;.J=.<

No.     Time           Source                Destination           Protocol Length Info
    497 20.256080                                                  IEEE 802.15.4 5      Ack

Frame 497: 5 bytes on wire (40 bits), 5 bytes captured (40 bits)
    Encapsulation type: IEEE 802.15.4 Wireless PAN (104)
    Arrival Time: Mar  3, 2023 16:19:16.307543000 CST
    [Time shift for this packet: 0.000000000 seconds]
    Epoch Time: 1677881956.307543000 seconds
    [Time delta from previous captured frame: 0.000508000 seconds]
    [Time delta from previous displayed frame: 0.000508000 seconds]
    [Time since reference or first frame: 20.256080000 seconds]
    Frame Number: 497
    Frame Length: 5 bytes (40 bits)
    Capture Length: 5 bytes (40 bits)
    [Frame is marked: False]
    [Frame is ignored: False]
    [Protocols in frame: wpan]
IEEE 802.15.4 Ack, Sequence Number: 102
    Frame Control Field: 0x0002, Frame Type: Ack, Destination Addressing Mode: None, Frame Version: IEEE Std 802.15.4-2003, Source Addressing Mode: None
        .... .... .... .010 = Frame Type: Ack (0x2)
        .... .... .... 0... = Security Enabled: False
        .... .... ...0 .... = Frame Pending: False
        .... .... ..0. .... = Acknowledge Request: False
        .... .... .0.. .... = PAN ID Compression: False
        .... .... 0... .... = Reserved: False
        .... ...0 .... .... = Sequence Number Suppression: False
        .... ..0. .... .... = Information Elements Present: False
        .... 00.. .... .... = Destination Addressing Mode: None (0x0)
        ..00 .... .... .... = Frame Version: IEEE Std 802.15.4-2003 (0)
        00.. .... .... .... = Source Addressing Mode: None (0x0)
    Sequence Number: 102
    FCS: 0xb388 (Correct)
    [Ack To: 496]
    [Ack Time: 0.508 ms]

0000  02 00 66 88 b3                                    ..f..

No.     Time           Source                Destination           Protocol Length Info
    498 20.273712      0x0103                0x0203                IEEE 802.15.4 106    Data, Dst: 0x0203, Src: 0x0103

Frame 498: 106 bytes on wire (848 bits), 106 bytes captured (848 bits)
    Encapsulation type: IEEE 802.15.4 Wireless PAN (104)
    Arrival Time: Mar  3, 2023 16:19:16.325175000 CST
    [Time shift for this packet: 0.000000000 seconds]
    Epoch Time: 1677881956.325175000 seconds
    [Time delta from previous captured frame: 0.017632000 seconds]
    [Time delta from previous displayed frame: 0.017632000 seconds]
    [Time since reference or first frame: 20.273712000 seconds]
    Frame Number: 498
    Frame Length: 106 bytes (848 bits)
    Capture Length: 106 bytes (848 bits)
    [Frame is marked: False]
    [Frame is ignored: False]
    [Protocols in frame: wpan:data]
IEEE 802.15.4 Data, Dst: 0x0203, Src: 0x0103
    Frame Control Field: 0x8861, Frame Type: Data, Acknowledge Request, PAN ID Compression, Destination Addressing Mode: Short/16-bit, Frame Version: IEEE Std 802.15.4-2003, Source Addressing Mode: Short/16-bit
        .... .... .... .001 = Frame Type: Data (0x1)
        .... .... .... 0... = Security Enabled: False
        .... .... ...0 .... = Frame Pending: False
        .... .... ..1. .... = Acknowledge Request: True
        .... .... .1.. .... = PAN ID Compression: True
        .... .... 0... .... = Reserved: False
        .... ...0 .... .... = Sequence Number Suppression: False
        .... ..0. .... .... = Information Elements Present: False
        .... 10.. .... .... = Destination Addressing Mode: Short/16-bit (0x2)
        ..00 .... .... .... = Frame Version: IEEE Std 802.15.4-2003 (0)
        10.. .... .... .... = Source Addressing Mode: Short/16-bit (0x2)
    Sequence Number: 103
    Destination PAN: 0x3332
    Destination: 0x0203
    Source: 0x0103
    FCS: 0x79bf (Correct)
    [Ack In: 499]
Data (95 bytes)
    Data: 99003bfcfbd13d00000000a501d444fd1c00001703011e00
    [Length: 95]

0000  61 88 67 32 33 03 02 03 01 99 00 3b fc fb d1 3d   a.g23......;...=
0010  00 00 00 00 a5 01 d4 44 fd 1c 00 00 17 03 01 1e   .......D........
0020  00 00 ef 37 10 00 98 f7 a2 3d ad 27 27 3b fb fa   ...7.....=.'';..
0030  1a bf 30 f1 94 b7 74 87 d6 39 64 70 5c 3b 79 ea   ..0...t..9dp\;y.
0040  fd 1c 00 00 18 03 01 21 00 00 f1 37 10 00 00 00   .......!...7....
0050  00 00 00 00 00 00 3a 02 00 00 40 02 00 00 00 00   ......:...@.....
0060  01 00 00 00 14 7f 7b e9 bf 79                     ......{..y

No.     Time           Source                Destination           Protocol Length Info
    499 20.274232                                                  IEEE 802.15.4 5      Ack

Frame 499: 5 bytes on wire (40 bits), 5 bytes captured (40 bits)
    Encapsulation type: IEEE 802.15.4 Wireless PAN (104)
    Arrival Time: Mar  3, 2023 16:19:16.325695000 CST
    [Time shift for this packet: 0.000000000 seconds]
    Epoch Time: 1677881956.325695000 seconds
    [Time delta from previous captured frame: 0.000520000 seconds]
    [Time delta from previous displayed frame: 0.000520000 seconds]
    [Time since reference or first frame: 20.274232000 seconds]
    Frame Number: 499
    Frame Length: 5 bytes (40 bits)
    Capture Length: 5 bytes (40 bits)
    [Frame is marked: False]
    [Frame is ignored: False]
    [Protocols in frame: wpan]
IEEE 802.15.4 Ack, Sequence Number: 103
    Frame Control Field: 0x0002, Frame Type: Ack, Destination Addressing Mode: None, Frame Version: IEEE Std 802.15.4-2003, Source Addressing Mode: None
        .... .... .... .010 = Frame Type: Ack (0x2)
        .... .... .... 0... = Security Enabled: False
        .... .... ...0 .... = Frame Pending: False
        .... .... ..0. .... = Acknowledge Request: False
        .... .... .0.. .... = PAN ID Compression: False
        .... .... 0... .... = Reserved: False
        .... ...0 .... .... = Sequence Number Suppression: False
        .... ..0. .... .... = Information Elements Present: False
        .... 00.. .... .... = Destination Addressing Mode: None (0x0)
        ..00 .... .... .... = Frame Version: IEEE Std 802.15.4-2003 (0)
        00.. .... .... .... = Source Addressing Mode: None (0x0)
    Sequence Number: 103
    FCS: 0xa201 (Correct)
    [Ack To: 498]
    [Ack Time: 0.520 ms]

0000  02 00 67 01 a2                                    ..g..

No.     Time           Source                Destination           Protocol Length Info
    500 20.321273      0x0103                0x0203                IEEE 802.15.4 34     Data, Dst: 0x0203, Src: 0x0103

Frame 500: 34 bytes on wire (272 bits), 34 bytes captured (272 bits)
    Encapsulation type: IEEE 802.15.4 Wireless PAN (104)
    Arrival Time: Mar  3, 2023 16:19:16.372736000 CST
    [Time shift for this packet: 0.000000000 seconds]
    Epoch Time: 1677881956.372736000 seconds
    [Time delta from previous captured frame: 0.047041000 seconds]
    [Time delta from previous displayed frame: 0.047041000 seconds]
    [Time since reference or first frame: 20.321273000 seconds]
    Frame Number: 500
    Frame Length: 34 bytes (272 bits)
    Capture Length: 34 bytes (272 bits)
    [Frame is marked: False]
    [Frame is ignored: False]
    [Protocols in frame: wpan:data]
IEEE 802.15.4 Data, Dst: 0x0203, Src: 0x0103
    Frame Control Field: 0x8861, Frame Type: Data, Acknowledge Request, PAN ID Compression, Destination Addressing Mode: Short/16-bit, Frame Version: IEEE Std 802.15.4-2003, Source Addressing Mode: Short/16-bit
        .... .... .... .001 = Frame Type: Data (0x1)
        .... .... .... 0... = Security Enabled: False
        .... .... ...0 .... = Frame Pending: False
        .... .... ..1. .... = Acknowledge Request: True
        .... .... .1.. .... = PAN ID Compression: True
        .... .... 0... .... = Reserved: False
        .... ...0 .... .... = Sequence Number Suppression: False
        .... ..0. .... .... = Information Elements Present: False
        .... 10.. .... .... = Destination Addressing Mode: Short/16-bit (0x2)
        ..00 .... .... .... = Frame Version: IEEE Std 802.15.4-2003 (0)
        10.. .... .... .... = Source Addressing Mode: Short/16-bit (0x2)
    Sequence Number: 104
    Destination PAN: 0x3332
    Destination: 0x0203
    Source: 0x0103
    FCS: 0x1556 (Correct)
    [Ack In: 501]
Data (23 bytes)
    Data: 9a00fd090000190301000000000000000203510303ea7d
    [Length: 23]

0000  61 88 68 32 33 03 02 03 01 9a 00 fd 09 00 00 19   a.h23...........
0010  03 01 00 00 00 00 00 00 00 02 03 51 03 03 ea 7d   ...........Q...}
0020  56 15                                             V.

No.     Time           Source                Destination           Protocol Length Info
    501 20.321783                                                  IEEE 802.15.4 5      Ack

Frame 501: 5 bytes on wire (40 bits), 5 bytes captured (40 bits)
    Encapsulation type: IEEE 802.15.4 Wireless PAN (104)
    Arrival Time: Mar  3, 2023 16:19:16.373246000 CST
    [Time shift for this packet: 0.000000000 seconds]
    Epoch Time: 1677881956.373246000 seconds
    [Time delta from previous captured frame: 0.000510000 seconds]
    [Time delta from previous displayed frame: 0.000510000 seconds]
    [Time since reference or first frame: 20.321783000 seconds]
    Frame Number: 501
    Frame Length: 5 bytes (40 bits)
    Capture Length: 5 bytes (40 bits)
    [Frame is marked: False]
    [Frame is ignored: False]
    [Protocols in frame: wpan]
IEEE 802.15.4 Ack, Sequence Number: 104
    Frame Control Field: 0x0002, Frame Type: Ack, Destination Addressing Mode: None, Frame Version: IEEE Std 802.15.4-2003, Source Addressing Mode: None
        .... .... .... .010 = Frame Type: Ack (0x2)
        .... .... .... 0... = Security Enabled: False
        .... .... ...0 .... = Frame Pending: False
        .... .... ..0. .... = Acknowledge Request: False
        .... .... .0.. .... = PAN ID Compression: False
        .... .... 0... .... = Reserved: False
        .... ...0 .... .... = Sequence Number Suppression: False
        .... ..0. .... .... = Information Elements Present: False
        .... 00.. .... .... = Destination Addressing Mode: None (0x0)
        ..00 .... .... .... = Frame Version: IEEE Std 802.15.4-2003 (0)
        00.. .... .... .... = Source Addressing Mode: None (0x0)
    Sequence Number: 104
    FCS: 0x5af6 (Correct)
    [Ack To: 500]
    [Ack Time: 0.510 ms]

0000  02 00 68 f6 5a                                    ..h.Z

No.     Time           Source                Destination           Protocol Length Info
    502 20.372634      0x0103                0x0203                IEEE 802.15.4 53     Data, Dst: 0x0203, Src: 0x0103

Frame 502: 53 bytes on wire (424 bits), 53 bytes captured (424 bits)
    Encapsulation type: IEEE 802.15.4 Wireless PAN (104)
    Arrival Time: Mar  3, 2023 16:19:16.424097000 CST
    [Time shift for this packet: 0.000000000 seconds]
    Epoch Time: 1677881956.424097000 seconds
    [Time delta from previous captured frame: 0.050851000 seconds]
    [Time delta from previous displayed frame: 0.050851000 seconds]
    [Time since reference or first frame: 20.372634000 seconds]
    Frame Number: 502
    Frame Length: 53 bytes (424 bits)
    Capture Length: 53 bytes (424 bits)
    [Frame is marked: False]
    [Frame is ignored: False]
    [Protocols in frame: wpan:data]
IEEE 802.15.4 Data, Dst: 0x0203, Src: 0x0103
    Frame Control Field: 0x8861, Frame Type: Data, Acknowledge Request, PAN ID Compression, Destination Addressing Mode: Short/16-bit, Frame Version: IEEE Std 802.15.4-2003, Source Addressing Mode: Short/16-bit
        .... .... .... .001 = Frame Type: Data (0x1)
        .... .... .... 0... = Security Enabled: False
        .... .... ...0 .... = Frame Pending: False
        .... .... ..1. .... = Acknowledge Request: True
        .... .... .1.. .... = PAN ID Compression: True
        .... .... 0... .... = Reserved: False
        .... ...0 .... .... = Sequence Number Suppression: False
        .... ..0. .... .... = Information Elements Present: False
        .... 10.. .... .... = Destination Addressing Mode: Short/16-bit (0x2)
        ..00 .... .... .... = Frame Version: IEEE Std 802.15.4-2003 (0)
        10.. .... .... .... = Source Addressing Mode: Short/16-bit (0x2)
    Sequence Number: 105
    Destination PAN: 0x3332
    Destination: 0x0203
    Source: 0x0103
    FCS: 0xb3a5 (Correct)
    [Ack In: 503]
Data (42 bytes)
    Data: 9b00fd1c00001a0301210000693810000000000000000000
    [Length: 42]

0000  61 88 69 32 33 03 02 03 01 9b 00 fd 1c 00 00 1a   a.i23...........
0010  03 01 21 00 00 69 38 10 00 00 00 00 00 00 00 00   ..!..i8.........
0020  00 fe 01 00 00 02 02 00 00 00 00 01 00 00 00 13   ................
0030  7f 67 ee a5 b3                                    .g...

No.     Time           Source                Destination           Protocol Length Info
    503 20.373154                                                  IEEE 802.15.4 5      Ack

Frame 503: 5 bytes on wire (40 bits), 5 bytes captured (40 bits)
    Encapsulation type: IEEE 802.15.4 Wireless PAN (104)
    Arrival Time: Mar  3, 2023 16:19:16.424617000 CST
    [Time shift for this packet: 0.000000000 seconds]
    Epoch Time: 1677881956.424617000 seconds
    [Time delta from previous captured frame: 0.000520000 seconds]
    [Time delta from previous displayed frame: 0.000520000 seconds]
    [Time since reference or first frame: 20.373154000 seconds]
    Frame Number: 503
    Frame Length: 5 bytes (40 bits)
    Capture Length: 5 bytes (40 bits)
    [Frame is marked: False]
    [Frame is ignored: False]
    [Protocols in frame: wpan]
IEEE 802.15.4 Ack, Sequence Number: 105
    Frame Control Field: 0x0002, Frame Type: Ack, Destination Addressing Mode: None, Frame Version: IEEE Std 802.15.4-2003, Source Addressing Mode: None
        .... .... .... .010 = Frame Type: Ack (0x2)
        .... .... .... 0... = Security Enabled: False
        .... .... ...0 .... = Frame Pending: False
        .... .... ..0. .... = Acknowledge Request: False
        .... .... .0.. .... = PAN ID Compression: False
        .... .... 0... .... = Reserved: False
        .... ...0 .... .... = Sequence Number Suppression: False
        .... ..0. .... .... = Information Elements Present: False
        .... 00.. .... .... = Destination Addressing Mode: None (0x0)
        ..00 .... .... .... = Frame Version: IEEE Std 802.15.4-2003 (0)
        00.. .... .... .... = Source Addressing Mode: None (0x0)
    Sequence Number: 105
    FCS: 0x4b7f (Correct)
    [Ack To: 502]
    [Ack Time: 0.520 ms]

0000  02 00 69 7f 4b                                    ..i.K

No.     Time           Source                Destination           Protocol Length Info
    504 20.498783      0x0103                0x0203                IEEE 802.15.4 53     Data, Dst: 0x0203, Src: 0x0103

Frame 504: 53 bytes on wire (424 bits), 53 bytes captured (424 bits)
    Encapsulation type: IEEE 802.15.4 Wireless PAN (104)
    Arrival Time: Mar  3, 2023 16:19:16.550246000 CST
    [Time shift for this packet: 0.000000000 seconds]
    Epoch Time: 1677881956.550246000 seconds
    [Time delta from previous captured frame: 0.125629000 seconds]
    [Time delta from previous displayed frame: 0.125629000 seconds]
    [Time since reference or first frame: 20.498783000 seconds]
    Frame Number: 504
    Frame Length: 53 bytes (424 bits)
    Capture Length: 53 bytes (424 bits)
    [Frame is marked: False]
    [Frame is ignored: False]
    [Protocols in frame: wpan:data]
IEEE 802.15.4 Data, Dst: 0x0203, Src: 0x0103
    Frame Control Field: 0x8861, Frame Type: Data, Acknowledge Request, PAN ID Compression, Destination Addressing Mode: Short/16-bit, Frame Version: IEEE Std 802.15.4-2003, Source Addressing Mode: Short/16-bit
        .... .... .... .001 = Frame Type: Data (0x1)
        .... .... .... 0... = Security Enabled: False
        .... .... ...0 .... = Frame Pending: False
        .... .... ..1. .... = Acknowledge Request: True
        .... .... .1.. .... = PAN ID Compression: True
        .... .... 0... .... = Reserved: False
        .... ...0 .... .... = Sequence Number Suppression: False
        .... ..0. .... .... = Information Elements Present: False
        .... 10.. .... .... = Destination Addressing Mode: Short/16-bit (0x2)
        ..00 .... .... .... = Frame Version: IEEE Std 802.15.4-2003 (0)
        10.. .... .... .... = Source Addressing Mode: Short/16-bit (0x2)
    Sequence Number: 106
    Destination PAN: 0x3332
    Destination: 0x0203
    Source: 0x0103
    FCS: 0x7a5d (Correct)
    [Ack In: 505]
Data (42 bytes)
    Data: 9c00fd1c00001b0301210000e73810000000000000000000
    [Length: 42]

0000  61 88 6a 32 33 03 02 03 01 9c 00 fd 1c 00 00 1b   a.j23...........
0010  03 01 21 00 00 e7 38 10 00 00 00 00 00 00 00 00   ..!...8.........
0020  00 bc 02 00 00 bc 02 00 00 00 00 01 00 00 00 13   ................
0030  7f c5 f3 5d 7a                                    ...]z

No.     Time           Source                Destination           Protocol Length Info
    505 20.499291                                                  IEEE 802.15.4 5      Ack

Frame 505: 5 bytes on wire (40 bits), 5 bytes captured (40 bits)
    Encapsulation type: IEEE 802.15.4 Wireless PAN (104)
    Arrival Time: Mar  3, 2023 16:19:16.550754000 CST
    [Time shift for this packet: 0.000000000 seconds]
    Epoch Time: 1677881956.550754000 seconds
    [Time delta from previous captured frame: 0.000508000 seconds]
    [Time delta from previous displayed frame: 0.000508000 seconds]
    [Time since reference or first frame: 20.499291000 seconds]
    Frame Number: 505
    Frame Length: 5 bytes (40 bits)
    Capture Length: 5 bytes (40 bits)
    [Frame is marked: False]
    [Frame is ignored: False]
    [Protocols in frame: wpan]
IEEE 802.15.4 Ack, Sequence Number: 106
    Frame Control Field: 0x0002, Frame Type: Ack, Destination Addressing Mode: None, Frame Version: IEEE Std 802.15.4-2003, Source Addressing Mode: None
        .... .... .... .010 = Frame Type: Ack (0x2)
        .... .... .... 0... = Security Enabled: False
        .... .... ...0 .... = Frame Pending: False
        .... .... ..0. .... = Acknowledge Request: False
        .... .... .0.. .... = PAN ID Compression: False
        .... .... 0... .... = Reserved: False
        .... ...0 .... .... = Sequence Number Suppression: False
        .... ..0. .... .... = Information Elements Present: False
        .... 00.. .... .... = Destination Addressing Mode: None (0x0)
        ..00 .... .... .... = Frame Version: IEEE Std 802.15.4-2003 (0)
        00.. .... .... .... = Source Addressing Mode: None (0x0)
    Sequence Number: 106
    FCS: 0x79e4 (Correct)
    [Ack To: 504]
    [Ack Time: 0.508 ms]

0000  02 00 6a e4 79                                    ..j.y

No.     Time           Source                Destination           Protocol Length Info
    506 20.622664      0x0103                0x0203                IEEE 802.15.4 53     Data, Dst: 0x0203, Src: 0x0103

Frame 506: 53 bytes on wire (424 bits), 53 bytes captured (424 bits)
    Encapsulation type: IEEE 802.15.4 Wireless PAN (104)
    Arrival Time: Mar  3, 2023 16:19:16.674127000 CST
    [Time shift for this packet: 0.000000000 seconds]
    Epoch Time: 1677881956.674127000 seconds
    [Time delta from previous captured frame: 0.123373000 seconds]
    [Time delta from previous displayed frame: 0.123373000 seconds]
    [Time since reference or first frame: 20.622664000 seconds]
    Frame Number: 506
    Frame Length: 53 bytes (424 bits)
    Capture Length: 53 bytes (424 bits)
    [Frame is marked: False]
    [Frame is ignored: False]
    [Protocols in frame: wpan:data]
IEEE 802.15.4 Data, Dst: 0x0203, Src: 0x0103
    Frame Control Field: 0x8861, Frame Type: Data, Acknowledge Request, PAN ID Compression, Destination Addressing Mode: Short/16-bit, Frame Version: IEEE Std 802.15.4-2003, Source Addressing Mode: Short/16-bit
        .... .... .... .001 = Frame Type: Data (0x1)
        .... .... .... 0... = Security Enabled: False
        .... .... ...0 .... = Frame Pending: False
        .... .... ..1. .... = Acknowledge Request: True
        .... .... .1.. .... = PAN ID Compression: True
        .... .... 0... .... = Reserved: False
        .... ...0 .... .... = Sequence Number Suppression: False
        .... ..0. .... .... = Information Elements Present: False
        .... 10.. .... .... = Destination Addressing Mode: Short/16-bit (0x2)
        ..00 .... .... .... = Frame Version: IEEE Std 802.15.4-2003 (0)
        10.. .... .... .... = Source Addressing Mode: Short/16-bit (0x2)
    Sequence Number: 107
    Destination PAN: 0x3332
    Destination: 0x0203
    Source: 0x0103
    FCS: 0xfe40 (Correct)
    [No ack found]
        [Expert Info (Note/Sequence): No ack found to ack request in frame 506]
            [No ack found to ack request in frame 506]
            [Severity level: Note]
            [Group: Sequence]
Data (42 bytes)
    Data: 9d00fd1c00001c0301210000633910000000000000000000
    [Length: 42]

0000  61 88 6b 32 33 03 02 03 01 9d 00 fd 1c 00 00 1c   a.k23...........
0010  03 01 21 00 00 63 39 10 00 00 00 00 00 00 00 00   ..!..c9.........
0020  00 90 01 00 00 96 01 00 00 00 00 00 00 00 00 12   ................
0030  7f 5e 1f 40 fe                                    .^.@.

No.     Time           Source                Destination           Protocol Length Info
    507 20.751261                                                  IEEE 802.15.4 17     Data, Bad FCS

Frame 507: 17 bytes on wire (136 bits), 17 bytes captured (136 bits)
    Encapsulation type: IEEE 802.15.4 Wireless PAN (104)
    Arrival Time: Mar  3, 2023 16:19:16.802724000 CST
    [Time shift for this packet: 0.000000000 seconds]
    Epoch Time: 1677881956.802724000 seconds
    [Time delta from previous captured frame: 0.128597000 seconds]
    [Time delta from previous displayed frame: 0.128597000 seconds]
    [Time since reference or first frame: 20.751261000 seconds]
    Frame Number: 507
    Frame Length: 17 bytes (136 bits)
    Capture Length: 17 bytes (136 bits)
    [Frame is marked: False]
    [Frame is ignored: False]
    [Protocols in frame: wpan:data]
IEEE 802.15.4 Data, Bad FCS
    Frame Control Field: 0x1111, Frame Type: Data, Frame Pending, Sequence Number Suppression, Destination Addressing Mode: None, Frame Version: IEEE Std 802.15.4-2006, Source Addressing Mode: None
        .... .... .... .001 = Frame Type: Data (0x1)
        .... .... .... 0... = Security Enabled: False
        .... .... ...1 .... = Frame Pending: True
        .... .... ..0. .... = Acknowledge Request: False
        .... .... .0.. .... = PAN ID Compression: False
        .... .... 0... .... = Reserved: False
        .... ...1 .... .... = Sequence Number Suppression: True
        .... ..0. .... .... = Information Elements Present: False
        .... 00.. .... .... = Destination Addressing Mode: None (0x0)
        ..01 .... .... .... = Frame Version: IEEE Std 802.15.4-2006 (1)
        00.. .... .... .... = Source Addressing Mode: None (0x0)
    [Expert Info (Warning/Malformed): Sequence Number Suppression invalid for 802.15.4-2003 and 2006]
        [Sequence Number Suppression invalid for 802.15.4-2003 and 2006]
        [Severity level: Warning]
        [Group: Malformed]
    FCS: 0x8e11 (Incorrect, expected FCS=0x2bb8)
    [Expert Info (Warning/Checksum): Bad FCS]
        [Bad FCS]
        [Severity level: Warning]
        [Group: Checksum]
Data (13 bytes)
    Data: 11b05e72997d434414131412af
    [Length: 13]

0000  11 11 11 b0 5e 72 99 7d 43 44 14 13 14 12 af 11   ....^r.}CD......
0010  8e                                                .

No.     Time           Source                Destination           Protocol Length Info
    508 20.753935                                                  IEEE 802.15.4 5      Ack

Frame 508: 5 bytes on wire (40 bits), 5 bytes captured (40 bits)
    Encapsulation type: IEEE 802.15.4 Wireless PAN (104)
    Arrival Time: Mar  3, 2023 16:19:16.805398000 CST
    [Time shift for this packet: 0.000000000 seconds]
    Epoch Time: 1677881956.805398000 seconds
    [Time delta from previous captured frame: 0.002674000 seconds]
    [Time delta from previous displayed frame: 0.002674000 seconds]
    [Time since reference or first frame: 20.753935000 seconds]
    Frame Number: 508
    Frame Length: 5 bytes (40 bits)
    Capture Length: 5 bytes (40 bits)
    [Frame is marked: False]
    [Frame is ignored: False]
    [Protocols in frame: wpan]
IEEE 802.15.4 Ack, Sequence Number: 108
    Frame Control Field: 0x0002, Frame Type: Ack, Destination Addressing Mode: None, Frame Version: IEEE Std 802.15.4-2003, Source Addressing Mode: None
        .... .... .... .010 = Frame Type: Ack (0x2)
        .... .... .... 0... = Security Enabled: False
        .... .... ...0 .... = Frame Pending: False
        .... .... ..0. .... = Acknowledge Request: False
        .... .... .0.. .... = PAN ID Compression: False
        .... .... 0... .... = Reserved: False
        .... ...0 .... .... = Sequence Number Suppression: False
        .... ..0. .... .... = Information Elements Present: False
        .... 00.. .... .... = Destination Addressing Mode: None (0x0)
        ..00 .... .... .... = Frame Version: IEEE Std 802.15.4-2003 (0)
        00.. .... .... .... = Source Addressing Mode: None (0x0)
    Sequence Number: 108
    FCS: 0x1cd2 (Correct)
    [No ack request found]
        [Expert Info (Note/Sequence): No ack request found to ack in frame 508]
            [No ack request found to ack in frame 508]
            [Severity level: Note]
            [Group: Sequence]

0000  02 00 6c d2 1c                                    ..l..

No.     Time           Source                Destination           Protocol Length Info
    509 20.757387      0x0103                0x0203                IEEE 802.15.4 29     Data, Dst: 0x0203, Src: 0x0103

Frame 509: 29 bytes on wire (232 bits), 29 bytes captured (232 bits)
    Encapsulation type: IEEE 802.15.4 Wireless PAN (104)
    Arrival Time: Mar  3, 2023 16:19:16.808850000 CST
    [Time shift for this packet: 0.000000000 seconds]
    Epoch Time: 1677881956.808850000 seconds
    [Time delta from previous captured frame: 0.003452000 seconds]
    [Time delta from previous displayed frame: 0.003452000 seconds]
    [Time since reference or first frame: 20.757387000 seconds]
    Frame Number: 509
    Frame Length: 29 bytes (232 bits)
    Capture Length: 29 bytes (232 bits)
    [Frame is marked: False]
    [Frame is ignored: False]
    [Protocols in frame: wpan:data]
IEEE 802.15.4 Data, Dst: 0x0203, Src: 0x0103
    Frame Control Field: 0x8861, Frame Type: Data, Acknowledge Request, PAN ID Compression, Destination Addressing Mode: Short/16-bit, Frame Version: IEEE Std 802.15.4-2003, Source Addressing Mode: Short/16-bit
        .... .... .... .001 = Frame Type: Data (0x1)
        .... .... .... 0... = Security Enabled: False
        .... .... ...0 .... = Frame Pending: False
        .... .... ..1. .... = Acknowledge Request: True
        .... .... .1.. .... = PAN ID Compression: True
        .... .... 0... .... = Reserved: False
        .... ...0 .... .... = Sequence Number Suppression: False
        .... ..0. .... .... = Information Elements Present: False
        .... 10.. .... .... = Destination Addressing Mode: Short/16-bit (0x2)
        ..00 .... .... .... = Frame Version: IEEE Std 802.15.4-2003 (0)
        10.. .... .... .... = Source Addressing Mode: Short/16-bit (0x2)
    Sequence Number: 109
    Destination PAN: 0x3332
    Destination: 0x0203
    Source: 0x0103
    FCS: 0xcd45 (Correct)
    [Ack In: 510]
Data (18 bytes)
    Data: 9f000000b8010000000000000000117fa863
    [Length: 18]

0000  61 88 6d 32 33 03 02 03 01 9f 00 00 00 b8 01 00   a.m23...........
0010  00 00 00 00 00 00 00 11 7f a8 63 45 cd            ..........cE.

No.     Time           Source                Destination           Protocol Length Info
    510 20.757938                                                  IEEE 802.15.4 5      Ack

Frame 510: 5 bytes on wire (40 bits), 5 bytes captured (40 bits)
    Encapsulation type: IEEE 802.15.4 Wireless PAN (104)
    Arrival Time: Mar  3, 2023 16:19:16.809401000 CST
    [Time shift for this packet: 0.000000000 seconds]
    Epoch Time: 1677881956.809401000 seconds
    [Time delta from previous captured frame: 0.000551000 seconds]
    [Time delta from previous displayed frame: 0.000551000 seconds]
    [Time since reference or first frame: 20.757938000 seconds]
    Frame Number: 510
    Frame Length: 5 bytes (40 bits)
    Capture Length: 5 bytes (40 bits)
    [Frame is marked: False]
    [Frame is ignored: False]
    [Protocols in frame: wpan]
IEEE 802.15.4 Ack, Sequence Number: 109
    Frame Control Field: 0x0002, Frame Type: Ack, Destination Addressing Mode: None, Frame Version: IEEE Std 802.15.4-2003, Source Addressing Mode: None
        .... .... .... .010 = Frame Type: Ack (0x2)
        .... .... .... 0... = Security Enabled: False
        .... .... ...0 .... = Frame Pending: False
        .... .... ..0. .... = Acknowledge Request: False
        .... .... .0.. .... = PAN ID Compression: False
        .... .... 0... .... = Reserved: False
        .... ...0 .... .... = Sequence Number Suppression: False
        .... ..0. .... .... = Information Elements Present: False
        .... 00.. .... .... = Destination Addressing Mode: None (0x0)
        ..00 .... .... .... = Frame Version: IEEE Std 802.15.4-2003 (0)
        00.. .... .... .... = Source Addressing Mode: None (0x0)
    Sequence Number: 109
    FCS: 0x0d5b (Correct)
    [Ack To: 509]
    [Ack Time: 0.551 ms]

0000  02 00 6d 5b 0d                                    ..m[.

No.     Time           Source                Destination           Protocol Length Info
    511 20.822268      0x0203                0x0103                IEEE 802.15.4 34     Data, Dst: 0x0103, Src: 0x0203

Frame 511: 34 bytes on wire (272 bits), 34 bytes captured (272 bits)
    Encapsulation type: IEEE 802.15.4 Wireless PAN (104)
    Arrival Time: Mar  3, 2023 16:19:16.873731000 CST
    [Time shift for this packet: 0.000000000 seconds]
    Epoch Time: 1677881956.873731000 seconds
    [Time delta from previous captured frame: 0.064330000 seconds]
    [Time delta from previous displayed frame: 0.064330000 seconds]
    [Time since reference or first frame: 20.822268000 seconds]
    Frame Number: 511
    Frame Length: 34 bytes (272 bits)
    Capture Length: 34 bytes (272 bits)
    [Frame is marked: False]
    [Frame is ignored: False]
    [Protocols in frame: wpan:data]
IEEE 802.15.4 Data, Dst: 0x0103, Src: 0x0203
    Frame Control Field: 0x8861, Frame Type: Data, Acknowledge Request, PAN ID Compression, Destination Addressing Mode: Short/16-bit, Frame Version: IEEE Std 802.15.4-2003, Source Addressing Mode: Short/16-bit
        .... .... .... .001 = Frame Type: Data (0x1)
        .... .... .... 0... = Security Enabled: False
        .... .... ...0 .... = Frame Pending: False
        .... .... ..1. .... = Acknowledge Request: True
        .... .... .1.. .... = PAN ID Compression: True
        .... .... 0... .... = Reserved: False
        .... ...0 .... .... = Sequence Number Suppression: False
        .... ..0. .... .... = Information Elements Present: False
        .... 10.. .... .... = Destination Addressing Mode: Short/16-bit (0x2)
        ..00 .... .... .... = Frame Version: IEEE Std 802.15.4-2003 (0)
        10.. .... .... .... = Source Addressing Mode: Short/16-bit (0x2)
    Sequence Number: 229
    Destination PAN: 0x3332
    Destination: 0x0103
    Source: 0x0203
    FCS: 0x86ba (Correct)
    [Ack In: 512]
Data (23 bytes)
    Data: 1900fd09000015ffbe000000000000000608c004031e74
    [Length: 23]

0000  61 88 e5 32 33 03 01 03 02 19 00 fd 09 00 00 15   a..23...........
0010  ff be 00 00 00 00 00 00 00 06 08 c0 04 03 1e 74   ...............t
0020  ba 86                                             ..

No.     Time           Source                Destination           Protocol Length Info
    512 20.822732                                                  IEEE 802.15.4 5      Ack

Frame 512: 5 bytes on wire (40 bits), 5 bytes captured (40 bits)
    Encapsulation type: IEEE 802.15.4 Wireless PAN (104)
    Arrival Time: Mar  3, 2023 16:19:16.874195000 CST
    [Time shift for this packet: 0.000000000 seconds]
    Epoch Time: 1677881956.874195000 seconds
    [Time delta from previous captured frame: 0.000464000 seconds]
    [Time delta from previous displayed frame: 0.000464000 seconds]
    [Time since reference or first frame: 20.822732000 seconds]
    Frame Number: 512
    Frame Length: 5 bytes (40 bits)
    Capture Length: 5 bytes (40 bits)
    [Frame is marked: False]
    [Frame is ignored: False]
    [Protocols in frame: wpan]
IEEE 802.15.4 Ack, Sequence Number: 229
    Frame Control Field: 0x0002, Frame Type: Ack, Destination Addressing Mode: None, Frame Version: IEEE Std 802.15.4-2003, Source Addressing Mode: None
        .... .... .... .010 = Frame Type: Ack (0x2)
        .... .... .... 0... = Security Enabled: False
        .... .... ...0 .... = Frame Pending: False
        .... .... ..0. .... = Acknowledge Request: False
        .... .... .0.. .... = PAN ID Compression: False
        .... .... 0... .... = Reserved: False
        .... ...0 .... .... = Sequence Number Suppression: False
        .... ..0. .... .... = Information Elements Present: False
        .... 00.. .... .... = Destination Addressing Mode: None (0x0)
        ..00 .... .... .... = Frame Version: IEEE Std 802.15.4-2003 (0)
        00.. .... .... .... = Source Addressing Mode: None (0x0)
    Sequence Number: 229
    FCS: 0x051b (Correct)
    [Ack To: 511]
    [Ack Time: 0.464 ms]

0000  02 00 e5 1b 05                                    .....

No.     Time           Source                Destination           Protocol Length Info
    513 20.872480      0x0103                0x0203                IEEE 802.15.4 53     Data, Dst: 0x0203, Src: 0x0103

Frame 513: 53 bytes on wire (424 bits), 53 bytes captured (424 bits)
    Encapsulation type: IEEE 802.15.4 Wireless PAN (104)
    Arrival Time: Mar  3, 2023 16:19:16.923943000 CST
    [Time shift for this packet: 0.000000000 seconds]
    Epoch Time: 1677881956.923943000 seconds
    [Time delta from previous captured frame: 0.049748000 seconds]
    [Time delta from previous displayed frame: 0.049748000 seconds]
    [Time since reference or first frame: 20.872480000 seconds]
    Frame Number: 513
    Frame Length: 53 bytes (424 bits)
    Capture Length: 53 bytes (424 bits)
    [Frame is marked: False]
    [Frame is ignored: False]
    [Protocols in frame: wpan:data]
IEEE 802.15.4 Data, Dst: 0x0203, Src: 0x0103
    Frame Control Field: 0x8861, Frame Type: Data, Acknowledge Request, PAN ID Compression, Destination Addressing Mode: Short/16-bit, Frame Version: IEEE Std 802.15.4-2003, Source Addressing Mode: Short/16-bit
        .... .... .... .001 = Frame Type: Data (0x1)
        .... .... .... 0... = Security Enabled: False
        .... .... ...0 .... = Frame Pending: False
        .... .... ..1. .... = Acknowledge Request: True
        .... .... .1.. .... = PAN ID Compression: True
        .... .... 0... .... = Reserved: False
        .... ...0 .... .... = Sequence Number Suppression: False
        .... ..0. .... .... = Information Elements Present: False
        .... 10.. .... .... = Destination Addressing Mode: Short/16-bit (0x2)
        ..00 .... .... .... = Frame Version: IEEE Std 802.15.4-2003 (0)
        10.. .... .... .... = Source Addressing Mode: Short/16-bit (0x2)
    Sequence Number: 110
    Destination PAN: 0x3332
    Destination: 0x0203
    Source: 0x0103
    FCS: 0x7d54 (Correct)
    [Ack In: 514]
Data (42 bytes)
    Data: a000fd1c00001f03012100005d3a10000000000000000000
    [Length: 42]

0000  61 88 6e 32 33 03 02 03 01 a0 00 fd 1c 00 00 1f   a.n23...........
0010  03 01 21 00 00 5d 3a 10 00 00 00 00 00 00 00 00   ..!..]:.........
0020  00 a4 01 00 00 aa 01 00 00 00 00 00 00 00 00 fd   ................
0030  7e 70 46 54 7d                                    ~pFT}

No.     Time           Source                Destination           Protocol Length Info
    514 20.873007                                                  IEEE 802.15.4 5      Ack

Frame 514: 5 bytes on wire (40 bits), 5 bytes captured (40 bits)
    Encapsulation type: IEEE 802.15.4 Wireless PAN (104)
    Arrival Time: Mar  3, 2023 16:19:16.924470000 CST
    [Time shift for this packet: 0.000000000 seconds]
    Epoch Time: 1677881956.924470000 seconds
    [Time delta from previous captured frame: 0.000527000 seconds]
    [Time delta from previous displayed frame: 0.000527000 seconds]
    [Time since reference or first frame: 20.873007000 seconds]
    Frame Number: 514
    Frame Length: 5 bytes (40 bits)
    Capture Length: 5 bytes (40 bits)
    [Frame is marked: False]
    [Frame is ignored: False]
    [Protocols in frame: wpan]
IEEE 802.15.4 Ack, Sequence Number: 110
    Frame Control Field: 0x0002, Frame Type: Ack, Destination Addressing Mode: None, Frame Version: IEEE Std 802.15.4-2003, Source Addressing Mode: None
        .... .... .... .010 = Frame Type: Ack (0x2)
        .... .... .... 0... = Security Enabled: False
        .... .... ...0 .... = Frame Pending: False
        .... .... ..0. .... = Acknowledge Request: False
        .... .... .0.. .... = PAN ID Compression: False
        .... .... 0... .... = Reserved: False
        .... ...0 .... .... = Sequence Number Suppression: False
        .... ..0. .... .... = Information Elements Present: False
        .... 00.. .... .... = Destination Addressing Mode: None (0x0)
        ..00 .... .... .... = Frame Version: IEEE Std 802.15.4-2003 (0)
        00.. .... .... .... = Source Addressing Mode: None (0x0)
    Sequence Number: 110
    FCS: 0x3fc0 (Correct)
    [Ack To: 513]
    [Ack Time: 0.527 ms]

0000  02 00 6e c0 3f                                    ..n.?

No.     Time           Source                Destination           Protocol Length Info
    515 20.998457      0x0103                0x0203                IEEE 802.15.4 53     Data, Dst: 0x0203, Src: 0x0103

Frame 515: 53 bytes on wire (424 bits), 53 bytes captured (424 bits)
    Encapsulation type: IEEE 802.15.4 Wireless PAN (104)
    Arrival Time: Mar  3, 2023 16:19:17.049920000 CST
    [Time shift for this packet: 0.000000000 seconds]
    Epoch Time: 1677881957.049920000 seconds
    [Time delta from previous captured frame: 0.125450000 seconds]
    [Time delta from previous displayed frame: 0.125450000 seconds]
    [Time since reference or first frame: 20.998457000 seconds]
    Frame Number: 515
    Frame Length: 53 bytes (424 bits)
    Capture Length: 53 bytes (424 bits)
    [Frame is marked: False]
    [Frame is ignored: False]
    [Protocols in frame: wpan:data]
IEEE 802.15.4 Data, Dst: 0x0203, Src: 0x0103
    Frame Control Field: 0x8861, Frame Type: Data, Acknowledge Request, PAN ID Compression, Destination Addressing Mode: Short/16-bit, Frame Version: IEEE Std 802.15.4-2003, Source Addressing Mode: Short/16-bit
        .... .... .... .001 = Frame Type: Data (0x1)
        .... .... .... 0... = Security Enabled: False
        .... .... ...0 .... = Frame Pending: False
        .... .... ..1. .... = Acknowledge Request: True
        .... .... .1.. .... = PAN ID Compression: True
        .... .... 0... .... = Reserved: False
        .... ...0 .... .... = Sequence Number Suppression: False
        .... ..0. .... .... = Information Elements Present: False
        .... 10.. .... .... = Destination Addressing Mode: Short/16-bit (0x2)
        ..00 .... .... .... = Frame Version: IEEE Std 802.15.4-2003 (0)
        10.. .... .... .... = Source Addressing Mode: Short/16-bit (0x2)
    Sequence Number: 111
    Destination PAN: 0x3332
    Destination: 0x0203
    Source: 0x0103
    FCS: 0x1356 (Correct)
    [Ack In: 516]
Data (42 bytes)
    Data: a100fd1c0000200301210000db3a10000000000000000000
    [Length: 42]

0000  61 88 6f 32 33 03 02 03 01 a1 00 fd 1c 00 00 20   a.o23.......... 
0010  03 01 21 00 00 db 3a 10 00 00 00 00 00 00 00 00   ..!...:.........
0020  00 a4 01 00 00 a5 01 00 00 00 00 00 00 00 00 fa   ................
0030  7e 13 a8 56 13                                    ~..V.

No.     Time           Source                Destination           Protocol Length Info
    516 20.998958                                                  IEEE 802.15.4 5      Ack

Frame 516: 5 bytes on wire (40 bits), 5 bytes captured (40 bits)
    Encapsulation type: IEEE 802.15.4 Wireless PAN (104)
    Arrival Time: Mar  3, 2023 16:19:17.050421000 CST
    [Time shift for this packet: 0.000000000 seconds]
    Epoch Time: 1677881957.050421000 seconds
    [Time delta from previous captured frame: 0.000501000 seconds]
    [Time delta from previous displayed frame: 0.000501000 seconds]
    [Time since reference or first frame: 20.998958000 seconds]
    Frame Number: 516
    Frame Length: 5 bytes (40 bits)
    Capture Length: 5 bytes (40 bits)
    [Frame is marked: False]
    [Frame is ignored: False]
    [Protocols in frame: wpan]
IEEE 802.15.4 Ack, Sequence Number: 111
    Frame Control Field: 0x0002, Frame Type: Ack, Destination Addressing Mode: None, Frame Version: IEEE Std 802.15.4-2003, Source Addressing Mode: None
        .... .... .... .010 = Frame Type: Ack (0x2)
        .... .... .... 0... = Security Enabled: False
        .... .... ...0 .... = Frame Pending: False
        .... .... ..0. .... = Acknowledge Request: False
        .... .... .0.. .... = PAN ID Compression: False
        .... .... 0... .... = Reserved: False
        .... ...0 .... .... = Sequence Number Suppression: False
        .... ..0. .... .... = Information Elements Present: False
        .... 00.. .... .... = Destination Addressing Mode: None (0x0)
        ..00 .... .... .... = Frame Version: IEEE Std 802.15.4-2003 (0)
        00.. .... .... .... = Source Addressing Mode: None (0x0)
    Sequence Number: 111
    FCS: 0x2e49 (Correct)
    [Ack To: 515]
    [Ack Time: 0.501 ms]

0000  02 00 6f 49 2e                                    ..oI.

No.     Time           Source                Destination           Protocol Length Info
    517 21.122775      0x0103                0x0203                IEEE 802.15.4 53     Data, Dst: 0x0203, Src: 0x0103

Frame 517: 53 bytes on wire (424 bits), 53 bytes captured (424 bits)
    Encapsulation type: IEEE 802.15.4 Wireless PAN (104)
    Arrival Time: Mar  3, 2023 16:19:17.174238000 CST
    [Time shift for this packet: 0.000000000 seconds]
    Epoch Time: 1677881957.174238000 seconds
    [Time delta from previous captured frame: 0.123817000 seconds]
    [Time delta from previous displayed frame: 0.123817000 seconds]
    [Time since reference or first frame: 21.122775000 seconds]
    Frame Number: 517
    Frame Length: 53 bytes (424 bits)
    Capture Length: 53 bytes (424 bits)
    [Frame is marked: False]
    [Frame is ignored: False]
    [Protocols in frame: wpan:data]
IEEE 802.15.4 Data, Dst: 0x0203, Src: 0x0103
    Frame Control Field: 0x8861, Frame Type: Data, Acknowledge Request, PAN ID Compression, Destination Addressing Mode: Short/16-bit, Frame Version: IEEE Std 802.15.4-2003, Source Addressing Mode: Short/16-bit
        .... .... .... .001 = Frame Type: Data (0x1)
        .... .... .... 0... = Security Enabled: False
        .... .... ...0 .... = Frame Pending: False
        .... .... ..1. .... = Acknowledge Request: True
        .... .... .1.. .... = PAN ID Compression: True
        .... .... 0... .... = Reserved: False
        .... ...0 .... .... = Sequence Number Suppression: False
        .... ..0. .... .... = Information Elements Present: False
        .... 10.. .... .... = Destination Addressing Mode: Short/16-bit (0x2)
        ..00 .... .... .... = Frame Version: IEEE Std 802.15.4-2003 (0)
        10.. .... .... .... = Source Addressing Mode: Short/16-bit (0x2)
    Sequence Number: 112
    Destination PAN: 0x3332
    Destination: 0x0203
    Source: 0x0103
    FCS: 0x82a0 (Correct)
    [Ack In: 518]
Data (42 bytes)
    Data: a200fd1c0000210301210000573b10000000000000000000
    [Length: 42]

0000  61 88 70 32 33 03 02 03 01 a2 00 fd 1c 00 00 21   a.p23..........!
0010  03 01 21 00 00 57 3b 10 00 00 00 00 00 00 00 00   ..!..W;.........
0020  00 36 01 00 00 3f 01 00 00 00 00 00 00 00 00 15   .6...?..........
0030  7f 3a 8e a0 82                                    .:...

No.     Time           Source                Destination           Protocol Length Info
    518 21.123294                                                  IEEE 802.15.4 5      Ack

Frame 518: 5 bytes on wire (40 bits), 5 bytes captured (40 bits)
    Encapsulation type: IEEE 802.15.4 Wireless PAN (104)
    Arrival Time: Mar  3, 2023 16:19:17.174757000 CST
    [Time shift for this packet: 0.000000000 seconds]
    Epoch Time: 1677881957.174757000 seconds
    [Time delta from previous captured frame: 0.000519000 seconds]
    [Time delta from previous displayed frame: 0.000519000 seconds]
    [Time since reference or first frame: 21.123294000 seconds]
    Frame Number: 518
    Frame Length: 5 bytes (40 bits)
    Capture Length: 5 bytes (40 bits)
    [Frame is marked: False]
    [Frame is ignored: False]
    [Protocols in frame: wpan]
IEEE 802.15.4 Ack, Sequence Number: 112
    Frame Control Field: 0x0002, Frame Type: Ack, Destination Addressing Mode: None, Frame Version: IEEE Std 802.15.4-2003, Source Addressing Mode: None
        .... .... .... .010 = Frame Type: Ack (0x2)
        .... .... .... 0... = Security Enabled: False
        .... .... ...0 .... = Frame Pending: False
        .... .... ..0. .... = Acknowledge Request: False
        .... .... .0.. .... = PAN ID Compression: False
        .... .... 0... .... = Reserved: False
        .... ...0 .... .... = Sequence Number Suppression: False
        .... ..0. .... .... = Information Elements Present: False
        .... 00.. .... .... = Destination Addressing Mode: None (0x0)
        ..00 .... .... .... = Frame Version: IEEE Std 802.15.4-2003 (0)
        00.. .... .... .... = Source Addressing Mode: None (0x0)
    Sequence Number: 112
    FCS: 0xc63f (Correct)
    [Ack To: 517]
    [Ack Time: 0.519 ms]

0000  02 00 70 3f c6                                    ..p?.

No.     Time           Source                Destination           Protocol Length Info
    519 21.253640      0x0103                0x0203                IEEE 802.15.4 77     Data, Dst: 0x0203, Src: 0x0103

Frame 519: 77 bytes on wire (616 bits), 77 bytes captured (616 bits)
    Encapsulation type: IEEE 802.15.4 Wireless PAN (104)
    Arrival Time: Mar  3, 2023 16:19:17.305103000 CST
    [Time shift for this packet: 0.000000000 seconds]
    Epoch Time: 1677881957.305103000 seconds
    [Time delta from previous captured frame: 0.130346000 seconds]
    [Time delta from previous displayed frame: 0.130346000 seconds]
    [Time since reference or first frame: 21.253640000 seconds]
    Frame Number: 519
    Frame Length: 77 bytes (616 bits)
    Capture Length: 77 bytes (616 bits)
    [Frame is marked: False]
    [Frame is ignored: False]
    [Protocols in frame: wpan:data]
IEEE 802.15.4 Data, Dst: 0x0203, Src: 0x0103
    Frame Control Field: 0x8861, Frame Type: Data, Acknowledge Request, PAN ID Compression, Destination Addressing Mode: Short/16-bit, Frame Version: IEEE Std 802.15.4-2003, Source Addressing Mode: Short/16-bit
        .... .... .... .001 = Frame Type: Data (0x1)
        .... .... .... 0... = Security Enabled: False
        .... .... ...0 .... = Frame Pending: False
        .... .... ..1. .... = Acknowledge Request: True
        .... .... .1.. .... = PAN ID Compression: True
        .... .... 0... .... = Reserved: False
        .... ...0 .... .... = Sequence Number Suppression: False
        .... ..0. .... .... = Information Elements Present: False
        .... 10.. .... .... = Destination Addressing Mode: Short/16-bit (0x2)
        ..00 .... .... .... = Frame Version: IEEE Std 802.15.4-2003 (0)
        10.. .... .... .... = Source Addressing Mode: Short/16-bit (0x2)
    Sequence Number: 113
    Destination PAN: 0x3332
    Destination: 0x0203
    Source: 0x0103
    FCS: 0x21ec (Correct)
    [Ack In: 520]
Data (66 bytes)
    Data: a300fd1f00002203010100000ffc60130f1c60100f9c5001
    [Length: 66]

0000  61 88 71 32 33 03 02 03 01 a3 00 fd 1f 00 00 22   a.q23.........."
0010  03 01 01 00 00 0f fc 60 13 0f 1c 60 10 0f 9c 50   .......`...`...P
0020  01 e7 01 00 00 ff ff 00 00 00 00 00 00 00 00 00   ................
0030  00 00 00 ff 24 7c fd 16 00 00 23 03 01 c1 00 00   ....$|....#.....
0040  00 00 00 00 2b ce 1a 3b f6 2c 12 ec 21            ....+..;.,..!

No.     Time           Source                Destination           Protocol Length Info
    520 21.254152                                                  IEEE 802.15.4 5      Ack

Frame 520: 5 bytes on wire (40 bits), 5 bytes captured (40 bits)
    Encapsulation type: IEEE 802.15.4 Wireless PAN (104)
    Arrival Time: Mar  3, 2023 16:19:17.305615000 CST
    [Time shift for this packet: 0.000000000 seconds]
    Epoch Time: 1677881957.305615000 seconds
    [Time delta from previous captured frame: 0.000512000 seconds]
    [Time delta from previous displayed frame: 0.000512000 seconds]
    [Time since reference or first frame: 21.254152000 seconds]
    Frame Number: 520
    Frame Length: 5 bytes (40 bits)
    Capture Length: 5 bytes (40 bits)
    [Frame is marked: False]
    [Frame is ignored: False]
    [Protocols in frame: wpan]
IEEE 802.15.4 Ack, Sequence Number: 113
    Frame Control Field: 0x0002, Frame Type: Ack, Destination Addressing Mode: None, Frame Version: IEEE Std 802.15.4-2003, Source Addressing Mode: None
        .... .... .... .010 = Frame Type: Ack (0x2)
        .... .... .... 0... = Security Enabled: False
        .... .... ...0 .... = Frame Pending: False
        .... .... ..0. .... = Acknowledge Request: False
        .... .... .0.. .... = PAN ID Compression: False
        .... .... 0... .... = Reserved: False
        .... ...0 .... .... = Sequence Number Suppression: False
        .... ..0. .... .... = Information Elements Present: False
        .... 00.. .... .... = Destination Addressing Mode: None (0x0)
        ..00 .... .... .... = Frame Version: IEEE Std 802.15.4-2003 (0)
        00.. .... .... .... = Source Addressing Mode: None (0x0)
    Sequence Number: 113
    FCS: 0xd7b6 (Correct)
    [Ack To: 519]
    [Ack Time: 0.512 ms]

0000  02 00 71 b6 d7                                    ..q..

No.     Time           Source                Destination           Protocol Length Info
    521 21.272706      0x0103                0x0203                IEEE 802.15.4 106    Data, Dst: 0x0203, Src: 0x0103

Frame 521: 106 bytes on wire (848 bits), 106 bytes captured (848 bits)
    Encapsulation type: IEEE 802.15.4 Wireless PAN (104)
    Arrival Time: Mar  3, 2023 16:19:17.324169000 CST
    [Time shift for this packet: 0.000000000 seconds]
    Epoch Time: 1677881957.324169000 seconds
    [Time delta from previous captured frame: 0.018554000 seconds]
    [Time delta from previous displayed frame: 0.018554000 seconds]
    [Time since reference or first frame: 21.272706000 seconds]
    Frame Number: 521
    Frame Length: 106 bytes (848 bits)
    Capture Length: 106 bytes (848 bits)
    [Frame is marked: False]
    [Frame is ignored: False]
    [Protocols in frame: wpan:data]
IEEE 802.15.4 Data, Dst: 0x0203, Src: 0x0103
    Frame Control Field: 0x8861, Frame Type: Data, Acknowledge Request, PAN ID Compression, Destination Addressing Mode: Short/16-bit, Frame Version: IEEE Std 802.15.4-2003, Source Addressing Mode: Short/16-bit
        .... .... .... .001 = Frame Type: Data (0x1)
        .... .... .... 0... = Security Enabled: False
        .... .... ...0 .... = Frame Pending: False
        .... .... ..1. .... = Acknowledge Request: True
        .... .... .1.. .... = PAN ID Compression: True
        .... .... 0... .... = Reserved: False
        .... ...0 .... .... = Sequence Number Suppression: False
        .... ..0. .... .... = Information Elements Present: False
        .... 10.. .... .... = Destination Addressing Mode: Short/16-bit (0x2)
        ..00 .... .... .... = Frame Version: IEEE Std 802.15.4-2003 (0)
        10.. .... .... .... = Source Addressing Mode: Short/16-bit (0x2)
    Sequence Number: 114
    Destination PAN: 0x3332
    Destination: 0x0203
    Source: 0x0103
    FCS: 0x76dc (Correct)
    [Ack In: 522]
Data (95 bytes)
    Data: a4003ce1c7a83d00000000a5010b2cfd1c00002403011e00
    [Length: 95]

0000  61 88 72 32 33 03 02 03 01 a4 00 3c e1 c7 a8 3d   a.r23......<...=
0010  00 00 00 00 a5 01 0b 2c fd 1c 00 00 24 03 01 1e   .......,....$...
0020  00 00 d5 3b 10 00 79 2c 8c 3d b1 75 83 3b 6a cc   ...;..y,.=.u.;j.
0030  1b bf 1c 2d 05 bd 4e c1 1f 3c b0 78 1d bd f9 8f   ...-..N..<.x....
0040  fd 1c 00 00 25 03 01 21 00 00 d5 3b 10 00 00 00   ....%..!...;....
0050  00 00 00 00 00 00 c8 00 00 00 c8 00 00 00 00 00   ................
0060  00 00 00 00 02 7f 42 ea dc 76                     ......B..v

No.     Time           Source                Destination           Protocol Length Info
    522 21.273208                                                  IEEE 802.15.4 5      Ack

Frame 522: 5 bytes on wire (40 bits), 5 bytes captured (40 bits)
    Encapsulation type: IEEE 802.15.4 Wireless PAN (104)
    Arrival Time: Mar  3, 2023 16:19:17.324671000 CST
    [Time shift for this packet: 0.000000000 seconds]
    Epoch Time: 1677881957.324671000 seconds
    [Time delta from previous captured frame: 0.000502000 seconds]
    [Time delta from previous displayed frame: 0.000502000 seconds]
    [Time since reference or first frame: 21.273208000 seconds]
    Frame Number: 522
    Frame Length: 5 bytes (40 bits)
    Capture Length: 5 bytes (40 bits)
    [Frame is marked: False]
    [Frame is ignored: False]
    [Protocols in frame: wpan]
IEEE 802.15.4 Ack, Sequence Number: 114
    Frame Control Field: 0x0002, Frame Type: Ack, Destination Addressing Mode: None, Frame Version: IEEE Std 802.15.4-2003, Source Addressing Mode: None
        .... .... .... .010 = Frame Type: Ack (0x2)
        .... .... .... 0... = Security Enabled: False
        .... .... ...0 .... = Frame Pending: False
        .... .... ..0. .... = Acknowledge Request: False
        .... .... .0.. .... = PAN ID Compression: False
        .... .... 0... .... = Reserved: False
        .... ...0 .... .... = Sequence Number Suppression: False
        .... ..0. .... .... = Information Elements Present: False
        .... 00.. .... .... = Destination Addressing Mode: None (0x0)
        ..00 .... .... .... = Frame Version: IEEE Std 802.15.4-2003 (0)
        00.. .... .... .... = Source Addressing Mode: None (0x0)
    Sequence Number: 114
    FCS: 0xe52d (Correct)
    [Ack To: 521]
    [Ack Time: 0.502 ms]

0000  02 00 72 2d e5                                    ..r-.

No.     Time           Source                Destination           Protocol Length Info
    523 21.318608      0x0103                0x0203                IEEE 802.15.4 34     Data, Dst: 0x0203, Src: 0x0103

Frame 523: 34 bytes on wire (272 bits), 34 bytes captured (272 bits)
    Encapsulation type: IEEE 802.15.4 Wireless PAN (104)
    Arrival Time: Mar  3, 2023 16:19:17.370071000 CST
    [Time shift for this packet: 0.000000000 seconds]
    Epoch Time: 1677881957.370071000 seconds
    [Time delta from previous captured frame: 0.045400000 seconds]
    [Time delta from previous displayed frame: 0.045400000 seconds]
    [Time since reference or first frame: 21.318608000 seconds]
    Frame Number: 523
    Frame Length: 34 bytes (272 bits)
    Capture Length: 34 bytes (272 bits)
    [Frame is marked: False]
    [Frame is ignored: False]
    [Protocols in frame: wpan:data]
IEEE 802.15.4 Data, Dst: 0x0203, Src: 0x0103
    Frame Control Field: 0x8861, Frame Type: Data, Acknowledge Request, PAN ID Compression, Destination Addressing Mode: Short/16-bit, Frame Version: IEEE Std 802.15.4-2003, Source Addressing Mode: Short/16-bit
        .... .... .... .001 = Frame Type: Data (0x1)
        .... .... .... 0... = Security Enabled: False
        .... .... ...0 .... = Frame Pending: False
        .... .... ..1. .... = Acknowledge Request: True
        .... .... .1.. .... = PAN ID Compression: True
        .... .... 0... .... = Reserved: False
        .... ...0 .... .... = Sequence Number Suppression: False
        .... ..0. .... .... = Information Elements Present: False
        .... 10.. .... .... = Destination Addressing Mode: Short/16-bit (0x2)
        ..00 .... .... .... = Frame Version: IEEE Std 802.15.4-2003 (0)
        10.. .... .... .... = Source Addressing Mode: Short/16-bit (0x2)
    Sequence Number: 115
    Destination PAN: 0x3332
    Destination: 0x0203
    Source: 0x0103
    FCS: 0x3c8f (Correct)
    [Ack In: 524]
Data (23 bytes)
    Data: a500fd090000260301000000000000000203510303e475
    [Length: 23]

0000  61 88 73 32 33 03 02 03 01 a5 00 fd 09 00 00 26   a.s23..........&
0010  03 01 00 00 00 00 00 00 00 02 03 51 03 03 e4 75   ...........Q...u
0020  8f 3c                                             .<

No.     Time           Source                Destination           Protocol Length Info
    524 21.319128                                                  IEEE 802.15.4 5      Ack

Frame 524: 5 bytes on wire (40 bits), 5 bytes captured (40 bits)
    Encapsulation type: IEEE 802.15.4 Wireless PAN (104)
    Arrival Time: Mar  3, 2023 16:19:17.370591000 CST
    [Time shift for this packet: 0.000000000 seconds]
    Epoch Time: 1677881957.370591000 seconds
    [Time delta from previous captured frame: 0.000520000 seconds]
    [Time delta from previous displayed frame: 0.000520000 seconds]
    [Time since reference or first frame: 21.319128000 seconds]
    Frame Number: 524
    Frame Length: 5 bytes (40 bits)
    Capture Length: 5 bytes (40 bits)
    [Frame is marked: False]
    [Frame is ignored: False]
    [Protocols in frame: wpan]
IEEE 802.15.4 Ack, Sequence Number: 115
    Frame Control Field: 0x0002, Frame Type: Ack, Destination Addressing Mode: None, Frame Version: IEEE Std 802.15.4-2003, Source Addressing Mode: None
        .... .... .... .010 = Frame Type: Ack (0x2)
        .... .... .... 0... = Security Enabled: False
        .... .... ...0 .... = Frame Pending: False
        .... .... ..0. .... = Acknowledge Request: False
        .... .... .0.. .... = PAN ID Compression: False
        .... .... 0... .... = Reserved: False
        .... ...0 .... .... = Sequence Number Suppression: False
        .... ..0. .... .... = Information Elements Present: False
        .... 00.. .... .... = Destination Addressing Mode: None (0x0)
        ..00 .... .... .... = Frame Version: IEEE Std 802.15.4-2003 (0)
        00.. .... .... .... = Source Addressing Mode: None (0x0)
    Sequence Number: 115
    FCS: 0xf4a4 (Correct)
    [Ack To: 523]
    [Ack Time: 0.520 ms]

0000  02 00 73 a4 f4                                    ..s..

No.     Time           Source                Destination           Protocol Length Info
    525 21.372884      0x0103                0x0203                IEEE 802.15.4 53     Data, Dst: 0x0203, Src: 0x0103

Frame 525: 53 bytes on wire (424 bits), 53 bytes captured (424 bits)
    Encapsulation type: IEEE 802.15.4 Wireless PAN (104)
    Arrival Time: Mar  3, 2023 16:19:17.424347000 CST
    [Time shift for this packet: 0.000000000 seconds]
    Epoch Time: 1677881957.424347000 seconds
    [Time delta from previous captured frame: 0.053756000 seconds]
    [Time delta from previous displayed frame: 0.053756000 seconds]
    [Time since reference or first frame: 21.372884000 seconds]
    Frame Number: 525
    Frame Length: 53 bytes (424 bits)
    Capture Length: 53 bytes (424 bits)
    [Frame is marked: False]
    [Frame is ignored: False]
    [Protocols in frame: wpan:data]
IEEE 802.15.4 Data, Dst: 0x0203, Src: 0x0103
    Frame Control Field: 0x8861, Frame Type: Data, Acknowledge Request, PAN ID Compression, Destination Addressing Mode: Short/16-bit, Frame Version: IEEE Std 802.15.4-2003, Source Addressing Mode: Short/16-bit
        .... .... .... .001 = Frame Type: Data (0x1)
        .... .... .... 0... = Security Enabled: False
        .... .... ...0 .... = Frame Pending: False
        .... .... ..1. .... = Acknowledge Request: True
        .... .... .1.. .... = PAN ID Compression: True
        .... .... 0... .... = Reserved: False
        .... ...0 .... .... = Sequence Number Suppression: False
        .... ..0. .... .... = Information Elements Present: False
        .... 10.. .... .... = Destination Addressing Mode: Short/16-bit (0x2)
        ..00 .... .... .... = Frame Version: IEEE Std 802.15.4-2003 (0)
        10.. .... .... .... = Source Addressing Mode: Short/16-bit (0x2)
    Sequence Number: 116
    Destination PAN: 0x3332
    Destination: 0x0203
    Source: 0x0103
    FCS: 0xe673 (Correct)
    [Ack In: 526]
Data (42 bytes)
    Data: a600fd1c0000270301210000523c10000000000000000000
    [Length: 42]

0000  61 88 74 32 33 03 02 03 01 a6 00 fd 1c 00 00 27   a.t23..........'
0010  03 01 21 00 00 52 3c 10 00 00 00 00 00 00 00 00   ..!..R<.........
0020  00 72 01 00 00 74 01 00 00 00 00 00 00 00 00 d5   .r...t..........
0030  7e 26 ef 73 e6                                    ~&.s.

No.     Time           Source                Destination           Protocol Length Info
    526 21.373414                                                  IEEE 802.15.4 5      Ack

Frame 526: 5 bytes on wire (40 bits), 5 bytes captured (40 bits)
    Encapsulation type: IEEE 802.15.4 Wireless PAN (104)
    Arrival Time: Mar  3, 2023 16:19:17.424877000 CST
    [Time shift for this packet: 0.000000000 seconds]
    Epoch Time: 1677881957.424877000 seconds
    [Time delta from previous captured frame: 0.000530000 seconds]
    [Time delta from previous displayed frame: 0.000530000 seconds]
    [Time since reference or first frame: 21.373414000 seconds]
    Frame Number: 526
    Frame Length: 5 bytes (40 bits)
    Capture Length: 5 bytes (40 bits)
    [Frame is marked: False]
    [Frame is ignored: False]
    [Protocols in frame: wpan]
IEEE 802.15.4 Ack, Sequence Number: 116
    Frame Control Field: 0x0002, Frame Type: Ack, Destination Addressing Mode: None, Frame Version: IEEE Std 802.15.4-2003, Source Addressing Mode: None
        .... .... .... .010 = Frame Type: Ack (0x2)
        .... .... .... 0... = Security Enabled: False
        .... .... ...0 .... = Frame Pending: False
        .... .... ..0. .... = Acknowledge Request: False
        .... .... .0.. .... = PAN ID Compression: False
        .... .... 0... .... = Reserved: False
        .... ...0 .... .... = Sequence Number Suppression: False
        .... ..0. .... .... = Information Elements Present: False
        .... 00.. .... .... = Destination Addressing Mode: None (0x0)
        ..00 .... .... .... = Frame Version: IEEE Std 802.15.4-2003 (0)
        00.. .... .... .... = Source Addressing Mode: None (0x0)
    Sequence Number: 116
    FCS: 0x801b (Correct)
    [Ack To: 525]
    [Ack Time: 0.530 ms]

0000  02 00 74 1b 80                                    ..t..

No.     Time           Source                Destination           Protocol Length Info
    527 21.498489      0x0103                0x0203                IEEE 802.15.4 53     Data, Dst: 0x0203, Src: 0x0103

Frame 527: 53 bytes on wire (424 bits), 53 bytes captured (424 bits)
    Encapsulation type: IEEE 802.15.4 Wireless PAN (104)
    Arrival Time: Mar  3, 2023 16:19:17.549952000 CST
    [Time shift for this packet: 0.000000000 seconds]
    Epoch Time: 1677881957.549952000 seconds
    [Time delta from previous captured frame: 0.125075000 seconds]
    [Time delta from previous displayed frame: 0.125075000 seconds]
    [Time since reference or first frame: 21.498489000 seconds]
    Frame Number: 527
    Frame Length: 53 bytes (424 bits)
    Capture Length: 53 bytes (424 bits)
    [Frame is marked: False]
    [Frame is ignored: False]
    [Protocols in frame: wpan:data]
IEEE 802.15.4 Data, Dst: 0x0203, Src: 0x0103
    Frame Control Field: 0x8861, Frame Type: Data, Acknowledge Request, PAN ID Compression, Destination Addressing Mode: Short/16-bit, Frame Version: IEEE Std 802.15.4-2003, Source Addressing Mode: Short/16-bit
        .... .... .... .001 = Frame Type: Data (0x1)
        .... .... .... 0... = Security Enabled: False
        .... .... ...0 .... = Frame Pending: False
        .... .... ..1. .... = Acknowledge Request: True
        .... .... .1.. .... = PAN ID Compression: True
        .... .... 0... .... = Reserved: False
        .... ...0 .... .... = Sequence Number Suppression: False
        .... ..0. .... .... = Information Elements Present: False
        .... 10.. .... .... = Destination Addressing Mode: Short/16-bit (0x2)
        ..00 .... .... .... = Frame Version: IEEE Std 802.15.4-2003 (0)
        10.. .... .... .... = Source Addressing Mode: Short/16-bit (0x2)
    Sequence Number: 117
    Destination PAN: 0x3332
    Destination: 0x0203
    Source: 0x0103
    FCS: 0x1cc8 (Correct)
    [Ack In: 528]
Data (42 bytes)
    Data: a700fd1c0000280301210000cf3c10000000000000000000
    [Length: 42]

0000  61 88 75 32 33 03 02 03 01 a7 00 fd 1c 00 00 28   a.u23..........(
0010  03 01 21 00 00 cf 3c 10 00 00 00 00 00 00 00 00   ..!...<.........
0020  00 ae 01 00 00 b0 01 00 00 00 00 00 00 00 00 d8   ................
0030  7e 89 3d c8 1c                                    ~.=..

No.     Time           Source                Destination           Protocol Length Info
    528 21.498995                                                  IEEE 802.15.4 5      Ack

Frame 528: 5 bytes on wire (40 bits), 5 bytes captured (40 bits)
    Encapsulation type: IEEE 802.15.4 Wireless PAN (104)
    Arrival Time: Mar  3, 2023 16:19:17.550458000 CST
    [Time shift for this packet: 0.000000000 seconds]
    Epoch Time: 1677881957.550458000 seconds
    [Time delta from previous captured frame: 0.000506000 seconds]
    [Time delta from previous displayed frame: 0.000506000 seconds]
    [Time since reference or first frame: 21.498995000 seconds]
    Frame Number: 528
    Frame Length: 5 bytes (40 bits)
    Capture Length: 5 bytes (40 bits)
    [Frame is marked: False]
    [Frame is ignored: False]
    [Protocols in frame: wpan]
IEEE 802.15.4 Ack, Sequence Number: 117
    Frame Control Field: 0x0002, Frame Type: Ack, Destination Addressing Mode: None, Frame Version: IEEE Std 802.15.4-2003, Source Addressing Mode: None
        .... .... .... .010 = Frame Type: Ack (0x2)
        .... .... .... 0... = Security Enabled: False
        .... .... ...0 .... = Frame Pending: False
        .... .... ..0. .... = Acknowledge Request: False
        .... .... .0.. .... = PAN ID Compression: False
        .... .... 0... .... = Reserved: False
        .... ...0 .... .... = Sequence Number Suppression: False
        .... ..0. .... .... = Information Elements Present: False
        .... 00.. .... .... = Destination Addressing Mode: None (0x0)
        ..00 .... .... .... = Frame Version: IEEE Std 802.15.4-2003 (0)
        00.. .... .... .... = Source Addressing Mode: None (0x0)
    Sequence Number: 117
    FCS: 0x9192 (Correct)
    [Ack To: 527]
    [Ack Time: 0.506 ms]

0000  02 00 75 92 91                                    ..u..

No.     Time           Source                Destination           Protocol Length Info
    529 21.622669      0x0103                0x0203                IEEE 802.15.4 53     Data, Dst: 0x0203, Src: 0x0103

Frame 529: 53 bytes on wire (424 bits), 53 bytes captured (424 bits)
    Encapsulation type: IEEE 802.15.4 Wireless PAN (104)
    Arrival Time: Mar  3, 2023 16:19:17.674132000 CST
    [Time shift for this packet: 0.000000000 seconds]
    Epoch Time: 1677881957.674132000 seconds
    [Time delta from previous captured frame: 0.123674000 seconds]
    [Time delta from previous displayed frame: 0.123674000 seconds]
    [Time since reference or first frame: 21.622669000 seconds]
    Frame Number: 529
    Frame Length: 53 bytes (424 bits)
    Capture Length: 53 bytes (424 bits)
    [Frame is marked: False]
    [Frame is ignored: False]
    [Protocols in frame: wpan:data]
IEEE 802.15.4 Data, Dst: 0x0203, Src: 0x0103
    Frame Control Field: 0x8861, Frame Type: Data, Acknowledge Request, PAN ID Compression, Destination Addressing Mode: Short/16-bit, Frame Version: IEEE Std 802.15.4-2003, Source Addressing Mode: Short/16-bit
        .... .... .... .001 = Frame Type: Data (0x1)
        .... .... .... 0... = Security Enabled: False
        .... .... ...0 .... = Frame Pending: False
        .... .... ..1. .... = Acknowledge Request: True
        .... .... .1.. .... = PAN ID Compression: True
        .... .... 0... .... = Reserved: False
        .... ...0 .... .... = Sequence Number Suppression: False
        .... ..0. .... .... = Information Elements Present: False
        .... 10.. .... .... = Destination Addressing Mode: Short/16-bit (0x2)
        ..00 .... .... .... = Frame Version: IEEE Std 802.15.4-2003 (0)
        10.. .... .... .... = Source Addressing Mode: Short/16-bit (0x2)
    Sequence Number: 118
    Destination PAN: 0x3332
    Destination: 0x0203
    Source: 0x0103
    FCS: 0xdc3e (Correct)
    [Ack In: 530]
Data (42 bytes)
    Data: a800fd1c00002903012100004b3d10000000000000000000
    [Length: 42]

0000  61 88 76 32 33 03 02 03 01 a8 00 fd 1c 00 00 29   a.v23..........)
0010  03 01 21 00 00 4b 3d 10 00 00 00 00 00 00 00 00   ..!..K=.........
0020  00 90 01 00 00 99 01 00 00 00 00 01 00 00 00 03   ................
0030  7f ee 21 3e dc                                    ..!>.

No.     Time           Source                Destination           Protocol Length Info
    530 21.623141                                                  IEEE 802.15.4 5      Ack

Frame 530: 5 bytes on wire (40 bits), 5 bytes captured (40 bits)
    Encapsulation type: IEEE 802.15.4 Wireless PAN (104)
    Arrival Time: Mar  3, 2023 16:19:17.674604000 CST
    [Time shift for this packet: 0.000000000 seconds]
    Epoch Time: 1677881957.674604000 seconds
    [Time delta from previous captured frame: 0.000472000 seconds]
    [Time delta from previous displayed frame: 0.000472000 seconds]
    [Time since reference or first frame: 21.623141000 seconds]
    Frame Number: 530
    Frame Length: 5 bytes (40 bits)
    Capture Length: 5 bytes (40 bits)
    [Frame is marked: False]
    [Frame is ignored: False]
    [Protocols in frame: wpan]
IEEE 802.15.4 Ack, Sequence Number: 118
    Frame Control Field: 0x0002, Frame Type: Ack, Destination Addressing Mode: None, Frame Version: IEEE Std 802.15.4-2003, Source Addressing Mode: None
        .... .... .... .010 = Frame Type: Ack (0x2)
        .... .... .... 0... = Security Enabled: False
        .... .... ...0 .... = Frame Pending: False
        .... .... ..0. .... = Acknowledge Request: False
        .... .... .0.. .... = PAN ID Compression: False
        .... .... 0... .... = Reserved: False
        .... ...0 .... .... = Sequence Number Suppression: False
        .... ..0. .... .... = Information Elements Present: False
        .... 00.. .... .... = Destination Addressing Mode: None (0x0)
        ..00 .... .... .... = Frame Version: IEEE Std 802.15.4-2003 (0)
        00.. .... .... .... = Source Addressing Mode: None (0x0)
    Sequence Number: 118
    FCS: 0xa309 (Correct)
    [Ack To: 529]
    [Ack Time: 0.472 ms]

0000  02 00 76 09 a3                                    ..v..

No.     Time           Source                Destination           Protocol Length Info
    531 21.753126      0x0103                0x0203                IEEE 802.15.4 77     Data, Dst: 0x0203, Src: 0x0103

Frame 531: 77 bytes on wire (616 bits), 77 bytes captured (616 bits)
    Encapsulation type: IEEE 802.15.4 Wireless PAN (104)
    Arrival Time: Mar  3, 2023 16:19:17.804589000 CST
    [Time shift for this packet: 0.000000000 seconds]
    Epoch Time: 1677881957.804589000 seconds
    [Time delta from previous captured frame: 0.129985000 seconds]
    [Time delta from previous displayed frame: 0.129985000 seconds]
    [Time since reference or first frame: 21.753126000 seconds]
    Frame Number: 531
    Frame Length: 77 bytes (616 bits)
    Capture Length: 77 bytes (616 bits)
    [Frame is marked: False]
    [Frame is ignored: False]
    [Protocols in frame: wpan:data]
IEEE 802.15.4 Data, Dst: 0x0203, Src: 0x0103
    Frame Control Field: 0x8861, Frame Type: Data, Acknowledge Request, PAN ID Compression, Destination Addressing Mode: Short/16-bit, Frame Version: IEEE Std 802.15.4-2003, Source Addressing Mode: Short/16-bit
        .... .... .... .001 = Frame Type: Data (0x1)
        .... .... .... 0... = Security Enabled: False
        .... .... ...0 .... = Frame Pending: False
        .... .... ..1. .... = Acknowledge Request: True
        .... .... .1.. .... = PAN ID Compression: True
        .... .... 0... .... = Reserved: False
        .... ...0 .... .... = Sequence Number Suppression: False
        .... ..0. .... .... = Information Elements Present: False
        .... 10.. .... .... = Destination Addressing Mode: Short/16-bit (0x2)
        ..00 .... .... .... = Frame Version: IEEE Std 802.15.4-2003 (0)
        10.. .... .... .... = Source Addressing Mode: Short/16-bit (0x2)
    Sequence Number: 119
    Destination PAN: 0x3332
    Destination: 0x0203
    Source: 0x0103
    FCS: 0x5733 (Correct)
    [Ack In: 532]
Data (66 bytes)
    Data: a900fd1c00002a03011e0000c93d1000f2e7883d77f95e3b
    [Length: 66]

0000  61 88 77 32 33 03 02 03 01 a9 00 fd 1c 00 00 2a   a.w23..........*
0010  03 01 1e 00 00 c9 3d 10 00 f2 e7 88 3d 77 f9 5e   ......=.....=w.^
0020  3b 54 ca 1b bf f0 86 45 b9 f9 6a 8a bb 60 cc 07   ;T.....E..j..`..
0030  bb 5c dd fd 1c 00 00 2b 03 01 21 00 00 c9 3d 10   .\.....+..!...=.
0040  00 00 00 00 00 00 00 00 00 22 01 33 57            .........".3W

No.     Time           Source                Destination           Protocol Length Info
    532 21.753638                                                  IEEE 802.15.4 5      Ack

Frame 532: 5 bytes on wire (40 bits), 5 bytes captured (40 bits)
    Encapsulation type: IEEE 802.15.4 Wireless PAN (104)
    Arrival Time: Mar  3, 2023 16:19:17.805101000 CST
    [Time shift for this packet: 0.000000000 seconds]
    Epoch Time: 1677881957.805101000 seconds
    [Time delta from previous captured frame: 0.000512000 seconds]
    [Time delta from previous displayed frame: 0.000512000 seconds]
    [Time since reference or first frame: 21.753638000 seconds]
    Frame Number: 532
    Frame Length: 5 bytes (40 bits)
    Capture Length: 5 bytes (40 bits)
    [Frame is marked: False]
    [Frame is ignored: False]
    [Protocols in frame: wpan]
IEEE 802.15.4 Ack, Sequence Number: 119
    Frame Control Field: 0x0002, Frame Type: Ack, Destination Addressing Mode: None, Frame Version: IEEE Std 802.15.4-2003, Source Addressing Mode: None
        .... .... .... .010 = Frame Type: Ack (0x2)
        .... .... .... 0... = Security Enabled: False
        .... .... ...0 .... = Frame Pending: False
        .... .... ..0. .... = Acknowledge Request: False
        .... .... .0.. .... = PAN ID Compression: False
        .... .... 0... .... = Reserved: False
        .... ...0 .... .... = Sequence Number Suppression: False
        .... ..0. .... .... = Information Elements Present: False
        .... 00.. .... .... = Destination Addressing Mode: None (0x0)
        ..00 .... .... .... = Frame Version: IEEE Std 802.15.4-2003 (0)
        00.. .... .... .... = Source Addressing Mode: None (0x0)
    Sequence Number: 119
    FCS: 0xb280 (Correct)
    [Ack To: 531]
    [Ack Time: 0.512 ms]

0000  02 00 77 80 b2                                    ..w..

No.     Time           Source                Destination           Protocol Length Info
    533 21.757090      0x0103                0x0203                IEEE 802.15.4 29     Data, Dst: 0x0203, Src: 0x0103

Frame 533: 29 bytes on wire (232 bits), 29 bytes captured (232 bits)
    Encapsulation type: IEEE 802.15.4 Wireless PAN (104)
    Arrival Time: Mar  3, 2023 16:19:17.808553000 CST
    [Time shift for this packet: 0.000000000 seconds]
    Epoch Time: 1677881957.808553000 seconds
    [Time delta from previous captured frame: 0.003452000 seconds]
    [Time delta from previous displayed frame: 0.003452000 seconds]
    [Time since reference or first frame: 21.757090000 seconds]
    Frame Number: 533
    Frame Length: 29 bytes (232 bits)
    Capture Length: 29 bytes (232 bits)
    [Frame is marked: False]
    [Frame is ignored: False]
    [Protocols in frame: wpan:data]
IEEE 802.15.4 Data, Dst: 0x0203, Src: 0x0103
    Frame Control Field: 0x8861, Frame Type: Data, Acknowledge Request, PAN ID Compression, Destination Addressing Mode: Short/16-bit, Frame Version: IEEE Std 802.15.4-2003, Source Addressing Mode: Short/16-bit
        .... .... .... .001 = Frame Type: Data (0x1)
        .... .... .... 0... = Security Enabled: False
        .... .... ...0 .... = Frame Pending: False
        .... .... ..1. .... = Acknowledge Request: True
        .... .... .1.. .... = PAN ID Compression: True
        .... .... 0... .... = Reserved: False
        .... ...0 .... .... = Sequence Number Suppression: False
        .... ..0. .... .... = Information Elements Present: False
        .... 10.. .... .... = Destination Addressing Mode: Short/16-bit (0x2)
        ..00 .... .... .... = Frame Version: IEEE Std 802.15.4-2003 (0)
        10.. .... .... .... = Source Addressing Mode: Short/16-bit (0x2)
    Sequence Number: 120
    Destination PAN: 0x3332
    Destination: 0x0203
    Source: 0x0103
    FCS: 0xff21 (Correct)
    [Ack In: 534]
Data (18 bytes)
    Data: aa00000025010000000000000000027fd20f
    [Length: 18]

0000  61 88 78 32 33 03 02 03 01 aa 00 00 00 25 01 00   a.x23........%..
0010  00 00 00 00 00 00 00 02 7f d2 0f 21 ff            ...........!.

No.     Time           Source                Destination           Protocol Length Info
    534 21.757647                                                  IEEE 802.15.4 5      Ack

Frame 534: 5 bytes on wire (40 bits), 5 bytes captured (40 bits)
    Encapsulation type: IEEE 802.15.4 Wireless PAN (104)
    Arrival Time: Mar  3, 2023 16:19:17.809110000 CST
    [Time shift for this packet: 0.000000000 seconds]
    Epoch Time: 1677881957.809110000 seconds
    [Time delta from previous captured frame: 0.000557000 seconds]
    [Time delta from previous displayed frame: 0.000557000 seconds]
    [Time since reference or first frame: 21.757647000 seconds]
    Frame Number: 534
    Frame Length: 5 bytes (40 bits)
    Capture Length: 5 bytes (40 bits)
    [Frame is marked: False]
    [Frame is ignored: False]
    [Protocols in frame: wpan]
IEEE 802.15.4 Ack, Sequence Number: 120
    Frame Control Field: 0x0002, Frame Type: Ack, Destination Addressing Mode: None, Frame Version: IEEE Std 802.15.4-2003, Source Addressing Mode: None
        .... .... .... .010 = Frame Type: Ack (0x2)
        .... .... .... 0... = Security Enabled: False
        .... .... ...0 .... = Frame Pending: False
        .... .... ..0. .... = Acknowledge Request: False
        .... .... .0.. .... = PAN ID Compression: False
        .... .... 0... .... = Reserved: False
        .... ...0 .... .... = Sequence Number Suppression: False
        .... ..0. .... .... = Information Elements Present: False
        .... 00.. .... .... = Destination Addressing Mode: None (0x0)
        ..00 .... .... .... = Frame Version: IEEE Std 802.15.4-2003 (0)
        00.. .... .... .... = Source Addressing Mode: None (0x0)
    Sequence Number: 120
    FCS: 0x4a77 (Correct)
    [Ack To: 533]
    [Ack Time: 0.557 ms]

0000  02 00 78 77 4a                                    ..xwJ

No.     Time           Source                Destination           Protocol Length Info
    535 21.823048      0x0203                0x0103                IEEE 802.15.4 34     Data, Dst: 0x0103, Src: 0x0203

Frame 535: 34 bytes on wire (272 bits), 34 bytes captured (272 bits)
    Encapsulation type: IEEE 802.15.4 Wireless PAN (104)
    Arrival Time: Mar  3, 2023 16:19:17.874511000 CST
    [Time shift for this packet: 0.000000000 seconds]
    Epoch Time: 1677881957.874511000 seconds
    [Time delta from previous captured frame: 0.065401000 seconds]
    [Time delta from previous displayed frame: 0.065401000 seconds]
    [Time since reference or first frame: 21.823048000 seconds]
    Frame Number: 535
    Frame Length: 34 bytes (272 bits)
    Capture Length: 34 bytes (272 bits)
    [Frame is marked: False]
    [Frame is ignored: False]
    [Protocols in frame: wpan:data]
IEEE 802.15.4 Data, Dst: 0x0103, Src: 0x0203
    Frame Control Field: 0x8861, Frame Type: Data, Acknowledge Request, PAN ID Compression, Destination Addressing Mode: Short/16-bit, Frame Version: IEEE Std 802.15.4-2003, Source Addressing Mode: Short/16-bit
        .... .... .... .001 = Frame Type: Data (0x1)
        .... .... .... 0... = Security Enabled: False
        .... .... ...0 .... = Frame Pending: False
        .... .... ..1. .... = Acknowledge Request: True
        .... .... .1.. .... = PAN ID Compression: True
        .... .... 0... .... = Reserved: False
        .... ...0 .... .... = Sequence Number Suppression: False
        .... ..0. .... .... = Information Elements Present: False
        .... 10.. .... .... = Destination Addressing Mode: Short/16-bit (0x2)
        ..00 .... .... .... = Frame Version: IEEE Std 802.15.4-2003 (0)
        10.. .... .... .... = Source Addressing Mode: Short/16-bit (0x2)
    Sequence Number: 230
    Destination PAN: 0x3332
    Destination: 0x0103
    Source: 0x0203
    FCS: 0x44cc (Correct)
    [Ack In: 536]
Data (23 bytes)
    Data: 1a00fd09000016ffbe000000000000000608c004033fee
    [Length: 23]

0000  61 88 e6 32 33 03 01 03 02 1a 00 fd 09 00 00 16   a..23...........
0010  ff be 00 00 00 00 00 00 00 06 08 c0 04 03 3f ee   ..............?.
0020  cc 44                                             .D

No.     Time           Source                Destination           Protocol Length Info
    536 21.823535                                                  IEEE 802.15.4 5      Ack

Frame 536: 5 bytes on wire (40 bits), 5 bytes captured (40 bits)
    Encapsulation type: IEEE 802.15.4 Wireless PAN (104)
    Arrival Time: Mar  3, 2023 16:19:17.874998000 CST
    [Time shift for this packet: 0.000000000 seconds]
    Epoch Time: 1677881957.874998000 seconds
    [Time delta from previous captured frame: 0.000487000 seconds]
    [Time delta from previous displayed frame: 0.000487000 seconds]
    [Time since reference or first frame: 21.823535000 seconds]
    Frame Number: 536
    Frame Length: 5 bytes (40 bits)
    Capture Length: 5 bytes (40 bits)
    [Frame is marked: False]
    [Frame is ignored: False]
    [Protocols in frame: wpan]
IEEE 802.15.4 Ack, Sequence Number: 230
    Frame Control Field: 0x0002, Frame Type: Ack, Destination Addressing Mode: None, Frame Version: IEEE Std 802.15.4-2003, Source Addressing Mode: None
        .... .... .... .010 = Frame Type: Ack (0x2)
        .... .... .... 0... = Security Enabled: False
        .... .... ...0 .... = Frame Pending: False
        .... .... ..0. .... = Acknowledge Request: False
        .... .... .0.. .... = PAN ID Compression: False
        .... .... 0... .... = Reserved: False
        .... ...0 .... .... = Sequence Number Suppression: False
        .... ..0. .... .... = Information Elements Present: False
        .... 00.. .... .... = Destination Addressing Mode: None (0x0)
        ..00 .... .... .... = Frame Version: IEEE Std 802.15.4-2003 (0)
        00.. .... .... .... = Source Addressing Mode: None (0x0)
    Sequence Number: 230
    FCS: 0x3780 (Correct)
    [Ack To: 535]
    [Ack Time: 0.487 ms]

0000  02 00 e6 80 37                                    ....7

No.     Time           Source                Destination           Protocol Length Info
    537 21.872389      0x0103                0x0203                IEEE 802.15.4 53     Data, Dst: 0x0203, Src: 0x0103

Frame 537: 53 bytes on wire (424 bits), 53 bytes captured (424 bits)
    Encapsulation type: IEEE 802.15.4 Wireless PAN (104)
    Arrival Time: Mar  3, 2023 16:19:17.923852000 CST
    [Time shift for this packet: 0.000000000 seconds]
    Epoch Time: 1677881957.923852000 seconds
    [Time delta from previous captured frame: 0.048854000 seconds]
    [Time delta from previous displayed frame: 0.048854000 seconds]
    [Time since reference or first frame: 21.872389000 seconds]
    Frame Number: 537
    Frame Length: 53 bytes (424 bits)
    Capture Length: 53 bytes (424 bits)
    [Frame is marked: False]
    [Frame is ignored: False]
    [Protocols in frame: wpan:data]
IEEE 802.15.4 Data, Dst: 0x0203, Src: 0x0103
    Frame Control Field: 0x8861, Frame Type: Data, Acknowledge Request, PAN ID Compression, Destination Addressing Mode: Short/16-bit, Frame Version: IEEE Std 802.15.4-2003, Source Addressing Mode: Short/16-bit
        .... .... .... .001 = Frame Type: Data (0x1)
        .... .... .... 0... = Security Enabled: False
        .... .... ...0 .... = Frame Pending: False
        .... .... ..1. .... = Acknowledge Request: True
        .... .... .1.. .... = PAN ID Compression: True
        .... .... 0... .... = Reserved: False
        .... ...0 .... .... = Sequence Number Suppression: False
        .... ..0. .... .... = Information Elements Present: False
        .... 10.. .... .... = Destination Addressing Mode: Short/16-bit (0x2)
        ..00 .... .... .... = Frame Version: IEEE Std 802.15.4-2003 (0)
        10.. .... .... .... = Source Addressing Mode: Short/16-bit (0x2)
    Sequence Number: 121
    Destination PAN: 0x3332
    Destination: 0x0203
    Source: 0x0103
    FCS: 0xe05d (Correct)
    [Ack In: 538]
Data (42 bytes)
    Data: ab00fd1c00002c0301210000453e10000000000000000000
    [Length: 42]

0000  61 88 79 32 33 03 02 03 01 ab 00 fd 1c 00 00 2c   a.y23..........,
0010  03 01 21 00 00 45 3e 10 00 00 00 00 00 00 00 00   ..!..E>.........
0020  00 68 01 00 00 69 01 00 00 00 00 01 00 00 00 02   .h...i..........
0030  7f f3 58 5d e0                                    ..X].

No.     Time           Source                Destination           Protocol Length Info
    538 21.872945                                                  IEEE 802.15.4 5      Ack

Frame 538: 5 bytes on wire (40 bits), 5 bytes captured (40 bits)
    Encapsulation type: IEEE 802.15.4 Wireless PAN (104)
    Arrival Time: Mar  3, 2023 16:19:17.924408000 CST
    [Time shift for this packet: 0.000000000 seconds]
    Epoch Time: 1677881957.924408000 seconds
    [Time delta from previous captured frame: 0.000556000 seconds]
    [Time delta from previous displayed frame: 0.000556000 seconds]
    [Time since reference or first frame: 21.872945000 seconds]
    Frame Number: 538
    Frame Length: 5 bytes (40 bits)
    Capture Length: 5 bytes (40 bits)
    [Frame is marked: False]
    [Frame is ignored: False]
    [Protocols in frame: wpan]
IEEE 802.15.4 Ack, Sequence Number: 121
    Frame Control Field: 0x0002, Frame Type: Ack, Destination Addressing Mode: None, Frame Version: IEEE Std 802.15.4-2003, Source Addressing Mode: None
        .... .... .... .010 = Frame Type: Ack (0x2)
        .... .... .... 0... = Security Enabled: False
        .... .... ...0 .... = Frame Pending: False
        .... .... ..0. .... = Acknowledge Request: False
        .... .... .0.. .... = PAN ID Compression: False
        .... .... 0... .... = Reserved: False
        .... ...0 .... .... = Sequence Number Suppression: False
        .... ..0. .... .... = Information Elements Present: False
        .... 00.. .... .... = Destination Addressing Mode: None (0x0)
        ..00 .... .... .... = Frame Version: IEEE Std 802.15.4-2003 (0)
        00.. .... .... .... = Source Addressing Mode: None (0x0)
    Sequence Number: 121
    FCS: 0x5bfe (Correct)
    [Ack To: 537]
    [Ack Time: 0.556 ms]

0000  02 00 79 fe 5b                                    ..y.[

No.     Time           Source                Destination           Protocol Length Info
    539 21.998342      0x0103                0x0203                IEEE 802.15.4 53     Data, Dst: 0x0203, Src: 0x0103

Frame 539: 53 bytes on wire (424 bits), 53 bytes captured (424 bits)
    Encapsulation type: IEEE 802.15.4 Wireless PAN (104)
    Arrival Time: Mar  3, 2023 16:19:18.049805000 CST
    [Time shift for this packet: 0.000000000 seconds]
    Epoch Time: 1677881958.049805000 seconds
    [Time delta from previous captured frame: 0.125397000 seconds]
    [Time delta from previous displayed frame: 0.125397000 seconds]
    [Time since reference or first frame: 21.998342000 seconds]
    Frame Number: 539
    Frame Length: 53 bytes (424 bits)
    Capture Length: 53 bytes (424 bits)
    [Frame is marked: False]
    [Frame is ignored: False]
    [Protocols in frame: wpan:data]
IEEE 802.15.4 Data, Dst: 0x0203, Src: 0x0103
    Frame Control Field: 0x8861, Frame Type: Data, Acknowledge Request, PAN ID Compression, Destination Addressing Mode: Short/16-bit, Frame Version: IEEE Std 802.15.4-2003, Source Addressing Mode: Short/16-bit
        .... .... .... .001 = Frame Type: Data (0x1)
        .... .... .... 0... = Security Enabled: False
        .... .... ...0 .... = Frame Pending: False
        .... .... ..1. .... = Acknowledge Request: True
        .... .... .1.. .... = PAN ID Compression: True
        .... .... 0... .... = Reserved: False
        .... ...0 .... .... = Sequence Number Suppression: False
        .... ..0. .... .... = Information Elements Present: False
        .... 10.. .... .... = Destination Addressing Mode: Short/16-bit (0x2)
        ..00 .... .... .... = Frame Version: IEEE Std 802.15.4-2003 (0)
        10.. .... .... .... = Source Addressing Mode: Short/16-bit (0x2)
    Sequence Number: 122
    Destination PAN: 0x3332
    Destination: 0x0203
    Source: 0x0103
    FCS: 0xa31f (Correct)
    [Ack In: 540]
Data (42 bytes)
    Data: ac00fd1c00002d0301210000c33e10000000000000000000
    [Length: 42]

0000  61 88 7a 32 33 03 02 03 01 ac 00 fd 1c 00 00 2d   a.z23..........-
0010  03 01 21 00 00 c3 3e 10 00 00 00 00 00 00 00 00   ..!...>.........
0020  00 18 01 00 00 1d 01 00 00 00 00 01 00 00 00 06   ................
0030  7f 12 f7 1f a3                                    .....

No.     Time           Source                Destination           Protocol Length Info
    540 21.998852                                                  IEEE 802.15.4 5      Ack

Frame 540: 5 bytes on wire (40 bits), 5 bytes captured (40 bits)
    Encapsulation type: IEEE 802.15.4 Wireless PAN (104)
    Arrival Time: Mar  3, 2023 16:19:18.050315000 CST
    [Time shift for this packet: 0.000000000 seconds]
    Epoch Time: 1677881958.050315000 seconds
    [Time delta from previous captured frame: 0.000510000 seconds]
    [Time delta from previous displayed frame: 0.000510000 seconds]
    [Time since reference or first frame: 21.998852000 seconds]
    Frame Number: 540
    Frame Length: 5 bytes (40 bits)
    Capture Length: 5 bytes (40 bits)
    [Frame is marked: False]
    [Frame is ignored: False]
    [Protocols in frame: wpan]
IEEE 802.15.4 Ack, Sequence Number: 122
    Frame Control Field: 0x0002, Frame Type: Ack, Destination Addressing Mode: None, Frame Version: IEEE Std 802.15.4-2003, Source Addressing Mode: None
        .... .... .... .010 = Frame Type: Ack (0x2)
        .... .... .... 0... = Security Enabled: False
        .... .... ...0 .... = Frame Pending: False
        .... .... ..0. .... = Acknowledge Request: False
        .... .... .0.. .... = PAN ID Compression: False
        .... .... 0... .... = Reserved: False
        .... ...0 .... .... = Sequence Number Suppression: False
        .... ..0. .... .... = Information Elements Present: False
        .... 00.. .... .... = Destination Addressing Mode: None (0x0)
        ..00 .... .... .... = Frame Version: IEEE Std 802.15.4-2003 (0)
        00.. .... .... .... = Source Addressing Mode: None (0x0)
    Sequence Number: 122
    FCS: 0x6965 (Correct)
    [Ack To: 539]
    [Ack Time: 0.510 ms]

0000  02 00 7a 65 69                                    ..zei

No.     Time           Source                Destination           Protocol Length Info
    541 22.122505      0x0103                0x0203                IEEE 802.15.4 53     Data, Dst: 0x0203, Src: 0x0103

Frame 541: 53 bytes on wire (424 bits), 53 bytes captured (424 bits)
    Encapsulation type: IEEE 802.15.4 Wireless PAN (104)
    Arrival Time: Mar  3, 2023 16:19:18.173968000 CST
    [Time shift for this packet: 0.000000000 seconds]
    Epoch Time: 1677881958.173968000 seconds
    [Time delta from previous captured frame: 0.123653000 seconds]
    [Time delta from previous displayed frame: 0.123653000 seconds]
    [Time since reference or first frame: 22.122505000 seconds]
    Frame Number: 541
    Frame Length: 53 bytes (424 bits)
    Capture Length: 53 bytes (424 bits)
    [Frame is marked: False]
    [Frame is ignored: False]
    [Protocols in frame: wpan:data]
IEEE 802.15.4 Data, Dst: 0x0203, Src: 0x0103
    Frame Control Field: 0x8861, Frame Type: Data, Acknowledge Request, PAN ID Compression, Destination Addressing Mode: Short/16-bit, Frame Version: IEEE Std 802.15.4-2003, Source Addressing Mode: Short/16-bit
        .... .... .... .001 = Frame Type: Data (0x1)
        .... .... .... 0... = Security Enabled: False
        .... .... ...0 .... = Frame Pending: False
        .... .... ..1. .... = Acknowledge Request: True
        .... .... .1.. .... = PAN ID Compression: True
        .... .... 0... .... = Reserved: False
        .... ...0 .... .... = Sequence Number Suppression: False
        .... ..0. .... .... = Information Elements Present: False
        .... 10.. .... .... = Destination Addressing Mode: Short/16-bit (0x2)
        ..00 .... .... .... = Frame Version: IEEE Std 802.15.4-2003 (0)
        10.. .... .... .... = Source Addressing Mode: Short/16-bit (0x2)
    Sequence Number: 123
    Destination PAN: 0x3332
    Destination: 0x0203
    Source: 0x0103
    FCS: 0xc68c (Correct)
    [Ack In: 542]
Data (42 bytes)
    Data: ad00fd1c00002e03012100003f3f10000000000000000000
    [Length: 42]

0000  61 88 7b 32 33 03 02 03 01 ad 00 fd 1c 00 00 2e   a.{23...........
0010  03 01 21 00 00 3f 3f 10 00 00 00 00 00 00 00 00   ..!..??.........
0020  00 7c 01 00 00 85 01 00 00 00 00 01 00 00 00 05   .|..............
0030  7f eb eb 8c c6                                    .....

No.     Time           Source                Destination           Protocol Length Info
    542 22.123005                                                  IEEE 802.15.4 5      Ack

Frame 542: 5 bytes on wire (40 bits), 5 bytes captured (40 bits)
    Encapsulation type: IEEE 802.15.4 Wireless PAN (104)
    Arrival Time: Mar  3, 2023 16:19:18.174468000 CST
    [Time shift for this packet: 0.000000000 seconds]
    Epoch Time: 1677881958.174468000 seconds
    [Time delta from previous captured frame: 0.000500000 seconds]
    [Time delta from previous displayed frame: 0.000500000 seconds]
    [Time since reference or first frame: 22.123005000 seconds]
    Frame Number: 542
    Frame Length: 5 bytes (40 bits)
    Capture Length: 5 bytes (40 bits)
    [Frame is marked: False]
    [Frame is ignored: False]
    [Protocols in frame: wpan]
IEEE 802.15.4 Ack, Sequence Number: 123
    Frame Control Field: 0x0002, Frame Type: Ack, Destination Addressing Mode: None, Frame Version: IEEE Std 802.15.4-2003, Source Addressing Mode: None
        .... .... .... .010 = Frame Type: Ack (0x2)
        .... .... .... 0... = Security Enabled: False
        .... .... ...0 .... = Frame Pending: False
        .... .... ..0. .... = Acknowledge Request: False
        .... .... .0.. .... = PAN ID Compression: False
        .... .... 0... .... = Reserved: False
        .... ...0 .... .... = Sequence Number Suppression: False
        .... ..0. .... .... = Information Elements Present: False
        .... 00.. .... .... = Destination Addressing Mode: None (0x0)
        ..00 .... .... .... = Frame Version: IEEE Std 802.15.4-2003 (0)
        00.. .... .... .... = Source Addressing Mode: None (0x0)
    Sequence Number: 123
    FCS: 0x78ec (Correct)
    [Ack To: 541]
    [Ack Time: 0.500 ms]

0000  02 00 7b ec 78                                    ..{.x

No.     Time           Source                Destination           Protocol Length Info
    543 22.262419      0x0103                0x0203                IEEE 802.15.4 113    Data, Dst: 0x0203, Src: 0x0103

Frame 543: 113 bytes on wire (904 bits), 113 bytes captured (904 bits)
    Encapsulation type: IEEE 802.15.4 Wireless PAN (104)
    Arrival Time: Mar  3, 2023 16:19:18.313882000 CST
    [Time shift for this packet: 0.000000000 seconds]
    Epoch Time: 1677881958.313882000 seconds
    [Time delta from previous captured frame: 0.139414000 seconds]
    [Time delta from previous displayed frame: 0.139414000 seconds]
    [Time since reference or first frame: 22.262419000 seconds]
    Frame Number: 543
    Frame Length: 113 bytes (904 bits)
    Capture Length: 113 bytes (904 bits)
    [Frame is marked: False]
    [Frame is ignored: False]
    [Protocols in frame: wpan:data]
IEEE 802.15.4 Data, Dst: 0x0203, Src: 0x0103
    Frame Control Field: 0x8861, Frame Type: Data, Acknowledge Request, PAN ID Compression, Destination Addressing Mode: Short/16-bit, Frame Version: IEEE Std 802.15.4-2003, Source Addressing Mode: Short/16-bit
        .... .... .... .001 = Frame Type: Data (0x1)
        .... .... .... 0... = Security Enabled: False
        .... .... ...0 .... = Frame Pending: False
        .... .... ..1. .... = Acknowledge Request: True
        .... .... .1.. .... = PAN ID Compression: True
        .... .... 0... .... = Reserved: False
        .... ...0 .... .... = Sequence Number Suppression: False
        .... ..0. .... .... = Information Elements Present: False
        .... 10.. .... .... = Destination Addressing Mode: Short/16-bit (0x2)
        ..00 .... .... .... = Frame Version: IEEE Std 802.15.4-2003 (0)
        10.. .... .... .... = Source Addressing Mode: Short/16-bit (0x2)
    Sequence Number: 124
    Destination PAN: 0x3332
    Destination: 0x0203
    Source: 0x0103
    FCS: 0x4458 (Correct)
    [Ack In: 544]
Data (102 bytes)
    Data: ae00fd1f00002f03010100000ffc60130f1c60100f9c5001
    [Length: 102]

0000  61 88 7c 32 33 03 02 03 01 ae 00 fd 1f 00 00 2f   a.|23........../
0010  03 01 01 00 00 0f fc 60 13 0f 1c 60 10 0f 9c 50   .......`...`...P
0020  01 f1 01 00 00 ff ff 00 00 00 00 00 00 00 00 00   ................
0030  00 00 00 ff 90 5d fd 16 00 00 30 03 01 c1 00 00   .....]....0.....
0040  00 00 00 00 4b 0b 13 3b da 3c 10 3c 43 ec ac 3d   ....K..;.<.<C..=
0050  00 00 00 00 a5 01 82 a5 fd 1c 00 00 31 03 01 1e   ............1...
0060  00 00 bf 3f 10 00 03 b4 8d 3d 08 4e 1d bc 98 58   ...?.....=.N...X
0070  44                                                D

No.     Time           Source                Destination           Protocol Length Info
    544 22.262939                                                  IEEE 802.15.4 5      Ack

Frame 544: 5 bytes on wire (40 bits), 5 bytes captured (40 bits)
    Encapsulation type: IEEE 802.15.4 Wireless PAN (104)
    Arrival Time: Mar  3, 2023 16:19:18.314402000 CST
    [Time shift for this packet: 0.000000000 seconds]
    Epoch Time: 1677881958.314402000 seconds
    [Time delta from previous captured frame: 0.000520000 seconds]
    [Time delta from previous displayed frame: 0.000520000 seconds]
    [Time since reference or first frame: 22.262939000 seconds]
    Frame Number: 544
    Frame Length: 5 bytes (40 bits)
    Capture Length: 5 bytes (40 bits)
    [Frame is marked: False]
    [Frame is ignored: False]
    [Protocols in frame: wpan]
IEEE 802.15.4 Ack, Sequence Number: 124
    Frame Control Field: 0x0002, Frame Type: Ack, Destination Addressing Mode: None, Frame Version: IEEE Std 802.15.4-2003, Source Addressing Mode: None
        .... .... .... .010 = Frame Type: Ack (0x2)
        .... .... .... 0... = Security Enabled: False
        .... .... ...0 .... = Frame Pending: False
        .... .... ..0. .... = Acknowledge Request: False
        .... .... .0.. .... = PAN ID Compression: False
        .... .... 0... .... = Reserved: False
        .... ...0 .... .... = Sequence Number Suppression: False
        .... ..0. .... .... = Information Elements Present: False
        .... 00.. .... .... = Destination Addressing Mode: None (0x0)
        ..00 .... .... .... = Frame Version: IEEE Std 802.15.4-2003 (0)
        00.. .... .... .... = Source Addressing Mode: None (0x0)
    Sequence Number: 124
    FCS: 0x0c53 (Correct)
    [Ack To: 543]
    [Ack Time: 0.520 ms]

0000  02 00 7c 53 0c                                    ..|S.

No.     Time           Source                Destination           Protocol Length Info
    545 22.271096      0x0103                0x0203                IEEE 802.15.4 70     Data, Dst: 0x0203, Src: 0x0103

Frame 545: 70 bytes on wire (560 bits), 70 bytes captured (560 bits)
    Encapsulation type: IEEE 802.15.4 Wireless PAN (104)
    Arrival Time: Mar  3, 2023 16:19:18.322559000 CST
    [Time shift for this packet: 0.000000000 seconds]
    Epoch Time: 1677881958.322559000 seconds
    [Time delta from previous captured frame: 0.008157000 seconds]
    [Time delta from previous displayed frame: 0.008157000 seconds]
    [Time since reference or first frame: 22.271096000 seconds]
    Frame Number: 545
    Frame Length: 70 bytes (560 bits)
    Capture Length: 70 bytes (560 bits)
    [Frame is marked: False]
    [Frame is ignored: False]
    [Protocols in frame: wpan:data]
IEEE 802.15.4 Data, Dst: 0x0203, Src: 0x0103
    Frame Control Field: 0x8861, Frame Type: Data, Acknowledge Request, PAN ID Compression, Destination Addressing Mode: Short/16-bit, Frame Version: IEEE Std 802.15.4-2003, Source Addressing Mode: Short/16-bit
        .... .... .... .001 = Frame Type: Data (0x1)
        .... .... .... 0... = Security Enabled: False
        .... .... ...0 .... = Frame Pending: False
        .... .... ..1. .... = Acknowledge Request: True
        .... .... .1.. .... = PAN ID Compression: True
        .... .... 0... .... = Reserved: False
        .... ...0 .... .... = Sequence Number Suppression: False
        .... ..0. .... .... = Information Elements Present: False
        .... 10.. .... .... = Destination Addressing Mode: Short/16-bit (0x2)
        ..00 .... .... .... = Frame Version: IEEE Std 802.15.4-2003 (0)
        10.. .... .... .... = Source Addressing Mode: Short/16-bit (0x2)
    Sequence Number: 125
    Destination PAN: 0x3332
    Destination: 0x0203
    Source: 0x0103
    FCS: 0x61de (Correct)
    [Ack In: 546]
Data (59 bytes)
    Data: af00821ebf07a6623b67ae85be05be0ebddae8fd1c000032
    [Length: 59]

0000  61 88 7d 32 33 03 02 03 01 af 00 82 1e bf 07 a6   a.}23...........
0010  62 3b 67 ae 85 be 05 be 0e bd da e8 fd 1c 00 00   b;g.............
0020  32 03 01 21 00 00 bf 3f 10 00 00 00 00 00 00 00   2..!...?........
0030  00 00 f0 00 00 00 f3 00 00 00 00 00 00 00 00 00   ................
0040  c5 7e 09 93 de 61                                 .~...a

No.     Time           Source                Destination           Protocol Length Info
    546 22.271638                                                  IEEE 802.15.4 5      Ack

Frame 546: 5 bytes on wire (40 bits), 5 bytes captured (40 bits)
    Encapsulation type: IEEE 802.15.4 Wireless PAN (104)
    Arrival Time: Mar  3, 2023 16:19:18.323101000 CST
    [Time shift for this packet: 0.000000000 seconds]
    Epoch Time: 1677881958.323101000 seconds
    [Time delta from previous captured frame: 0.000542000 seconds]
    [Time delta from previous displayed frame: 0.000542000 seconds]
    [Time since reference or first frame: 22.271638000 seconds]
    Frame Number: 546
    Frame Length: 5 bytes (40 bits)
    Capture Length: 5 bytes (40 bits)
    [Frame is marked: False]
    [Frame is ignored: False]
    [Protocols in frame: wpan]
IEEE 802.15.4 Ack, Sequence Number: 125
    Frame Control Field: 0x0002, Frame Type: Ack, Destination Addressing Mode: None, Frame Version: IEEE Std 802.15.4-2003, Source Addressing Mode: None
        .... .... .... .010 = Frame Type: Ack (0x2)
        .... .... .... 0... = Security Enabled: False
        .... .... ...0 .... = Frame Pending: False
        .... .... ..0. .... = Acknowledge Request: False
        .... .... .0.. .... = PAN ID Compression: False
        .... .... 0... .... = Reserved: False
        .... ...0 .... .... = Sequence Number Suppression: False
        .... ..0. .... .... = Information Elements Present: False
        .... 00.. .... .... = Destination Addressing Mode: None (0x0)
        ..00 .... .... .... = Frame Version: IEEE Std 802.15.4-2003 (0)
        00.. .... .... .... = Source Addressing Mode: None (0x0)
    Sequence Number: 125
    FCS: 0x1dda (Correct)
    [Ack To: 545]
    [Ack Time: 0.542 ms]

0000  02 00 7d da 1d                                    ..}..

No.     Time           Source                Destination           Protocol Length Info
    547 22.321048      0x0103                0x0203                IEEE 802.15.4 34     Data, Dst: 0x0203, Src: 0x0103

Frame 547: 34 bytes on wire (272 bits), 34 bytes captured (272 bits)
    Encapsulation type: IEEE 802.15.4 Wireless PAN (104)
    Arrival Time: Mar  3, 2023 16:19:18.372511000 CST
    [Time shift for this packet: 0.000000000 seconds]
    Epoch Time: 1677881958.372511000 seconds
    [Time delta from previous captured frame: 0.049410000 seconds]
    [Time delta from previous displayed frame: 0.049410000 seconds]
    [Time since reference or first frame: 22.321048000 seconds]
    Frame Number: 547
    Frame Length: 34 bytes (272 bits)
    Capture Length: 34 bytes (272 bits)
    [Frame is marked: False]
    [Frame is ignored: False]
    [Protocols in frame: wpan:data]
IEEE 802.15.4 Data, Dst: 0x0203, Src: 0x0103
    Frame Control Field: 0x8861, Frame Type: Data, Acknowledge Request, PAN ID Compression, Destination Addressing Mode: Short/16-bit, Frame Version: IEEE Std 802.15.4-2003, Source Addressing Mode: Short/16-bit
        .... .... .... .001 = Frame Type: Data (0x1)
        .... .... .... 0... = Security Enabled: False
        .... .... ...0 .... = Frame Pending: False
        .... .... ..1. .... = Acknowledge Request: True
        .... .... .1.. .... = PAN ID Compression: True
        .... .... 0... .... = Reserved: False
        .... ...0 .... .... = Sequence Number Suppression: False
        .... ..0. .... .... = Information Elements Present: False
        .... 10.. .... .... = Destination Addressing Mode: Short/16-bit (0x2)
        ..00 .... .... .... = Frame Version: IEEE Std 802.15.4-2003 (0)
        10.. .... .... .... = Source Addressing Mode: Short/16-bit (0x2)
    Sequence Number: 126
    Destination PAN: 0x3332
    Destination: 0x0203
    Source: 0x0103
    FCS: 0x5ffb (Correct)
    [Ack In: 548]
Data (23 bytes)
    Data: b000fd0900003303010000000000000002035103031e72
    [Length: 23]

0000  61 88 7e 32 33 03 02 03 01 b0 00 fd 09 00 00 33   a.~23..........3
0010  03 01 00 00 00 00 00 00 00 02 03 51 03 03 1e 72   ...........Q...r
0020  fb 5f                                             ._

No.     Time           Source                Destination           Protocol Length Info
    548 22.321555                                                  IEEE 802.15.4 5      Ack

Frame 548: 5 bytes on wire (40 bits), 5 bytes captured (40 bits)
    Encapsulation type: IEEE 802.15.4 Wireless PAN (104)
    Arrival Time: Mar  3, 2023 16:19:18.373018000 CST
    [Time shift for this packet: 0.000000000 seconds]
    Epoch Time: 1677881958.373018000 seconds
    [Time delta from previous captured frame: 0.000507000 seconds]
    [Time delta from previous displayed frame: 0.000507000 seconds]
    [Time since reference or first frame: 22.321555000 seconds]
    Frame Number: 548
    Frame Length: 5 bytes (40 bits)
    Capture Length: 5 bytes (40 bits)
    [Frame is marked: False]
    [Frame is ignored: False]
    [Protocols in frame: wpan]
IEEE 802.15.4 Ack, Sequence Number: 126
    Frame Control Field: 0x0002, Frame Type: Ack, Destination Addressing Mode: None, Frame Version: IEEE Std 802.15.4-2003, Source Addressing Mode: None
        .... .... .... .010 = Frame Type: Ack (0x2)
        .... .... .... 0... = Security Enabled: False
        .... .... ...0 .... = Frame Pending: False
        .... .... ..0. .... = Acknowledge Request: False
        .... .... .0.. .... = PAN ID Compression: False
        .... .... 0... .... = Reserved: False
        .... ...0 .... .... = Sequence Number Suppression: False
        .... ..0. .... .... = Information Elements Present: False
        .... 00.. .... .... = Destination Addressing Mode: None (0x0)
        ..00 .... .... .... = Frame Version: IEEE Std 802.15.4-2003 (0)
        00.. .... .... .... = Source Addressing Mode: None (0x0)
    Sequence Number: 126
    FCS: 0x2f41 (Correct)
    [Ack To: 547]
    [Ack Time: 0.507 ms]

0000  02 00 7e 41 2f                                    ..~A/

No.     Time           Source                Destination           Protocol Length Info
    549 22.372777      0x0103                0x0203                IEEE 802.15.4 53     Data, Dst: 0x0203, Src: 0x0103

Frame 549: 53 bytes on wire (424 bits), 53 bytes captured (424 bits)
    Encapsulation type: IEEE 802.15.4 Wireless PAN (104)
    Arrival Time: Mar  3, 2023 16:19:18.424240000 CST
    [Time shift for this packet: 0.000000000 seconds]
    Epoch Time: 1677881958.424240000 seconds
    [Time delta from previous captured frame: 0.051222000 seconds]
    [Time delta from previous displayed frame: 0.051222000 seconds]
    [Time since reference or first frame: 22.372777000 seconds]
    Frame Number: 549
    Frame Length: 53 bytes (424 bits)
    Capture Length: 53 bytes (424 bits)
    [Frame is marked: False]
    [Frame is ignored: False]
    [Protocols in frame: wpan:data]
IEEE 802.15.4 Data, Dst: 0x0203, Src: 0x0103
    Frame Control Field: 0x8861, Frame Type: Data, Acknowledge Request, PAN ID Compression, Destination Addressing Mode: Short/16-bit, Frame Version: IEEE Std 802.15.4-2003, Source Addressing Mode: Short/16-bit
        .... .... .... .001 = Frame Type: Data (0x1)
        .... .... .... 0... = Security Enabled: False
        .... .... ...0 .... = Frame Pending: False
        .... .... ..1. .... = Acknowledge Request: True
        .... .... .1.. .... = PAN ID Compression: True
        .... .... 0... .... = Reserved: False
        .... ...0 .... .... = Sequence Number Suppression: False
        .... ..0. .... .... = Information Elements Present: False
        .... 10.. .... .... = Destination Addressing Mode: Short/16-bit (0x2)
        ..00 .... .... .... = Frame Version: IEEE Std 802.15.4-2003 (0)
        10.. .... .... .... = Source Addressing Mode: Short/16-bit (0x2)
    Sequence Number: 127
    Destination PAN: 0x3332
    Destination: 0x0203
    Source: 0x0103
    FCS: 0x66ab (Correct)
    [Ack In: 550]
Data (42 bytes)
    Data: b100fd1c0000340301210000394010000000000000000000
    [Length: 42]

0000  61 88 7f 32 33 03 02 03 01 b1 00 fd 1c 00 00 34   a..23..........4
0010  03 01 21 00 00 39 40 10 00 00 00 00 00 00 00 00   ..!..9@.........
0020  00 e6 00 00 00 e7 00 00 00 00 00 01 00 00 00 d3   ................
0030  7e 33 91 ab 66                                    ~3..f

No.     Time           Source                Destination           Protocol Length Info
    550 22.373285                                                  IEEE 802.15.4 5      Ack

Frame 550: 5 bytes on wire (40 bits), 5 bytes captured (40 bits)
    Encapsulation type: IEEE 802.15.4 Wireless PAN (104)
    Arrival Time: Mar  3, 2023 16:19:18.424748000 CST
    [Time shift for this packet: 0.000000000 seconds]
    Epoch Time: 1677881958.424748000 seconds
    [Time delta from previous captured frame: 0.000508000 seconds]
    [Time delta from previous displayed frame: 0.000508000 seconds]
    [Time since reference or first frame: 22.373285000 seconds]
    Frame Number: 550
    Frame Length: 5 bytes (40 bits)
    Capture Length: 5 bytes (40 bits)
    [Frame is marked: False]
    [Frame is ignored: False]
    [Protocols in frame: wpan]
IEEE 802.15.4 Ack, Sequence Number: 127
    Frame Control Field: 0x0002, Frame Type: Ack, Destination Addressing Mode: None, Frame Version: IEEE Std 802.15.4-2003, Source Addressing Mode: None
        .... .... .... .010 = Frame Type: Ack (0x2)
        .... .... .... 0... = Security Enabled: False
        .... .... ...0 .... = Frame Pending: False
        .... .... ..0. .... = Acknowledge Request: False
        .... .... .0.. .... = PAN ID Compression: False
        .... .... 0... .... = Reserved: False
        .... ...0 .... .... = Sequence Number Suppression: False
        .... ..0. .... .... = Information Elements Present: False
        .... 00.. .... .... = Destination Addressing Mode: None (0x0)
        ..00 .... .... .... = Frame Version: IEEE Std 802.15.4-2003 (0)
        00.. .... .... .... = Source Addressing Mode: None (0x0)
    Sequence Number: 127
    FCS: 0x3ec8 (Correct)
    [Ack To: 549]
    [Ack Time: 0.508 ms]

0000  02 00 7f c8 3e                                    ....>

No.     Time           Source                Destination           Protocol Length Info
    551 22.498374      0x0103                0x0203                IEEE 802.15.4 53     Data, Dst: 0x0203, Src: 0x0103

Frame 551: 53 bytes on wire (424 bits), 53 bytes captured (424 bits)
    Encapsulation type: IEEE 802.15.4 Wireless PAN (104)
    Arrival Time: Mar  3, 2023 16:19:18.549837000 CST
    [Time shift for this packet: 0.000000000 seconds]
    Epoch Time: 1677881958.549837000 seconds
    [Time delta from previous captured frame: 0.125089000 seconds]
    [Time delta from previous displayed frame: 0.125089000 seconds]
    [Time since reference or first frame: 22.498374000 seconds]
    Frame Number: 551
    Frame Length: 53 bytes (424 bits)
    Capture Length: 53 bytes (424 bits)
    [Frame is marked: False]
    [Frame is ignored: False]
    [Protocols in frame: wpan:data]
IEEE 802.15.4 Data, Dst: 0x0203, Src: 0x0103
    Frame Control Field: 0x8861, Frame Type: Data, Acknowledge Request, PAN ID Compression, Destination Addressing Mode: Short/16-bit, Frame Version: IEEE Std 802.15.4-2003, Source Addressing Mode: Short/16-bit
        .... .... .... .001 = Frame Type: Data (0x1)
        .... .... .... 0... = Security Enabled: False
        .... .... ...0 .... = Frame Pending: False
        .... .... ..1. .... = Acknowledge Request: True
        .... .... .1.. .... = PAN ID Compression: True
        .... .... 0... .... = Reserved: False
        .... ...0 .... .... = Sequence Number Suppression: False
        .... ..0. .... .... = Information Elements Present: False
        .... 10.. .... .... = Destination Addressing Mode: Short/16-bit (0x2)
        ..00 .... .... .... = Frame Version: IEEE Std 802.15.4-2003 (0)
        10.. .... .... .... = Source Addressing Mode: Short/16-bit (0x2)
    Sequence Number: 128
    Destination PAN: 0x3332
    Destination: 0x0203
    Source: 0x0103
    FCS: 0xd966 (Correct)
    [Ack In: 552]
Data (42 bytes)
    Data: b200fd1c0000350301210000b74010000000000000000000
    [Length: 42]

0000  61 88 80 32 33 03 02 03 01 b2 00 fd 1c 00 00 35   a..23..........5
0010  03 01 21 00 00 b7 40 10 00 00 00 00 00 00 00 00   ..!...@.........
0020  00 36 01 00 00 3c 01 00 00 00 00 01 00 00 00 d7   .6...<..........
0030  7e 8b d4 66 d9                                    ~..f.

No.     Time           Source                Destination           Protocol Length Info
    552 22.498933                                                  IEEE 802.15.4 5      Ack

Frame 552: 5 bytes on wire (40 bits), 5 bytes captured (40 bits)
    Encapsulation type: IEEE 802.15.4 Wireless PAN (104)
    Arrival Time: Mar  3, 2023 16:19:18.550396000 CST
    [Time shift for this packet: 0.000000000 seconds]
    Epoch Time: 1677881958.550396000 seconds
    [Time delta from previous captured frame: 0.000559000 seconds]
    [Time delta from previous displayed frame: 0.000559000 seconds]
    [Time since reference or first frame: 22.498933000 seconds]
    Frame Number: 552
    Frame Length: 5 bytes (40 bits)
    Capture Length: 5 bytes (40 bits)
    [Frame is marked: False]
    [Frame is ignored: False]
    [Protocols in frame: wpan]
IEEE 802.15.4 Ack, Sequence Number: 128
    Frame Control Field: 0x0002, Frame Type: Ack, Destination Addressing Mode: None, Frame Version: IEEE Std 802.15.4-2003, Source Addressing Mode: None
        .... .... .... .010 = Frame Type: Ack (0x2)
        .... .... .... 0... = Security Enabled: False
        .... .... ...0 .... = Frame Pending: False
        .... .... ..0. .... = Acknowledge Request: False
        .... .... .0.. .... = PAN ID Compression: False
        .... .... 0... .... = Reserved: False
        .... ...0 .... .... = Sequence Number Suppression: False
        .... ..0. .... .... = Information Elements Present: False
        .... 00.. .... .... = Destination Addressing Mode: None (0x0)
        ..00 .... .... .... = Frame Version: IEEE Std 802.15.4-2003 (0)
        00.. .... .... .... = Source Addressing Mode: None (0x0)
    Sequence Number: 128
    FCS: 0x31b0 (Correct)
    [Ack To: 551]
    [Ack Time: 0.559 ms]

0000  02 00 80 b0 31                                    ....1

No.     Time           Source                Destination           Protocol Length Info
    553 22.622630      0x0103                0x0203                IEEE 802.15.4 53     Data, Dst: 0x0203, Src: 0x0103

Frame 553: 53 bytes on wire (424 bits), 53 bytes captured (424 bits)
    Encapsulation type: IEEE 802.15.4 Wireless PAN (104)
    Arrival Time: Mar  3, 2023 16:19:18.674093000 CST
    [Time shift for this packet: 0.000000000 seconds]
    Epoch Time: 1677881958.674093000 seconds
    [Time delta from previous captured frame: 0.123697000 seconds]
    [Time delta from previous displayed frame: 0.123697000 seconds]
    [Time since reference or first frame: 22.622630000 seconds]
    Frame Number: 553
    Frame Length: 53 bytes (424 bits)
    Capture Length: 53 bytes (424 bits)
    [Frame is marked: False]
    [Frame is ignored: False]
    [Protocols in frame: wpan:data]
IEEE 802.15.4 Data, Dst: 0x0203, Src: 0x0103
    Frame Control Field: 0x8861, Frame Type: Data, Acknowledge Request, PAN ID Compression, Destination Addressing Mode: Short/16-bit, Frame Version: IEEE Std 802.15.4-2003, Source Addressing Mode: Short/16-bit
        .... .... .... .001 = Frame Type: Data (0x1)
        .... .... .... 0... = Security Enabled: False
        .... .... ...0 .... = Frame Pending: False
        .... .... ..1. .... = Acknowledge Request: True
        .... .... .1.. .... = PAN ID Compression: True
        .... .... 0... .... = Reserved: False
        .... ...0 .... .... = Sequence Number Suppression: False
        .... ..0. .... .... = Information Elements Present: False
        .... 10.. .... .... = Destination Addressing Mode: Short/16-bit (0x2)
        ..00 .... .... .... = Frame Version: IEEE Std 802.15.4-2003 (0)
        10.. .... .... .... = Source Addressing Mode: Short/16-bit (0x2)
    Sequence Number: 129
    Destination PAN: 0x3332
    Destination: 0x0203
    Source: 0x0103
    FCS: 0x506b (Correct)
    [Ack In: 554]
Data (42 bytes)
    Data: b300fd1c0000360301210000334110000000000000000000
    [Length: 42]

0000  61 88 81 32 33 03 02 03 01 b3 00 fd 1c 00 00 36   a..23..........6
0010  03 01 21 00 00 33 41 10 00 00 00 00 00 00 00 00   ..!..3A.........
0020  00 ae 01 00 00 b0 01 00 00 00 00 01 00 00 00 dd   ................
0030  7e b3 d7 6b 50                                    ~..kP

No.     Time           Source                Destination           Protocol Length Info
    554 22.623083                                                  IEEE 802.15.4 5      Ack

Frame 554: 5 bytes on wire (40 bits), 5 bytes captured (40 bits)
    Encapsulation type: IEEE 802.15.4 Wireless PAN (104)
    Arrival Time: Mar  3, 2023 16:19:18.674546000 CST
    [Time shift for this packet: 0.000000000 seconds]
    Epoch Time: 1677881958.674546000 seconds
    [Time delta from previous captured frame: 0.000453000 seconds]
    [Time delta from previous displayed frame: 0.000453000 seconds]
    [Time since reference or first frame: 22.623083000 seconds]
    Frame Number: 554
    Frame Length: 5 bytes (40 bits)
    Capture Length: 5 bytes (40 bits)
    [Frame is marked: False]
    [Frame is ignored: False]
    [Protocols in frame: wpan]
IEEE 802.15.4 Ack, Sequence Number: 129
    Frame Control Field: 0x0002, Frame Type: Ack, Destination Addressing Mode: None, Frame Version: IEEE Std 802.15.4-2003, Source Addressing Mode: None
        .... .... .... .010 = Frame Type: Ack (0x2)
        .... .... .... 0... = Security Enabled: False
        .... .... ...0 .... = Frame Pending: False
        .... .... ..0. .... = Acknowledge Request: False
        .... .... .0.. .... = PAN ID Compression: False
        .... .... 0... .... = Reserved: False
        .... ...0 .... .... = Sequence Number Suppression: False
        .... ..0. .... .... = Information Elements Present: False
        .... 00.. .... .... = Destination Addressing Mode: None (0x0)
        ..00 .... .... .... = Frame Version: IEEE Std 802.15.4-2003 (0)
        00.. .... .... .... = Source Addressing Mode: None (0x0)
    Sequence Number: 129
    FCS: 0x2039 (Correct)
    [Ack To: 553]
    [Ack Time: 0.453 ms]

0000  02 00 81 39 20                                    ...9 

No.     Time           Source                Destination           Protocol Length Info
    555 22.756297      0x0103                0x0203                IEEE 802.15.4 93     Data, Dst: 0x0203, Src: 0x0103

Frame 555: 93 bytes on wire (744 bits), 93 bytes captured (744 bits)
    Encapsulation type: IEEE 802.15.4 Wireless PAN (104)
    Arrival Time: Mar  3, 2023 16:19:18.807760000 CST
    [Time shift for this packet: 0.000000000 seconds]
    Epoch Time: 1677881958.807760000 seconds
    [Time delta from previous captured frame: 0.133214000 seconds]
    [Time delta from previous displayed frame: 0.133214000 seconds]
    [Time since reference or first frame: 22.756297000 seconds]
    Frame Number: 555
    Frame Length: 93 bytes (744 bits)
    Capture Length: 93 bytes (744 bits)
    [Frame is marked: False]
    [Frame is ignored: False]
    [Protocols in frame: wpan:data]
IEEE 802.15.4 Data, Dst: 0x0203, Src: 0x0103
    Frame Control Field: 0x8861, Frame Type: Data, Acknowledge Request, PAN ID Compression, Destination Addressing Mode: Short/16-bit, Frame Version: IEEE Std 802.15.4-2003, Source Addressing Mode: Short/16-bit
        .... .... .... .001 = Frame Type: Data (0x1)
        .... .... .... 0... = Security Enabled: False
        .... .... ...0 .... = Frame Pending: False
        .... .... ..1. .... = Acknowledge Request: True
        .... .... .1.. .... = PAN ID Compression: True
        .... .... 0... .... = Reserved: False
        .... ...0 .... .... = Sequence Number Suppression: False
        .... ..0. .... .... = Information Elements Present: False
        .... 10.. .... .... = Destination Addressing Mode: Short/16-bit (0x2)
        ..00 .... .... .... = Frame Version: IEEE Std 802.15.4-2003 (0)
        10.. .... .... .... = Source Addressing Mode: Short/16-bit (0x2)
    Sequence Number: 130
    Destination PAN: 0x3332
    Destination: 0x0203
    Source: 0x0103
    FCS: 0x1138 (Correct)
    [Ack In: 556]
Data (82 bytes)
    Data: b400fd1c00003703011e0000b14110006b97893d14ee723b
    [Length: 82]

0000  61 88 82 32 33 03 02 03 01 b4 00 fd 1c 00 00 37   a..23..........7
0010  03 01 1e 00 00 b1 41 10 00 6b 97 89 3d 14 ee 72   ......A..k..=..r
0020  3b 07 05 1d bf e0 a4 76 3c 57 73 35 3b 24 cb 20   ;......v<Ws5;$. 
0030  3d ba 0e fd 1c 00 00 38 03 01 21 00 00 b1 41 10   =......8..!...A.
0040  00 00 00 00 00 00 00 00 00 40 01 00 00 42 01 00   .........@...B..
0050  00 00 00 01 00 01 00 e6 7e 10 7d 38 11            ........~.}8.

No.     Time           Source                Destination           Protocol Length Info
    556 22.756798                                                  IEEE 802.15.4 5      Ack

Frame 556: 5 bytes on wire (40 bits), 5 bytes captured (40 bits)
    Encapsulation type: IEEE 802.15.4 Wireless PAN (104)
    Arrival Time: Mar  3, 2023 16:19:18.808261000 CST
    [Time shift for this packet: 0.000000000 seconds]
    Epoch Time: 1677881958.808261000 seconds
    [Time delta from previous captured frame: 0.000501000 seconds]
    [Time delta from previous displayed frame: 0.000501000 seconds]
    [Time since reference or first frame: 22.756798000 seconds]
    Frame Number: 556
    Frame Length: 5 bytes (40 bits)
    Capture Length: 5 bytes (40 bits)
    [Frame is marked: False]
    [Frame is ignored: False]
    [Protocols in frame: wpan]
IEEE 802.15.4 Ack, Sequence Number: 130
    Frame Control Field: 0x0002, Frame Type: Ack, Destination Addressing Mode: None, Frame Version: IEEE Std 802.15.4-2003, Source Addressing Mode: None
        .... .... .... .010 = Frame Type: Ack (0x2)
        .... .... .... 0... = Security Enabled: False
        .... .... ...0 .... = Frame Pending: False
        .... .... ..0. .... = Acknowledge Request: False
        .... .... .0.. .... = PAN ID Compression: False
        .... .... 0... .... = Reserved: False
        .... ...0 .... .... = Sequence Number Suppression: False
        .... ..0. .... .... = Information Elements Present: False
        .... 00.. .... .... = Destination Addressing Mode: None (0x0)
        ..00 .... .... .... = Frame Version: IEEE Std 802.15.4-2003 (0)
        00.. .... .... .... = Source Addressing Mode: None (0x0)
    Sequence Number: 130
    FCS: 0x12a2 (Correct)
    [Ack To: 555]
    [Ack Time: 0.501 ms]

0000  02 00 82 a2 12                                    .....

No.     Time           Source                Destination           Protocol Length Info
    557 22.823456      0x0203                0x0103                IEEE 802.15.4 34     Data, Dst: 0x0103, Src: 0x0203

Frame 557: 34 bytes on wire (272 bits), 34 bytes captured (272 bits)
    Encapsulation type: IEEE 802.15.4 Wireless PAN (104)
    Arrival Time: Mar  3, 2023 16:19:18.874919000 CST
    [Time shift for this packet: 0.000000000 seconds]
    Epoch Time: 1677881958.874919000 seconds
    [Time delta from previous captured frame: 0.066658000 seconds]
    [Time delta from previous displayed frame: 0.066658000 seconds]
    [Time since reference or first frame: 22.823456000 seconds]
    Frame Number: 557
    Frame Length: 34 bytes (272 bits)
    Capture Length: 34 bytes (272 bits)
    [Frame is marked: False]
    [Frame is ignored: False]
    [Protocols in frame: wpan:data]
IEEE 802.15.4 Data, Dst: 0x0103, Src: 0x0203
    Frame Control Field: 0x8861, Frame Type: Data, Acknowledge Request, PAN ID Compression, Destination Addressing Mode: Short/16-bit, Frame Version: IEEE Std 802.15.4-2003, Source Addressing Mode: Short/16-bit
        .... .... .... .001 = Frame Type: Data (0x1)
        .... .... .... 0... = Security Enabled: False
        .... .... ...0 .... = Frame Pending: False
        .... .... ..1. .... = Acknowledge Request: True
        .... .... .1.. .... = PAN ID Compression: True
        .... .... 0... .... = Reserved: False
        .... ...0 .... .... = Sequence Number Suppression: False
        .... ..0. .... .... = Information Elements Present: False
        .... 10.. .... .... = Destination Addressing Mode: Short/16-bit (0x2)
        ..00 .... .... .... = Frame Version: IEEE Std 802.15.4-2003 (0)
        10.. .... .... .... = Source Addressing Mode: Short/16-bit (0x2)
    Sequence Number: 231
    Destination PAN: 0x3332
    Destination: 0x0103
    Source: 0x0203
    FCS: 0x051e (Correct)
    [Ack In: 558]
Data (23 bytes)
    Data: 1b00fd09000017ffbe000000000000000608c004032f60
    [Length: 23]

0000  61 88 e7 32 33 03 01 03 02 1b 00 fd 09 00 00 17   a..23...........
0010  ff be 00 00 00 00 00 00 00 06 08 c0 04 03 2f 60   ............../`
0020  1e 05                                             ..

No.     Time           Source                Destination           Protocol Length Info
    558 22.823956                                                  IEEE 802.15.4 5      Ack

Frame 558: 5 bytes on wire (40 bits), 5 bytes captured (40 bits)
    Encapsulation type: IEEE 802.15.4 Wireless PAN (104)
    Arrival Time: Mar  3, 2023 16:19:18.875419000 CST
    [Time shift for this packet: 0.000000000 seconds]
    Epoch Time: 1677881958.875419000 seconds
    [Time delta from previous captured frame: 0.000500000 seconds]
    [Time delta from previous displayed frame: 0.000500000 seconds]
    [Time since reference or first frame: 22.823956000 seconds]
    Frame Number: 558
    Frame Length: 5 bytes (40 bits)
    Capture Length: 5 bytes (40 bits)
    [Frame is marked: False]
    [Frame is ignored: False]
    [Protocols in frame: wpan]
IEEE 802.15.4 Ack, Sequence Number: 231
    Frame Control Field: 0x0002, Frame Type: Ack, Destination Addressing Mode: None, Frame Version: IEEE Std 802.15.4-2003, Source Addressing Mode: None
        .... .... .... .010 = Frame Type: Ack (0x2)
        .... .... .... 0... = Security Enabled: False
        .... .... ...0 .... = Frame Pending: False
        .... .... ..0. .... = Acknowledge Request: False
        .... .... .0.. .... = PAN ID Compression: False
        .... .... 0... .... = Reserved: False
        .... ...0 .... .... = Sequence Number Suppression: False
        .... ..0. .... .... = Information Elements Present: False
        .... 00.. .... .... = Destination Addressing Mode: None (0x0)
        ..00 .... .... .... = Frame Version: IEEE Std 802.15.4-2003 (0)
        00.. .... .... .... = Source Addressing Mode: None (0x0)
    Sequence Number: 231
    FCS: 0x2609 (Correct)
    [Ack To: 557]
    [Ack Time: 0.500 ms]

0000  02 00 e7 09 26                                    ....&

No.     Time           Source                Destination           Protocol Length Info
    559 22.872453      0x0103                0x0203                IEEE 802.15.4 53     Data, Dst: 0x0203, Src: 0x0103

Frame 559: 53 bytes on wire (424 bits), 53 bytes captured (424 bits)
    Encapsulation type: IEEE 802.15.4 Wireless PAN (104)
    Arrival Time: Mar  3, 2023 16:19:18.923916000 CST
    [Time shift for this packet: 0.000000000 seconds]
    Epoch Time: 1677881958.923916000 seconds
    [Time delta from previous captured frame: 0.048497000 seconds]
    [Time delta from previous displayed frame: 0.048497000 seconds]
    [Time since reference or first frame: 22.872453000 seconds]
    Frame Number: 559
    Frame Length: 53 bytes (424 bits)
    Capture Length: 53 bytes (424 bits)
    [Frame is marked: False]
    [Frame is ignored: False]
    [Protocols in frame: wpan:data]
IEEE 802.15.4 Data, Dst: 0x0203, Src: 0x0103
    Frame Control Field: 0x8861, Frame Type: Data, Acknowledge Request, PAN ID Compression, Destination Addressing Mode: Short/16-bit, Frame Version: IEEE Std 802.15.4-2003, Source Addressing Mode: Short/16-bit
        .... .... .... .001 = Frame Type: Data (0x1)
        .... .... .... 0... = Security Enabled: False
        .... .... ...0 .... = Frame Pending: False
        .... .... ..1. .... = Acknowledge Request: True
        .... .... .1.. .... = PAN ID Compression: True
        .... .... 0... .... = Reserved: False
        .... ...0 .... .... = Sequence Number Suppression: False
        .... ..0. .... .... = Information Elements Present: False
        .... 10.. .... .... = Destination Addressing Mode: Short/16-bit (0x2)
        ..00 .... .... .... = Frame Version: IEEE Std 802.15.4-2003 (0)
        10.. .... .... .... = Source Addressing Mode: Short/16-bit (0x2)
    Sequence Number: 131
    Destination PAN: 0x3332
    Destination: 0x0203
    Source: 0x0103
    FCS: 0x0138 (Correct)
    [Ack In: 560]
Data (42 bytes)
    Data: b500fd1c00003903012100002d4210000000000000000000
    [Length: 42]

0000  61 88 83 32 33 03 02 03 01 b5 00 fd 1c 00 00 39   a..23..........9
0010  03 01 21 00 00 2d 42 10 00 00 00 00 00 00 00 00   ..!..-B.........
0020  00 72 01 00 00 72 01 00 00 07 00 00 00 ef ff c3   .r...r..........
0030  7f 5a a7 38 01                                    .Z.8.

No.     Time           Source                Destination           Protocol Length Info
    560 22.872967                                                  IEEE 802.15.4 5      Ack

Frame 560: 5 bytes on wire (40 bits), 5 bytes captured (40 bits)
    Encapsulation type: IEEE 802.15.4 Wireless PAN (104)
    Arrival Time: Mar  3, 2023 16:19:18.924430000 CST
    [Time shift for this packet: 0.000000000 seconds]
    Epoch Time: 1677881958.924430000 seconds
    [Time delta from previous captured frame: 0.000514000 seconds]
    [Time delta from previous displayed frame: 0.000514000 seconds]
    [Time since reference or first frame: 22.872967000 seconds]
    Frame Number: 560
    Frame Length: 5 bytes (40 bits)
    Capture Length: 5 bytes (40 bits)
    [Frame is marked: False]
    [Frame is ignored: False]
    [Protocols in frame: wpan]
IEEE 802.15.4 Ack, Sequence Number: 131
    Frame Control Field: 0x0002, Frame Type: Ack, Destination Addressing Mode: None, Frame Version: IEEE Std 802.15.4-2003, Source Addressing Mode: None
        .... .... .... .010 = Frame Type: Ack (0x2)
        .... .... .... 0... = Security Enabled: False
        .... .... ...0 .... = Frame Pending: False
        .... .... ..0. .... = Acknowledge Request: False
        .... .... .0.. .... = PAN ID Compression: False
        .... .... 0... .... = Reserved: False
        .... ...0 .... .... = Sequence Number Suppression: False
        .... ..0. .... .... = Information Elements Present: False
        .... 00.. .... .... = Destination Addressing Mode: None (0x0)
        ..00 .... .... .... = Frame Version: IEEE Std 802.15.4-2003 (0)
        00.. .... .... .... = Source Addressing Mode: None (0x0)
    Sequence Number: 131
    FCS: 0x032b (Correct)
    [Ack To: 559]
    [Ack Time: 0.514 ms]

0000  02 00 83 2b 03                                    ...+.

No.     Time           Source                Destination           Protocol Length Info
    561 22.998044      0x0103                0x0203                IEEE 802.15.4 53     Data, Dst: 0x0203, Src: 0x0103

Frame 561: 53 bytes on wire (424 bits), 53 bytes captured (424 bits)
    Encapsulation type: IEEE 802.15.4 Wireless PAN (104)
    Arrival Time: Mar  3, 2023 16:19:19.049507000 CST
    [Time shift for this packet: 0.000000000 seconds]
    Epoch Time: 1677881959.049507000 seconds
    [Time delta from previous captured frame: 0.125077000 seconds]
    [Time delta from previous displayed frame: 0.125077000 seconds]
    [Time since reference or first frame: 22.998044000 seconds]
    Frame Number: 561
    Frame Length: 53 bytes (424 bits)
    Capture Length: 53 bytes (424 bits)
    [Frame is marked: False]
    [Frame is ignored: False]
    [Protocols in frame: wpan:data]
IEEE 802.15.4 Data, Dst: 0x0203, Src: 0x0103
    Frame Control Field: 0x8861, Frame Type: Data, Acknowledge Request, PAN ID Compression, Destination Addressing Mode: Short/16-bit, Frame Version: IEEE Std 802.15.4-2003, Source Addressing Mode: Short/16-bit
        .... .... .... .001 = Frame Type: Data (0x1)
        .... .... .... 0... = Security Enabled: False
        .... .... ...0 .... = Frame Pending: False
        .... .... ..1. .... = Acknowledge Request: True
        .... .... .1.. .... = PAN ID Compression: True
        .... .... 0... .... = Reserved: False
        .... ...0 .... .... = Sequence Number Suppression: False
        .... ..0. .... .... = Information Elements Present: False
        .... 10.. .... .... = Destination Addressing Mode: Short/16-bit (0x2)
        ..00 .... .... .... = Frame Version: IEEE Std 802.15.4-2003 (0)
        10.. .... .... .... = Source Addressing Mode: Short/16-bit (0x2)
    Sequence Number: 132
    Destination PAN: 0x3332
    Destination: 0x0203
    Source: 0x0103
    FCS: 0xe0d4 (Correct)
    [Ack In: 562]
Data (42 bytes)
    Data: b600fd1c00003a0301210000ab4210000000000000000000
    [Length: 42]

0000  61 88 84 32 33 03 02 03 01 b6 00 fd 1c 00 00 3a   a..23..........:
0010  03 01 21 00 00 ab 42 10 00 00 00 00 00 00 00 00   ..!...B.........
0020  00 36 01 00 00 39 01 00 00 fe ff 15 00 ce ff 5e   .6...9.........^
0030  87 9a f2 d4 e0                                    .....

No.     Time           Source                Destination           Protocol Length Info
    562 22.998549                                                  IEEE 802.15.4 5      Ack

Frame 562: 5 bytes on wire (40 bits), 5 bytes captured (40 bits)
    Encapsulation type: IEEE 802.15.4 Wireless PAN (104)
    Arrival Time: Mar  3, 2023 16:19:19.050012000 CST
    [Time shift for this packet: 0.000000000 seconds]
    Epoch Time: 1677881959.050012000 seconds
    [Time delta from previous captured frame: 0.000505000 seconds]
    [Time delta from previous displayed frame: 0.000505000 seconds]
    [Time since reference or first frame: 22.998549000 seconds]
    Frame Number: 562
    Frame Length: 5 bytes (40 bits)
    Capture Length: 5 bytes (40 bits)
    [Frame is marked: False]
    [Frame is ignored: False]
    [Protocols in frame: wpan]
IEEE 802.15.4 Ack, Sequence Number: 132
    Frame Control Field: 0x0002, Frame Type: Ack, Destination Addressing Mode: None, Frame Version: IEEE Std 802.15.4-2003, Source Addressing Mode: None
        .... .... .... .010 = Frame Type: Ack (0x2)
        .... .... .... 0... = Security Enabled: False
        .... .... ...0 .... = Frame Pending: False
        .... .... ..0. .... = Acknowledge Request: False
        .... .... .0.. .... = PAN ID Compression: False
        .... .... 0... .... = Reserved: False
        .... ...0 .... .... = Sequence Number Suppression: False
        .... ..0. .... .... = Information Elements Present: False
        .... 00.. .... .... = Destination Addressing Mode: None (0x0)
        ..00 .... .... .... = Frame Version: IEEE Std 802.15.4-2003 (0)
        00.. .... .... .... = Source Addressing Mode: None (0x0)
    Sequence Number: 132
    FCS: 0x7794 (Correct)
    [Ack To: 561]
    [Ack Time: 0.505 ms]

0000  02 00 84 94 77                                    ....w
